
lab_3.elf:     file format elf32-littlearm

Sections:
Idx Name          Size      VMA       LMA       File off  Algn
  0 .isr_vector   000001bc  08000000  08000000  00010000  2**0
                  CONTENTS, ALLOC, LOAD, READONLY, DATA
  1 .text         0000842c  080001c0  080001c0  000101c0  2**4
                  CONTENTS, ALLOC, LOAD, READONLY, CODE
  2 .rodata       00000450  080085f0  080085f0  000185f0  2**3
                  CONTENTS, ALLOC, LOAD, READONLY, DATA
  3 .ARM.extab    00000000  08008a40  08008a40  0002121c  2**0
                  CONTENTS
  4 .ARM          00000000  08008a40  08008a40  0002121c  2**0
                  CONTENTS
  5 .preinit_array 00000000  08008a40  08008a40  0002121c  2**0
                  CONTENTS, ALLOC, LOAD, DATA
  6 .init_array   00000004  08008a40  08008a40  00018a40  2**2
                  CONTENTS, ALLOC, LOAD, DATA
  7 .fini_array   00000004  08008a44  08008a44  00018a44  2**2
                  CONTENTS, ALLOC, LOAD, DATA
  8 .data         0000121c  20000000  08008a48  00020000  2**3
                  CONTENTS, ALLOC, LOAD, DATA
  9 .bss          000000b8  2000121c  08009c64  0002121c  2**2
                  ALLOC
 10 ._user_heap_stack 00000604  200012d4  08009c64  000212d4  2**0
                  ALLOC
 11 .ARM.attributes 00000030  00000000  00000000  0002121c  2**0
                  CONTENTS, READONLY
 12 .debug_info   0000b0f8  00000000  00000000  0002124c  2**0
                  CONTENTS, READONLY, DEBUGGING, OCTETS
 13 .debug_abbrev 00001c7b  00000000  00000000  0002c344  2**0
                  CONTENTS, READONLY, DEBUGGING, OCTETS
 14 .debug_aranges 00000aa8  00000000  00000000  0002dfc0  2**3
                  CONTENTS, READONLY, DEBUGGING, OCTETS
 15 .debug_ranges 000009c0  00000000  00000000  0002ea68  2**3
                  CONTENTS, READONLY, DEBUGGING, OCTETS
 16 .debug_macro  0002bfa0  00000000  00000000  0002f428  2**0
                  CONTENTS, READONLY, DEBUGGING, OCTETS
 17 .debug_line   0000c208  00000000  00000000  0005b3c8  2**0
                  CONTENTS, READONLY, DEBUGGING, OCTETS
 18 .debug_str    0010f90d  00000000  00000000  000675d0  2**0
                  CONTENTS, READONLY, DEBUGGING, OCTETS
 19 .comment      00000050  00000000  00000000  00176edd  2**0
                  CONTENTS, READONLY
 20 .debug_frame  00003dd4  00000000  00000000  00176f30  2**2
                  CONTENTS, READONLY, DEBUGGING, OCTETS

Disassembly of section .text:

080001c0 <__do_global_dtors_aux>:
 80001c0:	b510      	push	{r4, lr}
 80001c2:	4c05      	ldr	r4, [pc, #20]	; (80001d8 <__do_global_dtors_aux+0x18>)
 80001c4:	7823      	ldrb	r3, [r4, #0]
 80001c6:	b933      	cbnz	r3, 80001d6 <__do_global_dtors_aux+0x16>
 80001c8:	4b04      	ldr	r3, [pc, #16]	; (80001dc <__do_global_dtors_aux+0x1c>)
 80001ca:	b113      	cbz	r3, 80001d2 <__do_global_dtors_aux+0x12>
 80001cc:	4804      	ldr	r0, [pc, #16]	; (80001e0 <__do_global_dtors_aux+0x20>)
 80001ce:	f3af 8000 	nop.w
 80001d2:	2301      	movs	r3, #1
 80001d4:	7023      	strb	r3, [r4, #0]
 80001d6:	bd10      	pop	{r4, pc}
 80001d8:	2000121c 	.word	0x2000121c
 80001dc:	00000000 	.word	0x00000000
 80001e0:	080085d4 	.word	0x080085d4

080001e4 <frame_dummy>:
 80001e4:	b508      	push	{r3, lr}
 80001e6:	4b03      	ldr	r3, [pc, #12]	; (80001f4 <frame_dummy+0x10>)
 80001e8:	b11b      	cbz	r3, 80001f2 <frame_dummy+0xe>
 80001ea:	4903      	ldr	r1, [pc, #12]	; (80001f8 <frame_dummy+0x14>)
 80001ec:	4803      	ldr	r0, [pc, #12]	; (80001fc <frame_dummy+0x18>)
 80001ee:	f3af 8000 	nop.w
 80001f2:	bd08      	pop	{r3, pc}
 80001f4:	00000000 	.word	0x00000000
 80001f8:	20001220 	.word	0x20001220
 80001fc:	080085d4 	.word	0x080085d4

08000200 <strlen>:
 8000200:	4603      	mov	r3, r0
 8000202:	f813 2b01 	ldrb.w	r2, [r3], #1
 8000206:	2a00      	cmp	r2, #0
 8000208:	d1fb      	bne.n	8000202 <strlen+0x2>
 800020a:	1a18      	subs	r0, r3, r0
 800020c:	3801      	subs	r0, #1
 800020e:	4770      	bx	lr

08000210 <memchr>:
 8000210:	f001 01ff 	and.w	r1, r1, #255	; 0xff
 8000214:	2a10      	cmp	r2, #16
 8000216:	db2b      	blt.n	8000270 <memchr+0x60>
 8000218:	f010 0f07 	tst.w	r0, #7
 800021c:	d008      	beq.n	8000230 <memchr+0x20>
 800021e:	f810 3b01 	ldrb.w	r3, [r0], #1
 8000222:	3a01      	subs	r2, #1
 8000224:	428b      	cmp	r3, r1
 8000226:	d02d      	beq.n	8000284 <memchr+0x74>
 8000228:	f010 0f07 	tst.w	r0, #7
 800022c:	b342      	cbz	r2, 8000280 <memchr+0x70>
 800022e:	d1f6      	bne.n	800021e <memchr+0xe>
 8000230:	b4f0      	push	{r4, r5, r6, r7}
 8000232:	ea41 2101 	orr.w	r1, r1, r1, lsl #8
 8000236:	ea41 4101 	orr.w	r1, r1, r1, lsl #16
 800023a:	f022 0407 	bic.w	r4, r2, #7
 800023e:	f07f 0700 	mvns.w	r7, #0
 8000242:	2300      	movs	r3, #0
 8000244:	e8f0 5602 	ldrd	r5, r6, [r0], #8
 8000248:	3c08      	subs	r4, #8
 800024a:	ea85 0501 	eor.w	r5, r5, r1
 800024e:	ea86 0601 	eor.w	r6, r6, r1
 8000252:	fa85 f547 	uadd8	r5, r5, r7
 8000256:	faa3 f587 	sel	r5, r3, r7
 800025a:	fa86 f647 	uadd8	r6, r6, r7
 800025e:	faa5 f687 	sel	r6, r5, r7
 8000262:	b98e      	cbnz	r6, 8000288 <memchr+0x78>
 8000264:	d1ee      	bne.n	8000244 <memchr+0x34>
 8000266:	bcf0      	pop	{r4, r5, r6, r7}
 8000268:	f001 01ff 	and.w	r1, r1, #255	; 0xff
 800026c:	f002 0207 	and.w	r2, r2, #7
 8000270:	b132      	cbz	r2, 8000280 <memchr+0x70>
 8000272:	f810 3b01 	ldrb.w	r3, [r0], #1
 8000276:	3a01      	subs	r2, #1
 8000278:	ea83 0301 	eor.w	r3, r3, r1
 800027c:	b113      	cbz	r3, 8000284 <memchr+0x74>
 800027e:	d1f8      	bne.n	8000272 <memchr+0x62>
 8000280:	2000      	movs	r0, #0
 8000282:	4770      	bx	lr
 8000284:	3801      	subs	r0, #1
 8000286:	4770      	bx	lr
 8000288:	2d00      	cmp	r5, #0
 800028a:	bf06      	itte	eq
 800028c:	4635      	moveq	r5, r6
 800028e:	3803      	subeq	r0, #3
 8000290:	3807      	subne	r0, #7
 8000292:	f015 0f01 	tst.w	r5, #1
 8000296:	d107      	bne.n	80002a8 <memchr+0x98>
 8000298:	3001      	adds	r0, #1
 800029a:	f415 7f80 	tst.w	r5, #256	; 0x100
 800029e:	bf02      	ittt	eq
 80002a0:	3001      	addeq	r0, #1
 80002a2:	f415 3fc0 	tsteq.w	r5, #98304	; 0x18000
 80002a6:	3001      	addeq	r0, #1
 80002a8:	bcf0      	pop	{r4, r5, r6, r7}
 80002aa:	3801      	subs	r0, #1
 80002ac:	4770      	bx	lr
 80002ae:	bf00      	nop

080002b0 <__aeabi_drsub>:
 80002b0:	f081 4100 	eor.w	r1, r1, #2147483648	; 0x80000000
 80002b4:	e002      	b.n	80002bc <__adddf3>
 80002b6:	bf00      	nop

080002b8 <__aeabi_dsub>:
 80002b8:	f083 4300 	eor.w	r3, r3, #2147483648	; 0x80000000

080002bc <__adddf3>:
 80002bc:	b530      	push	{r4, r5, lr}
 80002be:	ea4f 0441 	mov.w	r4, r1, lsl #1
 80002c2:	ea4f 0543 	mov.w	r5, r3, lsl #1
 80002c6:	ea94 0f05 	teq	r4, r5
 80002ca:	bf08      	it	eq
 80002cc:	ea90 0f02 	teqeq	r0, r2
 80002d0:	bf1f      	itttt	ne
 80002d2:	ea54 0c00 	orrsne.w	ip, r4, r0
 80002d6:	ea55 0c02 	orrsne.w	ip, r5, r2
 80002da:	ea7f 5c64 	mvnsne.w	ip, r4, asr #21
 80002de:	ea7f 5c65 	mvnsne.w	ip, r5, asr #21
 80002e2:	f000 80e2 	beq.w	80004aa <__adddf3+0x1ee>
 80002e6:	ea4f 5454 	mov.w	r4, r4, lsr #21
 80002ea:	ebd4 5555 	rsbs	r5, r4, r5, lsr #21
 80002ee:	bfb8      	it	lt
 80002f0:	426d      	neglt	r5, r5
 80002f2:	dd0c      	ble.n	800030e <__adddf3+0x52>
 80002f4:	442c      	add	r4, r5
 80002f6:	ea80 0202 	eor.w	r2, r0, r2
 80002fa:	ea81 0303 	eor.w	r3, r1, r3
 80002fe:	ea82 0000 	eor.w	r0, r2, r0
 8000302:	ea83 0101 	eor.w	r1, r3, r1
 8000306:	ea80 0202 	eor.w	r2, r0, r2
 800030a:	ea81 0303 	eor.w	r3, r1, r3
 800030e:	2d36      	cmp	r5, #54	; 0x36
 8000310:	bf88      	it	hi
 8000312:	bd30      	pophi	{r4, r5, pc}
 8000314:	f011 4f00 	tst.w	r1, #2147483648	; 0x80000000
 8000318:	ea4f 3101 	mov.w	r1, r1, lsl #12
 800031c:	f44f 1c80 	mov.w	ip, #1048576	; 0x100000
 8000320:	ea4c 3111 	orr.w	r1, ip, r1, lsr #12
 8000324:	d002      	beq.n	800032c <__adddf3+0x70>
 8000326:	4240      	negs	r0, r0
 8000328:	eb61 0141 	sbc.w	r1, r1, r1, lsl #1
 800032c:	f013 4f00 	tst.w	r3, #2147483648	; 0x80000000
 8000330:	ea4f 3303 	mov.w	r3, r3, lsl #12
 8000334:	ea4c 3313 	orr.w	r3, ip, r3, lsr #12
 8000338:	d002      	beq.n	8000340 <__adddf3+0x84>
 800033a:	4252      	negs	r2, r2
 800033c:	eb63 0343 	sbc.w	r3, r3, r3, lsl #1
 8000340:	ea94 0f05 	teq	r4, r5
 8000344:	f000 80a7 	beq.w	8000496 <__adddf3+0x1da>
 8000348:	f1a4 0401 	sub.w	r4, r4, #1
 800034c:	f1d5 0e20 	rsbs	lr, r5, #32
 8000350:	db0d      	blt.n	800036e <__adddf3+0xb2>
 8000352:	fa02 fc0e 	lsl.w	ip, r2, lr
 8000356:	fa22 f205 	lsr.w	r2, r2, r5
 800035a:	1880      	adds	r0, r0, r2
 800035c:	f141 0100 	adc.w	r1, r1, #0
 8000360:	fa03 f20e 	lsl.w	r2, r3, lr
 8000364:	1880      	adds	r0, r0, r2
 8000366:	fa43 f305 	asr.w	r3, r3, r5
 800036a:	4159      	adcs	r1, r3
 800036c:	e00e      	b.n	800038c <__adddf3+0xd0>
 800036e:	f1a5 0520 	sub.w	r5, r5, #32
 8000372:	f10e 0e20 	add.w	lr, lr, #32
 8000376:	2a01      	cmp	r2, #1
 8000378:	fa03 fc0e 	lsl.w	ip, r3, lr
 800037c:	bf28      	it	cs
 800037e:	f04c 0c02 	orrcs.w	ip, ip, #2
 8000382:	fa43 f305 	asr.w	r3, r3, r5
 8000386:	18c0      	adds	r0, r0, r3
 8000388:	eb51 71e3 	adcs.w	r1, r1, r3, asr #31
 800038c:	f001 4500 	and.w	r5, r1, #2147483648	; 0x80000000
 8000390:	d507      	bpl.n	80003a2 <__adddf3+0xe6>
 8000392:	f04f 0e00 	mov.w	lr, #0
 8000396:	f1dc 0c00 	rsbs	ip, ip, #0
 800039a:	eb7e 0000 	sbcs.w	r0, lr, r0
 800039e:	eb6e 0101 	sbc.w	r1, lr, r1
 80003a2:	f5b1 1f80 	cmp.w	r1, #1048576	; 0x100000
 80003a6:	d31b      	bcc.n	80003e0 <__adddf3+0x124>
 80003a8:	f5b1 1f00 	cmp.w	r1, #2097152	; 0x200000
 80003ac:	d30c      	bcc.n	80003c8 <__adddf3+0x10c>
 80003ae:	0849      	lsrs	r1, r1, #1
 80003b0:	ea5f 0030 	movs.w	r0, r0, rrx
 80003b4:	ea4f 0c3c 	mov.w	ip, ip, rrx
 80003b8:	f104 0401 	add.w	r4, r4, #1
 80003bc:	ea4f 5244 	mov.w	r2, r4, lsl #21
 80003c0:	f512 0f80 	cmn.w	r2, #4194304	; 0x400000
 80003c4:	f080 809a 	bcs.w	80004fc <__adddf3+0x240>
 80003c8:	f1bc 4f00 	cmp.w	ip, #2147483648	; 0x80000000
 80003cc:	bf08      	it	eq
 80003ce:	ea5f 0c50 	movseq.w	ip, r0, lsr #1
 80003d2:	f150 0000 	adcs.w	r0, r0, #0
 80003d6:	eb41 5104 	adc.w	r1, r1, r4, lsl #20
 80003da:	ea41 0105 	orr.w	r1, r1, r5
 80003de:	bd30      	pop	{r4, r5, pc}
 80003e0:	ea5f 0c4c 	movs.w	ip, ip, lsl #1
 80003e4:	4140      	adcs	r0, r0
 80003e6:	eb41 0101 	adc.w	r1, r1, r1
 80003ea:	3c01      	subs	r4, #1
 80003ec:	bf28      	it	cs
 80003ee:	f5b1 1f80 	cmpcs.w	r1, #1048576	; 0x100000
 80003f2:	d2e9      	bcs.n	80003c8 <__adddf3+0x10c>
 80003f4:	f091 0f00 	teq	r1, #0
 80003f8:	bf04      	itt	eq
 80003fa:	4601      	moveq	r1, r0
 80003fc:	2000      	moveq	r0, #0
 80003fe:	fab1 f381 	clz	r3, r1
 8000402:	bf08      	it	eq
 8000404:	3320      	addeq	r3, #32
 8000406:	f1a3 030b 	sub.w	r3, r3, #11
 800040a:	f1b3 0220 	subs.w	r2, r3, #32
 800040e:	da0c      	bge.n	800042a <__adddf3+0x16e>
 8000410:	320c      	adds	r2, #12
 8000412:	dd08      	ble.n	8000426 <__adddf3+0x16a>
 8000414:	f102 0c14 	add.w	ip, r2, #20
 8000418:	f1c2 020c 	rsb	r2, r2, #12
 800041c:	fa01 f00c 	lsl.w	r0, r1, ip
 8000420:	fa21 f102 	lsr.w	r1, r1, r2
 8000424:	e00c      	b.n	8000440 <__adddf3+0x184>
 8000426:	f102 0214 	add.w	r2, r2, #20
 800042a:	bfd8      	it	le
 800042c:	f1c2 0c20 	rsble	ip, r2, #32
 8000430:	fa01 f102 	lsl.w	r1, r1, r2
 8000434:	fa20 fc0c 	lsr.w	ip, r0, ip
 8000438:	bfdc      	itt	le
 800043a:	ea41 010c 	orrle.w	r1, r1, ip
 800043e:	4090      	lslle	r0, r2
 8000440:	1ae4      	subs	r4, r4, r3
 8000442:	bfa2      	ittt	ge
 8000444:	eb01 5104 	addge.w	r1, r1, r4, lsl #20
 8000448:	4329      	orrge	r1, r5
 800044a:	bd30      	popge	{r4, r5, pc}
 800044c:	ea6f 0404 	mvn.w	r4, r4
 8000450:	3c1f      	subs	r4, #31
 8000452:	da1c      	bge.n	800048e <__adddf3+0x1d2>
 8000454:	340c      	adds	r4, #12
 8000456:	dc0e      	bgt.n	8000476 <__adddf3+0x1ba>
 8000458:	f104 0414 	add.w	r4, r4, #20
 800045c:	f1c4 0220 	rsb	r2, r4, #32
 8000460:	fa20 f004 	lsr.w	r0, r0, r4
 8000464:	fa01 f302 	lsl.w	r3, r1, r2
 8000468:	ea40 0003 	orr.w	r0, r0, r3
 800046c:	fa21 f304 	lsr.w	r3, r1, r4
 8000470:	ea45 0103 	orr.w	r1, r5, r3
 8000474:	bd30      	pop	{r4, r5, pc}
 8000476:	f1c4 040c 	rsb	r4, r4, #12
 800047a:	f1c4 0220 	rsb	r2, r4, #32
 800047e:	fa20 f002 	lsr.w	r0, r0, r2
 8000482:	fa01 f304 	lsl.w	r3, r1, r4
 8000486:	ea40 0003 	orr.w	r0, r0, r3
 800048a:	4629      	mov	r1, r5
 800048c:	bd30      	pop	{r4, r5, pc}
 800048e:	fa21 f004 	lsr.w	r0, r1, r4
 8000492:	4629      	mov	r1, r5
 8000494:	bd30      	pop	{r4, r5, pc}
 8000496:	f094 0f00 	teq	r4, #0
 800049a:	f483 1380 	eor.w	r3, r3, #1048576	; 0x100000
 800049e:	bf06      	itte	eq
 80004a0:	f481 1180 	eoreq.w	r1, r1, #1048576	; 0x100000
 80004a4:	3401      	addeq	r4, #1
 80004a6:	3d01      	subne	r5, #1
 80004a8:	e74e      	b.n	8000348 <__adddf3+0x8c>
 80004aa:	ea7f 5c64 	mvns.w	ip, r4, asr #21
 80004ae:	bf18      	it	ne
 80004b0:	ea7f 5c65 	mvnsne.w	ip, r5, asr #21
 80004b4:	d029      	beq.n	800050a <__adddf3+0x24e>
 80004b6:	ea94 0f05 	teq	r4, r5
 80004ba:	bf08      	it	eq
 80004bc:	ea90 0f02 	teqeq	r0, r2
 80004c0:	d005      	beq.n	80004ce <__adddf3+0x212>
 80004c2:	ea54 0c00 	orrs.w	ip, r4, r0
 80004c6:	bf04      	itt	eq
 80004c8:	4619      	moveq	r1, r3
 80004ca:	4610      	moveq	r0, r2
 80004cc:	bd30      	pop	{r4, r5, pc}
 80004ce:	ea91 0f03 	teq	r1, r3
 80004d2:	bf1e      	ittt	ne
 80004d4:	2100      	movne	r1, #0
 80004d6:	2000      	movne	r0, #0
 80004d8:	bd30      	popne	{r4, r5, pc}
 80004da:	ea5f 5c54 	movs.w	ip, r4, lsr #21
 80004de:	d105      	bne.n	80004ec <__adddf3+0x230>
 80004e0:	0040      	lsls	r0, r0, #1
 80004e2:	4149      	adcs	r1, r1
 80004e4:	bf28      	it	cs
 80004e6:	f041 4100 	orrcs.w	r1, r1, #2147483648	; 0x80000000
 80004ea:	bd30      	pop	{r4, r5, pc}
 80004ec:	f514 0480 	adds.w	r4, r4, #4194304	; 0x400000
 80004f0:	bf3c      	itt	cc
 80004f2:	f501 1180 	addcc.w	r1, r1, #1048576	; 0x100000
 80004f6:	bd30      	popcc	{r4, r5, pc}
 80004f8:	f001 4500 	and.w	r5, r1, #2147483648	; 0x80000000
 80004fc:	f045 41fe 	orr.w	r1, r5, #2130706432	; 0x7f000000
 8000500:	f441 0170 	orr.w	r1, r1, #15728640	; 0xf00000
 8000504:	f04f 0000 	mov.w	r0, #0
 8000508:	bd30      	pop	{r4, r5, pc}
 800050a:	ea7f 5c64 	mvns.w	ip, r4, asr #21
 800050e:	bf1a      	itte	ne
 8000510:	4619      	movne	r1, r3
 8000512:	4610      	movne	r0, r2
 8000514:	ea7f 5c65 	mvnseq.w	ip, r5, asr #21
 8000518:	bf1c      	itt	ne
 800051a:	460b      	movne	r3, r1
 800051c:	4602      	movne	r2, r0
 800051e:	ea50 3401 	orrs.w	r4, r0, r1, lsl #12
 8000522:	bf06      	itte	eq
 8000524:	ea52 3503 	orrseq.w	r5, r2, r3, lsl #12
 8000528:	ea91 0f03 	teqeq	r1, r3
 800052c:	f441 2100 	orrne.w	r1, r1, #524288	; 0x80000
 8000530:	bd30      	pop	{r4, r5, pc}
 8000532:	bf00      	nop

08000534 <__aeabi_ui2d>:
 8000534:	f090 0f00 	teq	r0, #0
 8000538:	bf04      	itt	eq
 800053a:	2100      	moveq	r1, #0
 800053c:	4770      	bxeq	lr
 800053e:	b530      	push	{r4, r5, lr}
 8000540:	f44f 6480 	mov.w	r4, #1024	; 0x400
 8000544:	f104 0432 	add.w	r4, r4, #50	; 0x32
 8000548:	f04f 0500 	mov.w	r5, #0
 800054c:	f04f 0100 	mov.w	r1, #0
 8000550:	e750      	b.n	80003f4 <__adddf3+0x138>
 8000552:	bf00      	nop

08000554 <__aeabi_i2d>:
 8000554:	f090 0f00 	teq	r0, #0
 8000558:	bf04      	itt	eq
 800055a:	2100      	moveq	r1, #0
 800055c:	4770      	bxeq	lr
 800055e:	b530      	push	{r4, r5, lr}
 8000560:	f44f 6480 	mov.w	r4, #1024	; 0x400
 8000564:	f104 0432 	add.w	r4, r4, #50	; 0x32
 8000568:	f010 4500 	ands.w	r5, r0, #2147483648	; 0x80000000
 800056c:	bf48      	it	mi
 800056e:	4240      	negmi	r0, r0
 8000570:	f04f 0100 	mov.w	r1, #0
 8000574:	e73e      	b.n	80003f4 <__adddf3+0x138>
 8000576:	bf00      	nop

08000578 <__aeabi_f2d>:
 8000578:	0042      	lsls	r2, r0, #1
 800057a:	ea4f 01e2 	mov.w	r1, r2, asr #3
 800057e:	ea4f 0131 	mov.w	r1, r1, rrx
 8000582:	ea4f 7002 	mov.w	r0, r2, lsl #28
 8000586:	bf1f      	itttt	ne
 8000588:	f012 437f 	andsne.w	r3, r2, #4278190080	; 0xff000000
 800058c:	f093 4f7f 	teqne	r3, #4278190080	; 0xff000000
 8000590:	f081 5160 	eorne.w	r1, r1, #939524096	; 0x38000000
 8000594:	4770      	bxne	lr
 8000596:	f032 427f 	bics.w	r2, r2, #4278190080	; 0xff000000
 800059a:	bf08      	it	eq
 800059c:	4770      	bxeq	lr
 800059e:	f093 4f7f 	teq	r3, #4278190080	; 0xff000000
 80005a2:	bf04      	itt	eq
 80005a4:	f441 2100 	orreq.w	r1, r1, #524288	; 0x80000
 80005a8:	4770      	bxeq	lr
 80005aa:	b530      	push	{r4, r5, lr}
 80005ac:	f44f 7460 	mov.w	r4, #896	; 0x380
 80005b0:	f001 4500 	and.w	r5, r1, #2147483648	; 0x80000000
 80005b4:	f021 4100 	bic.w	r1, r1, #2147483648	; 0x80000000
 80005b8:	e71c      	b.n	80003f4 <__adddf3+0x138>
 80005ba:	bf00      	nop

080005bc <__aeabi_ul2d>:
 80005bc:	ea50 0201 	orrs.w	r2, r0, r1
 80005c0:	bf08      	it	eq
 80005c2:	4770      	bxeq	lr
 80005c4:	b530      	push	{r4, r5, lr}
 80005c6:	f04f 0500 	mov.w	r5, #0
 80005ca:	e00a      	b.n	80005e2 <__aeabi_l2d+0x16>

080005cc <__aeabi_l2d>:
 80005cc:	ea50 0201 	orrs.w	r2, r0, r1
 80005d0:	bf08      	it	eq
 80005d2:	4770      	bxeq	lr
 80005d4:	b530      	push	{r4, r5, lr}
 80005d6:	f011 4500 	ands.w	r5, r1, #2147483648	; 0x80000000
 80005da:	d502      	bpl.n	80005e2 <__aeabi_l2d+0x16>
 80005dc:	4240      	negs	r0, r0
 80005de:	eb61 0141 	sbc.w	r1, r1, r1, lsl #1
 80005e2:	f44f 6480 	mov.w	r4, #1024	; 0x400
 80005e6:	f104 0432 	add.w	r4, r4, #50	; 0x32
 80005ea:	ea5f 5c91 	movs.w	ip, r1, lsr #22
 80005ee:	f43f aed8 	beq.w	80003a2 <__adddf3+0xe6>
 80005f2:	f04f 0203 	mov.w	r2, #3
 80005f6:	ea5f 0cdc 	movs.w	ip, ip, lsr #3
 80005fa:	bf18      	it	ne
 80005fc:	3203      	addne	r2, #3
 80005fe:	ea5f 0cdc 	movs.w	ip, ip, lsr #3
 8000602:	bf18      	it	ne
 8000604:	3203      	addne	r2, #3
 8000606:	eb02 02dc 	add.w	r2, r2, ip, lsr #3
 800060a:	f1c2 0320 	rsb	r3, r2, #32
 800060e:	fa00 fc03 	lsl.w	ip, r0, r3
 8000612:	fa20 f002 	lsr.w	r0, r0, r2
 8000616:	fa01 fe03 	lsl.w	lr, r1, r3
 800061a:	ea40 000e 	orr.w	r0, r0, lr
 800061e:	fa21 f102 	lsr.w	r1, r1, r2
 8000622:	4414      	add	r4, r2
 8000624:	e6bd      	b.n	80003a2 <__adddf3+0xe6>
 8000626:	bf00      	nop

08000628 <__aeabi_dmul>:
 8000628:	b570      	push	{r4, r5, r6, lr}
 800062a:	f04f 0cff 	mov.w	ip, #255	; 0xff
 800062e:	f44c 6ce0 	orr.w	ip, ip, #1792	; 0x700
 8000632:	ea1c 5411 	ands.w	r4, ip, r1, lsr #20
 8000636:	bf1d      	ittte	ne
 8000638:	ea1c 5513 	andsne.w	r5, ip, r3, lsr #20
 800063c:	ea94 0f0c 	teqne	r4, ip
 8000640:	ea95 0f0c 	teqne	r5, ip
 8000644:	f000 f8de 	bleq	8000804 <__aeabi_dmul+0x1dc>
 8000648:	442c      	add	r4, r5
 800064a:	ea81 0603 	eor.w	r6, r1, r3
 800064e:	ea21 514c 	bic.w	r1, r1, ip, lsl #21
 8000652:	ea23 534c 	bic.w	r3, r3, ip, lsl #21
 8000656:	ea50 3501 	orrs.w	r5, r0, r1, lsl #12
 800065a:	bf18      	it	ne
 800065c:	ea52 3503 	orrsne.w	r5, r2, r3, lsl #12
 8000660:	f441 1180 	orr.w	r1, r1, #1048576	; 0x100000
 8000664:	f443 1380 	orr.w	r3, r3, #1048576	; 0x100000
 8000668:	d038      	beq.n	80006dc <__aeabi_dmul+0xb4>
 800066a:	fba0 ce02 	umull	ip, lr, r0, r2
 800066e:	f04f 0500 	mov.w	r5, #0
 8000672:	fbe1 e502 	umlal	lr, r5, r1, r2
 8000676:	f006 4200 	and.w	r2, r6, #2147483648	; 0x80000000
 800067a:	fbe0 e503 	umlal	lr, r5, r0, r3
 800067e:	f04f 0600 	mov.w	r6, #0
 8000682:	fbe1 5603 	umlal	r5, r6, r1, r3
 8000686:	f09c 0f00 	teq	ip, #0
 800068a:	bf18      	it	ne
 800068c:	f04e 0e01 	orrne.w	lr, lr, #1
 8000690:	f1a4 04ff 	sub.w	r4, r4, #255	; 0xff
 8000694:	f5b6 7f00 	cmp.w	r6, #512	; 0x200
 8000698:	f564 7440 	sbc.w	r4, r4, #768	; 0x300
 800069c:	d204      	bcs.n	80006a8 <__aeabi_dmul+0x80>
 800069e:	ea5f 0e4e 	movs.w	lr, lr, lsl #1
 80006a2:	416d      	adcs	r5, r5
 80006a4:	eb46 0606 	adc.w	r6, r6, r6
 80006a8:	ea42 21c6 	orr.w	r1, r2, r6, lsl #11
 80006ac:	ea41 5155 	orr.w	r1, r1, r5, lsr #21
 80006b0:	ea4f 20c5 	mov.w	r0, r5, lsl #11
 80006b4:	ea40 505e 	orr.w	r0, r0, lr, lsr #21
 80006b8:	ea4f 2ece 	mov.w	lr, lr, lsl #11
 80006bc:	f1b4 0cfd 	subs.w	ip, r4, #253	; 0xfd
 80006c0:	bf88      	it	hi
 80006c2:	f5bc 6fe0 	cmphi.w	ip, #1792	; 0x700
 80006c6:	d81e      	bhi.n	8000706 <__aeabi_dmul+0xde>
 80006c8:	f1be 4f00 	cmp.w	lr, #2147483648	; 0x80000000
 80006cc:	bf08      	it	eq
 80006ce:	ea5f 0e50 	movseq.w	lr, r0, lsr #1
 80006d2:	f150 0000 	adcs.w	r0, r0, #0
 80006d6:	eb41 5104 	adc.w	r1, r1, r4, lsl #20
 80006da:	bd70      	pop	{r4, r5, r6, pc}
 80006dc:	f006 4600 	and.w	r6, r6, #2147483648	; 0x80000000
 80006e0:	ea46 0101 	orr.w	r1, r6, r1
 80006e4:	ea40 0002 	orr.w	r0, r0, r2
 80006e8:	ea81 0103 	eor.w	r1, r1, r3
 80006ec:	ebb4 045c 	subs.w	r4, r4, ip, lsr #1
 80006f0:	bfc2      	ittt	gt
 80006f2:	ebd4 050c 	rsbsgt	r5, r4, ip
 80006f6:	ea41 5104 	orrgt.w	r1, r1, r4, lsl #20
 80006fa:	bd70      	popgt	{r4, r5, r6, pc}
 80006fc:	f441 1180 	orr.w	r1, r1, #1048576	; 0x100000
 8000700:	f04f 0e00 	mov.w	lr, #0
 8000704:	3c01      	subs	r4, #1
 8000706:	f300 80ab 	bgt.w	8000860 <__aeabi_dmul+0x238>
 800070a:	f114 0f36 	cmn.w	r4, #54	; 0x36
 800070e:	bfde      	ittt	le
 8000710:	2000      	movle	r0, #0
 8000712:	f001 4100 	andle.w	r1, r1, #2147483648	; 0x80000000
 8000716:	bd70      	pople	{r4, r5, r6, pc}
 8000718:	f1c4 0400 	rsb	r4, r4, #0
 800071c:	3c20      	subs	r4, #32
 800071e:	da35      	bge.n	800078c <__aeabi_dmul+0x164>
 8000720:	340c      	adds	r4, #12
 8000722:	dc1b      	bgt.n	800075c <__aeabi_dmul+0x134>
 8000724:	f104 0414 	add.w	r4, r4, #20
 8000728:	f1c4 0520 	rsb	r5, r4, #32
 800072c:	fa00 f305 	lsl.w	r3, r0, r5
 8000730:	fa20 f004 	lsr.w	r0, r0, r4
 8000734:	fa01 f205 	lsl.w	r2, r1, r5
 8000738:	ea40 0002 	orr.w	r0, r0, r2
 800073c:	f001 4200 	and.w	r2, r1, #2147483648	; 0x80000000
 8000740:	f021 4100 	bic.w	r1, r1, #2147483648	; 0x80000000
 8000744:	eb10 70d3 	adds.w	r0, r0, r3, lsr #31
 8000748:	fa21 f604 	lsr.w	r6, r1, r4
 800074c:	eb42 0106 	adc.w	r1, r2, r6
 8000750:	ea5e 0e43 	orrs.w	lr, lr, r3, lsl #1
 8000754:	bf08      	it	eq
 8000756:	ea20 70d3 	biceq.w	r0, r0, r3, lsr #31
 800075a:	bd70      	pop	{r4, r5, r6, pc}
 800075c:	f1c4 040c 	rsb	r4, r4, #12
 8000760:	f1c4 0520 	rsb	r5, r4, #32
 8000764:	fa00 f304 	lsl.w	r3, r0, r4
 8000768:	fa20 f005 	lsr.w	r0, r0, r5
 800076c:	fa01 f204 	lsl.w	r2, r1, r4
 8000770:	ea40 0002 	orr.w	r0, r0, r2
 8000774:	f001 4100 	and.w	r1, r1, #2147483648	; 0x80000000
 8000778:	eb10 70d3 	adds.w	r0, r0, r3, lsr #31
 800077c:	f141 0100 	adc.w	r1, r1, #0
 8000780:	ea5e 0e43 	orrs.w	lr, lr, r3, lsl #1
 8000784:	bf08      	it	eq
 8000786:	ea20 70d3 	biceq.w	r0, r0, r3, lsr #31
 800078a:	bd70      	pop	{r4, r5, r6, pc}
 800078c:	f1c4 0520 	rsb	r5, r4, #32
 8000790:	fa00 f205 	lsl.w	r2, r0, r5
 8000794:	ea4e 0e02 	orr.w	lr, lr, r2
 8000798:	fa20 f304 	lsr.w	r3, r0, r4
 800079c:	fa01 f205 	lsl.w	r2, r1, r5
 80007a0:	ea43 0302 	orr.w	r3, r3, r2
 80007a4:	fa21 f004 	lsr.w	r0, r1, r4
 80007a8:	f001 4100 	and.w	r1, r1, #2147483648	; 0x80000000
 80007ac:	fa21 f204 	lsr.w	r2, r1, r4
 80007b0:	ea20 0002 	bic.w	r0, r0, r2
 80007b4:	eb00 70d3 	add.w	r0, r0, r3, lsr #31
 80007b8:	ea5e 0e43 	orrs.w	lr, lr, r3, lsl #1
 80007bc:	bf08      	it	eq
 80007be:	ea20 70d3 	biceq.w	r0, r0, r3, lsr #31
 80007c2:	bd70      	pop	{r4, r5, r6, pc}
 80007c4:	f094 0f00 	teq	r4, #0
 80007c8:	d10f      	bne.n	80007ea <__aeabi_dmul+0x1c2>
 80007ca:	f001 4600 	and.w	r6, r1, #2147483648	; 0x80000000
 80007ce:	0040      	lsls	r0, r0, #1
 80007d0:	eb41 0101 	adc.w	r1, r1, r1
 80007d4:	f411 1f80 	tst.w	r1, #1048576	; 0x100000
 80007d8:	bf08      	it	eq
 80007da:	3c01      	subeq	r4, #1
 80007dc:	d0f7      	beq.n	80007ce <__aeabi_dmul+0x1a6>
 80007de:	ea41 0106 	orr.w	r1, r1, r6
 80007e2:	f095 0f00 	teq	r5, #0
 80007e6:	bf18      	it	ne
 80007e8:	4770      	bxne	lr
 80007ea:	f003 4600 	and.w	r6, r3, #2147483648	; 0x80000000
 80007ee:	0052      	lsls	r2, r2, #1
 80007f0:	eb43 0303 	adc.w	r3, r3, r3
 80007f4:	f413 1f80 	tst.w	r3, #1048576	; 0x100000
 80007f8:	bf08      	it	eq
 80007fa:	3d01      	subeq	r5, #1
 80007fc:	d0f7      	beq.n	80007ee <__aeabi_dmul+0x1c6>
 80007fe:	ea43 0306 	orr.w	r3, r3, r6
 8000802:	4770      	bx	lr
 8000804:	ea94 0f0c 	teq	r4, ip
 8000808:	ea0c 5513 	and.w	r5, ip, r3, lsr #20
 800080c:	bf18      	it	ne
 800080e:	ea95 0f0c 	teqne	r5, ip
 8000812:	d00c      	beq.n	800082e <__aeabi_dmul+0x206>
 8000814:	ea50 0641 	orrs.w	r6, r0, r1, lsl #1
 8000818:	bf18      	it	ne
 800081a:	ea52 0643 	orrsne.w	r6, r2, r3, lsl #1
 800081e:	d1d1      	bne.n	80007c4 <__aeabi_dmul+0x19c>
 8000820:	ea81 0103 	eor.w	r1, r1, r3
 8000824:	f001 4100 	and.w	r1, r1, #2147483648	; 0x80000000
 8000828:	f04f 0000 	mov.w	r0, #0
 800082c:	bd70      	pop	{r4, r5, r6, pc}
 800082e:	ea50 0641 	orrs.w	r6, r0, r1, lsl #1
 8000832:	bf06      	itte	eq
 8000834:	4610      	moveq	r0, r2
 8000836:	4619      	moveq	r1, r3
 8000838:	ea52 0643 	orrsne.w	r6, r2, r3, lsl #1
 800083c:	d019      	beq.n	8000872 <__aeabi_dmul+0x24a>
 800083e:	ea94 0f0c 	teq	r4, ip
 8000842:	d102      	bne.n	800084a <__aeabi_dmul+0x222>
 8000844:	ea50 3601 	orrs.w	r6, r0, r1, lsl #12
 8000848:	d113      	bne.n	8000872 <__aeabi_dmul+0x24a>
 800084a:	ea95 0f0c 	teq	r5, ip
 800084e:	d105      	bne.n	800085c <__aeabi_dmul+0x234>
 8000850:	ea52 3603 	orrs.w	r6, r2, r3, lsl #12
 8000854:	bf1c      	itt	ne
 8000856:	4610      	movne	r0, r2
 8000858:	4619      	movne	r1, r3
 800085a:	d10a      	bne.n	8000872 <__aeabi_dmul+0x24a>
 800085c:	ea81 0103 	eor.w	r1, r1, r3
 8000860:	f001 4100 	and.w	r1, r1, #2147483648	; 0x80000000
 8000864:	f041 41fe 	orr.w	r1, r1, #2130706432	; 0x7f000000
 8000868:	f441 0170 	orr.w	r1, r1, #15728640	; 0xf00000
 800086c:	f04f 0000 	mov.w	r0, #0
 8000870:	bd70      	pop	{r4, r5, r6, pc}
 8000872:	f041 41fe 	orr.w	r1, r1, #2130706432	; 0x7f000000
 8000876:	f441 0178 	orr.w	r1, r1, #16252928	; 0xf80000
 800087a:	bd70      	pop	{r4, r5, r6, pc}

0800087c <__aeabi_ddiv>:
 800087c:	b570      	push	{r4, r5, r6, lr}
 800087e:	f04f 0cff 	mov.w	ip, #255	; 0xff
 8000882:	f44c 6ce0 	orr.w	ip, ip, #1792	; 0x700
 8000886:	ea1c 5411 	ands.w	r4, ip, r1, lsr #20
 800088a:	bf1d      	ittte	ne
 800088c:	ea1c 5513 	andsne.w	r5, ip, r3, lsr #20
 8000890:	ea94 0f0c 	teqne	r4, ip
 8000894:	ea95 0f0c 	teqne	r5, ip
 8000898:	f000 f8a7 	bleq	80009ea <__aeabi_ddiv+0x16e>
 800089c:	eba4 0405 	sub.w	r4, r4, r5
 80008a0:	ea81 0e03 	eor.w	lr, r1, r3
 80008a4:	ea52 3503 	orrs.w	r5, r2, r3, lsl #12
 80008a8:	ea4f 3101 	mov.w	r1, r1, lsl #12
 80008ac:	f000 8088 	beq.w	80009c0 <__aeabi_ddiv+0x144>
 80008b0:	ea4f 3303 	mov.w	r3, r3, lsl #12
 80008b4:	f04f 5580 	mov.w	r5, #268435456	; 0x10000000
 80008b8:	ea45 1313 	orr.w	r3, r5, r3, lsr #4
 80008bc:	ea43 6312 	orr.w	r3, r3, r2, lsr #24
 80008c0:	ea4f 2202 	mov.w	r2, r2, lsl #8
 80008c4:	ea45 1511 	orr.w	r5, r5, r1, lsr #4
 80008c8:	ea45 6510 	orr.w	r5, r5, r0, lsr #24
 80008cc:	ea4f 2600 	mov.w	r6, r0, lsl #8
 80008d0:	f00e 4100 	and.w	r1, lr, #2147483648	; 0x80000000
 80008d4:	429d      	cmp	r5, r3
 80008d6:	bf08      	it	eq
 80008d8:	4296      	cmpeq	r6, r2
 80008da:	f144 04fd 	adc.w	r4, r4, #253	; 0xfd
 80008de:	f504 7440 	add.w	r4, r4, #768	; 0x300
 80008e2:	d202      	bcs.n	80008ea <__aeabi_ddiv+0x6e>
 80008e4:	085b      	lsrs	r3, r3, #1
 80008e6:	ea4f 0232 	mov.w	r2, r2, rrx
 80008ea:	1ab6      	subs	r6, r6, r2
 80008ec:	eb65 0503 	sbc.w	r5, r5, r3
 80008f0:	085b      	lsrs	r3, r3, #1
 80008f2:	ea4f 0232 	mov.w	r2, r2, rrx
 80008f6:	f44f 1080 	mov.w	r0, #1048576	; 0x100000
 80008fa:	f44f 2c00 	mov.w	ip, #524288	; 0x80000
 80008fe:	ebb6 0e02 	subs.w	lr, r6, r2
 8000902:	eb75 0e03 	sbcs.w	lr, r5, r3
 8000906:	bf22      	ittt	cs
 8000908:	1ab6      	subcs	r6, r6, r2
 800090a:	4675      	movcs	r5, lr
 800090c:	ea40 000c 	orrcs.w	r0, r0, ip
 8000910:	085b      	lsrs	r3, r3, #1
 8000912:	ea4f 0232 	mov.w	r2, r2, rrx
 8000916:	ebb6 0e02 	subs.w	lr, r6, r2
 800091a:	eb75 0e03 	sbcs.w	lr, r5, r3
 800091e:	bf22      	ittt	cs
 8000920:	1ab6      	subcs	r6, r6, r2
 8000922:	4675      	movcs	r5, lr
 8000924:	ea40 005c 	orrcs.w	r0, r0, ip, lsr #1
 8000928:	085b      	lsrs	r3, r3, #1
 800092a:	ea4f 0232 	mov.w	r2, r2, rrx
 800092e:	ebb6 0e02 	subs.w	lr, r6, r2
 8000932:	eb75 0e03 	sbcs.w	lr, r5, r3
 8000936:	bf22      	ittt	cs
 8000938:	1ab6      	subcs	r6, r6, r2
 800093a:	4675      	movcs	r5, lr
 800093c:	ea40 009c 	orrcs.w	r0, r0, ip, lsr #2
 8000940:	085b      	lsrs	r3, r3, #1
 8000942:	ea4f 0232 	mov.w	r2, r2, rrx
 8000946:	ebb6 0e02 	subs.w	lr, r6, r2
 800094a:	eb75 0e03 	sbcs.w	lr, r5, r3
 800094e:	bf22      	ittt	cs
 8000950:	1ab6      	subcs	r6, r6, r2
 8000952:	4675      	movcs	r5, lr
 8000954:	ea40 00dc 	orrcs.w	r0, r0, ip, lsr #3
 8000958:	ea55 0e06 	orrs.w	lr, r5, r6
 800095c:	d018      	beq.n	8000990 <__aeabi_ddiv+0x114>
 800095e:	ea4f 1505 	mov.w	r5, r5, lsl #4
 8000962:	ea45 7516 	orr.w	r5, r5, r6, lsr #28
 8000966:	ea4f 1606 	mov.w	r6, r6, lsl #4
 800096a:	ea4f 03c3 	mov.w	r3, r3, lsl #3
 800096e:	ea43 7352 	orr.w	r3, r3, r2, lsr #29
 8000972:	ea4f 02c2 	mov.w	r2, r2, lsl #3
 8000976:	ea5f 1c1c 	movs.w	ip, ip, lsr #4
 800097a:	d1c0      	bne.n	80008fe <__aeabi_ddiv+0x82>
 800097c:	f411 1f80 	tst.w	r1, #1048576	; 0x100000
 8000980:	d10b      	bne.n	800099a <__aeabi_ddiv+0x11e>
 8000982:	ea41 0100 	orr.w	r1, r1, r0
 8000986:	f04f 0000 	mov.w	r0, #0
 800098a:	f04f 4c00 	mov.w	ip, #2147483648	; 0x80000000
 800098e:	e7b6      	b.n	80008fe <__aeabi_ddiv+0x82>
 8000990:	f411 1f80 	tst.w	r1, #1048576	; 0x100000
 8000994:	bf04      	itt	eq
 8000996:	4301      	orreq	r1, r0
 8000998:	2000      	moveq	r0, #0
 800099a:	f1b4 0cfd 	subs.w	ip, r4, #253	; 0xfd
 800099e:	bf88      	it	hi
 80009a0:	f5bc 6fe0 	cmphi.w	ip, #1792	; 0x700
 80009a4:	f63f aeaf 	bhi.w	8000706 <__aeabi_dmul+0xde>
 80009a8:	ebb5 0c03 	subs.w	ip, r5, r3
 80009ac:	bf04      	itt	eq
 80009ae:	ebb6 0c02 	subseq.w	ip, r6, r2
 80009b2:	ea5f 0c50 	movseq.w	ip, r0, lsr #1
 80009b6:	f150 0000 	adcs.w	r0, r0, #0
 80009ba:	eb41 5104 	adc.w	r1, r1, r4, lsl #20
 80009be:	bd70      	pop	{r4, r5, r6, pc}
 80009c0:	f00e 4e00 	and.w	lr, lr, #2147483648	; 0x80000000
 80009c4:	ea4e 3111 	orr.w	r1, lr, r1, lsr #12
 80009c8:	eb14 045c 	adds.w	r4, r4, ip, lsr #1
 80009cc:	bfc2      	ittt	gt
 80009ce:	ebd4 050c 	rsbsgt	r5, r4, ip
 80009d2:	ea41 5104 	orrgt.w	r1, r1, r4, lsl #20
 80009d6:	bd70      	popgt	{r4, r5, r6, pc}
 80009d8:	f441 1180 	orr.w	r1, r1, #1048576	; 0x100000
 80009dc:	f04f 0e00 	mov.w	lr, #0
 80009e0:	3c01      	subs	r4, #1
 80009e2:	e690      	b.n	8000706 <__aeabi_dmul+0xde>
 80009e4:	ea45 0e06 	orr.w	lr, r5, r6
 80009e8:	e68d      	b.n	8000706 <__aeabi_dmul+0xde>
 80009ea:	ea0c 5513 	and.w	r5, ip, r3, lsr #20
 80009ee:	ea94 0f0c 	teq	r4, ip
 80009f2:	bf08      	it	eq
 80009f4:	ea95 0f0c 	teqeq	r5, ip
 80009f8:	f43f af3b 	beq.w	8000872 <__aeabi_dmul+0x24a>
 80009fc:	ea94 0f0c 	teq	r4, ip
 8000a00:	d10a      	bne.n	8000a18 <__aeabi_ddiv+0x19c>
 8000a02:	ea50 3401 	orrs.w	r4, r0, r1, lsl #12
 8000a06:	f47f af34 	bne.w	8000872 <__aeabi_dmul+0x24a>
 8000a0a:	ea95 0f0c 	teq	r5, ip
 8000a0e:	f47f af25 	bne.w	800085c <__aeabi_dmul+0x234>
 8000a12:	4610      	mov	r0, r2
 8000a14:	4619      	mov	r1, r3
 8000a16:	e72c      	b.n	8000872 <__aeabi_dmul+0x24a>
 8000a18:	ea95 0f0c 	teq	r5, ip
 8000a1c:	d106      	bne.n	8000a2c <__aeabi_ddiv+0x1b0>
 8000a1e:	ea52 3503 	orrs.w	r5, r2, r3, lsl #12
 8000a22:	f43f aefd 	beq.w	8000820 <__aeabi_dmul+0x1f8>
 8000a26:	4610      	mov	r0, r2
 8000a28:	4619      	mov	r1, r3
 8000a2a:	e722      	b.n	8000872 <__aeabi_dmul+0x24a>
 8000a2c:	ea50 0641 	orrs.w	r6, r0, r1, lsl #1
 8000a30:	bf18      	it	ne
 8000a32:	ea52 0643 	orrsne.w	r6, r2, r3, lsl #1
 8000a36:	f47f aec5 	bne.w	80007c4 <__aeabi_dmul+0x19c>
 8000a3a:	ea50 0441 	orrs.w	r4, r0, r1, lsl #1
 8000a3e:	f47f af0d 	bne.w	800085c <__aeabi_dmul+0x234>
 8000a42:	ea52 0543 	orrs.w	r5, r2, r3, lsl #1
 8000a46:	f47f aeeb 	bne.w	8000820 <__aeabi_dmul+0x1f8>
 8000a4a:	e712      	b.n	8000872 <__aeabi_dmul+0x24a>

08000a4c <__gedf2>:
 8000a4c:	f04f 3cff 	mov.w	ip, #4294967295
 8000a50:	e006      	b.n	8000a60 <__cmpdf2+0x4>
 8000a52:	bf00      	nop

08000a54 <__ledf2>:
 8000a54:	f04f 0c01 	mov.w	ip, #1
 8000a58:	e002      	b.n	8000a60 <__cmpdf2+0x4>
 8000a5a:	bf00      	nop

08000a5c <__cmpdf2>:
 8000a5c:	f04f 0c01 	mov.w	ip, #1
 8000a60:	f84d cd04 	str.w	ip, [sp, #-4]!
 8000a64:	ea4f 0c41 	mov.w	ip, r1, lsl #1
 8000a68:	ea7f 5c6c 	mvns.w	ip, ip, asr #21
 8000a6c:	ea4f 0c43 	mov.w	ip, r3, lsl #1
 8000a70:	bf18      	it	ne
 8000a72:	ea7f 5c6c 	mvnsne.w	ip, ip, asr #21
 8000a76:	d01b      	beq.n	8000ab0 <__cmpdf2+0x54>
 8000a78:	b001      	add	sp, #4
 8000a7a:	ea50 0c41 	orrs.w	ip, r0, r1, lsl #1
 8000a7e:	bf0c      	ite	eq
 8000a80:	ea52 0c43 	orrseq.w	ip, r2, r3, lsl #1
 8000a84:	ea91 0f03 	teqne	r1, r3
 8000a88:	bf02      	ittt	eq
 8000a8a:	ea90 0f02 	teqeq	r0, r2
 8000a8e:	2000      	moveq	r0, #0
 8000a90:	4770      	bxeq	lr
 8000a92:	f110 0f00 	cmn.w	r0, #0
 8000a96:	ea91 0f03 	teq	r1, r3
 8000a9a:	bf58      	it	pl
 8000a9c:	4299      	cmppl	r1, r3
 8000a9e:	bf08      	it	eq
 8000aa0:	4290      	cmpeq	r0, r2
 8000aa2:	bf2c      	ite	cs
 8000aa4:	17d8      	asrcs	r0, r3, #31
 8000aa6:	ea6f 70e3 	mvncc.w	r0, r3, asr #31
 8000aaa:	f040 0001 	orr.w	r0, r0, #1
 8000aae:	4770      	bx	lr
 8000ab0:	ea4f 0c41 	mov.w	ip, r1, lsl #1
 8000ab4:	ea7f 5c6c 	mvns.w	ip, ip, asr #21
 8000ab8:	d102      	bne.n	8000ac0 <__cmpdf2+0x64>
 8000aba:	ea50 3c01 	orrs.w	ip, r0, r1, lsl #12
 8000abe:	d107      	bne.n	8000ad0 <__cmpdf2+0x74>
 8000ac0:	ea4f 0c43 	mov.w	ip, r3, lsl #1
 8000ac4:	ea7f 5c6c 	mvns.w	ip, ip, asr #21
 8000ac8:	d1d6      	bne.n	8000a78 <__cmpdf2+0x1c>
 8000aca:	ea52 3c03 	orrs.w	ip, r2, r3, lsl #12
 8000ace:	d0d3      	beq.n	8000a78 <__cmpdf2+0x1c>
 8000ad0:	f85d 0b04 	ldr.w	r0, [sp], #4
 8000ad4:	4770      	bx	lr
 8000ad6:	bf00      	nop

08000ad8 <__aeabi_cdrcmple>:
 8000ad8:	4684      	mov	ip, r0
 8000ada:	4610      	mov	r0, r2
 8000adc:	4662      	mov	r2, ip
 8000ade:	468c      	mov	ip, r1
 8000ae0:	4619      	mov	r1, r3
 8000ae2:	4663      	mov	r3, ip
 8000ae4:	e000      	b.n	8000ae8 <__aeabi_cdcmpeq>
 8000ae6:	bf00      	nop

08000ae8 <__aeabi_cdcmpeq>:
 8000ae8:	b501      	push	{r0, lr}
 8000aea:	f7ff ffb7 	bl	8000a5c <__cmpdf2>
 8000aee:	2800      	cmp	r0, #0
 8000af0:	bf48      	it	mi
 8000af2:	f110 0f00 	cmnmi.w	r0, #0
 8000af6:	bd01      	pop	{r0, pc}

08000af8 <__aeabi_dcmpeq>:
 8000af8:	f84d ed08 	str.w	lr, [sp, #-8]!
 8000afc:	f7ff fff4 	bl	8000ae8 <__aeabi_cdcmpeq>
 8000b00:	bf0c      	ite	eq
 8000b02:	2001      	moveq	r0, #1
 8000b04:	2000      	movne	r0, #0
 8000b06:	f85d fb08 	ldr.w	pc, [sp], #8
 8000b0a:	bf00      	nop

08000b0c <__aeabi_dcmplt>:
 8000b0c:	f84d ed08 	str.w	lr, [sp, #-8]!
 8000b10:	f7ff ffea 	bl	8000ae8 <__aeabi_cdcmpeq>
 8000b14:	bf34      	ite	cc
 8000b16:	2001      	movcc	r0, #1
 8000b18:	2000      	movcs	r0, #0
 8000b1a:	f85d fb08 	ldr.w	pc, [sp], #8
 8000b1e:	bf00      	nop

08000b20 <__aeabi_dcmple>:
 8000b20:	f84d ed08 	str.w	lr, [sp, #-8]!
 8000b24:	f7ff ffe0 	bl	8000ae8 <__aeabi_cdcmpeq>
 8000b28:	bf94      	ite	ls
 8000b2a:	2001      	movls	r0, #1
 8000b2c:	2000      	movhi	r0, #0
 8000b2e:	f85d fb08 	ldr.w	pc, [sp], #8
 8000b32:	bf00      	nop

08000b34 <__aeabi_dcmpge>:
 8000b34:	f84d ed08 	str.w	lr, [sp, #-8]!
 8000b38:	f7ff ffce 	bl	8000ad8 <__aeabi_cdrcmple>
 8000b3c:	bf94      	ite	ls
 8000b3e:	2001      	movls	r0, #1
 8000b40:	2000      	movhi	r0, #0
 8000b42:	f85d fb08 	ldr.w	pc, [sp], #8
 8000b46:	bf00      	nop

08000b48 <__aeabi_dcmpgt>:
 8000b48:	f84d ed08 	str.w	lr, [sp, #-8]!
 8000b4c:	f7ff ffc4 	bl	8000ad8 <__aeabi_cdrcmple>
 8000b50:	bf34      	ite	cc
 8000b52:	2001      	movcc	r0, #1
 8000b54:	2000      	movcs	r0, #0
 8000b56:	f85d fb08 	ldr.w	pc, [sp], #8
 8000b5a:	bf00      	nop

08000b5c <__aeabi_dcmpun>:
 8000b5c:	ea4f 0c41 	mov.w	ip, r1, lsl #1
 8000b60:	ea7f 5c6c 	mvns.w	ip, ip, asr #21
 8000b64:	d102      	bne.n	8000b6c <__aeabi_dcmpun+0x10>
 8000b66:	ea50 3c01 	orrs.w	ip, r0, r1, lsl #12
 8000b6a:	d10a      	bne.n	8000b82 <__aeabi_dcmpun+0x26>
 8000b6c:	ea4f 0c43 	mov.w	ip, r3, lsl #1
 8000b70:	ea7f 5c6c 	mvns.w	ip, ip, asr #21
 8000b74:	d102      	bne.n	8000b7c <__aeabi_dcmpun+0x20>
 8000b76:	ea52 3c03 	orrs.w	ip, r2, r3, lsl #12
 8000b7a:	d102      	bne.n	8000b82 <__aeabi_dcmpun+0x26>
 8000b7c:	f04f 0000 	mov.w	r0, #0
 8000b80:	4770      	bx	lr
 8000b82:	f04f 0001 	mov.w	r0, #1
 8000b86:	4770      	bx	lr

08000b88 <__aeabi_d2iz>:
 8000b88:	ea4f 0241 	mov.w	r2, r1, lsl #1
 8000b8c:	f512 1200 	adds.w	r2, r2, #2097152	; 0x200000
 8000b90:	d215      	bcs.n	8000bbe <__aeabi_d2iz+0x36>
 8000b92:	d511      	bpl.n	8000bb8 <__aeabi_d2iz+0x30>
 8000b94:	f46f 7378 	mvn.w	r3, #992	; 0x3e0
 8000b98:	ebb3 5262 	subs.w	r2, r3, r2, asr #21
 8000b9c:	d912      	bls.n	8000bc4 <__aeabi_d2iz+0x3c>
 8000b9e:	ea4f 23c1 	mov.w	r3, r1, lsl #11
 8000ba2:	f043 4300 	orr.w	r3, r3, #2147483648	; 0x80000000
 8000ba6:	ea43 5350 	orr.w	r3, r3, r0, lsr #21
 8000baa:	f011 4f00 	tst.w	r1, #2147483648	; 0x80000000
 8000bae:	fa23 f002 	lsr.w	r0, r3, r2
 8000bb2:	bf18      	it	ne
 8000bb4:	4240      	negne	r0, r0
 8000bb6:	4770      	bx	lr
 8000bb8:	f04f 0000 	mov.w	r0, #0
 8000bbc:	4770      	bx	lr
 8000bbe:	ea50 3001 	orrs.w	r0, r0, r1, lsl #12
 8000bc2:	d105      	bne.n	8000bd0 <__aeabi_d2iz+0x48>
 8000bc4:	f011 4000 	ands.w	r0, r1, #2147483648	; 0x80000000
 8000bc8:	bf08      	it	eq
 8000bca:	f06f 4000 	mvneq.w	r0, #2147483648	; 0x80000000
 8000bce:	4770      	bx	lr
 8000bd0:	f04f 0000 	mov.w	r0, #0
 8000bd4:	4770      	bx	lr
 8000bd6:	bf00      	nop

08000bd8 <__aeabi_d2uiz>:
 8000bd8:	004a      	lsls	r2, r1, #1
 8000bda:	d211      	bcs.n	8000c00 <__aeabi_d2uiz+0x28>
 8000bdc:	f512 1200 	adds.w	r2, r2, #2097152	; 0x200000
 8000be0:	d211      	bcs.n	8000c06 <__aeabi_d2uiz+0x2e>
 8000be2:	d50d      	bpl.n	8000c00 <__aeabi_d2uiz+0x28>
 8000be4:	f46f 7378 	mvn.w	r3, #992	; 0x3e0
 8000be8:	ebb3 5262 	subs.w	r2, r3, r2, asr #21
 8000bec:	d40e      	bmi.n	8000c0c <__aeabi_d2uiz+0x34>
 8000bee:	ea4f 23c1 	mov.w	r3, r1, lsl #11
 8000bf2:	f043 4300 	orr.w	r3, r3, #2147483648	; 0x80000000
 8000bf6:	ea43 5350 	orr.w	r3, r3, r0, lsr #21
 8000bfa:	fa23 f002 	lsr.w	r0, r3, r2
 8000bfe:	4770      	bx	lr
 8000c00:	f04f 0000 	mov.w	r0, #0
 8000c04:	4770      	bx	lr
 8000c06:	ea50 3001 	orrs.w	r0, r0, r1, lsl #12
 8000c0a:	d102      	bne.n	8000c12 <__aeabi_d2uiz+0x3a>
 8000c0c:	f04f 30ff 	mov.w	r0, #4294967295
 8000c10:	4770      	bx	lr
 8000c12:	f04f 0000 	mov.w	r0, #0
 8000c16:	4770      	bx	lr

08000c18 <HAL_Init>:
 8000c18:	b580      	push	{r7, lr}
 8000c1a:	b082      	sub	sp, #8
 8000c1c:	af00      	add	r7, sp, #0
 8000c1e:	2300      	movs	r3, #0
 8000c20:	71fb      	strb	r3, [r7, #7]
 8000c22:	2003      	movs	r0, #3
 8000c24:	f001 fb86 	bl	8002334 <HAL_NVIC_SetPriorityGrouping>
 8000c28:	2000      	movs	r0, #0
 8000c2a:	f000 f80d 	bl	8000c48 <HAL_InitTick>
 8000c2e:	4603      	mov	r3, r0
 8000c30:	2b00      	cmp	r3, #0
 8000c32:	d002      	beq.n	8000c3a <HAL_Init+0x22>
 8000c34:	2301      	movs	r3, #1
 8000c36:	71fb      	strb	r3, [r7, #7]
 8000c38:	e001      	b.n	8000c3e <HAL_Init+0x26>
 8000c3a:	f003 feb3 	bl	80049a4 <HAL_MspInit>
 8000c3e:	79fb      	ldrb	r3, [r7, #7]
 8000c40:	4618      	mov	r0, r3
 8000c42:	3708      	adds	r7, #8
 8000c44:	46bd      	mov	sp, r7
 8000c46:	bd80      	pop	{r7, pc}

08000c48 <HAL_InitTick>:
 8000c48:	b580      	push	{r7, lr}
 8000c4a:	b084      	sub	sp, #16
 8000c4c:	af00      	add	r7, sp, #0
 8000c4e:	6078      	str	r0, [r7, #4]
 8000c50:	2300      	movs	r3, #0
 8000c52:	73fb      	strb	r3, [r7, #15]
 8000c54:	4b17      	ldr	r3, [pc, #92]	; (8000cb4 <HAL_InitTick+0x6c>)
 8000c56:	781b      	ldrb	r3, [r3, #0]
 8000c58:	2b00      	cmp	r3, #0
 8000c5a:	d023      	beq.n	8000ca4 <HAL_InitTick+0x5c>
 8000c5c:	4b16      	ldr	r3, [pc, #88]	; (8000cb8 <HAL_InitTick+0x70>)
 8000c5e:	681a      	ldr	r2, [r3, #0]
 8000c60:	4b14      	ldr	r3, [pc, #80]	; (8000cb4 <HAL_InitTick+0x6c>)
 8000c62:	781b      	ldrb	r3, [r3, #0]
 8000c64:	4619      	mov	r1, r3
 8000c66:	f44f 737a 	mov.w	r3, #1000	; 0x3e8
 8000c6a:	fbb3 f3f1 	udiv	r3, r3, r1
 8000c6e:	fbb2 f3f3 	udiv	r3, r2, r3
 8000c72:	4618      	mov	r0, r3
 8000c74:	f001 fb85 	bl	8002382 <HAL_SYSTICK_Config>
 8000c78:	4603      	mov	r3, r0
 8000c7a:	2b00      	cmp	r3, #0
 8000c7c:	d10f      	bne.n	8000c9e <HAL_InitTick+0x56>
 8000c7e:	687b      	ldr	r3, [r7, #4]
 8000c80:	2b0f      	cmp	r3, #15
 8000c82:	d809      	bhi.n	8000c98 <HAL_InitTick+0x50>
 8000c84:	2200      	movs	r2, #0
 8000c86:	6879      	ldr	r1, [r7, #4]
 8000c88:	f04f 30ff 	mov.w	r0, #4294967295
 8000c8c:	f001 fb5d 	bl	800234a <HAL_NVIC_SetPriority>
 8000c90:	4a0a      	ldr	r2, [pc, #40]	; (8000cbc <HAL_InitTick+0x74>)
 8000c92:	687b      	ldr	r3, [r7, #4]
 8000c94:	6013      	str	r3, [r2, #0]
 8000c96:	e007      	b.n	8000ca8 <HAL_InitTick+0x60>
 8000c98:	2301      	movs	r3, #1
 8000c9a:	73fb      	strb	r3, [r7, #15]
 8000c9c:	e004      	b.n	8000ca8 <HAL_InitTick+0x60>
 8000c9e:	2301      	movs	r3, #1
 8000ca0:	73fb      	strb	r3, [r7, #15]
 8000ca2:	e001      	b.n	8000ca8 <HAL_InitTick+0x60>
 8000ca4:	2301      	movs	r3, #1
 8000ca6:	73fb      	strb	r3, [r7, #15]
 8000ca8:	7bfb      	ldrb	r3, [r7, #15]
 8000caa:	4618      	mov	r0, r3
 8000cac:	3710      	adds	r7, #16
 8000cae:	46bd      	mov	sp, r7
 8000cb0:	bd80      	pop	{r7, pc}
 8000cb2:	bf00      	nop
 8000cb4:	20000004 	.word	0x20000004
 8000cb8:	20001048 	.word	0x20001048
 8000cbc:	20000000 	.word	0x20000000

08000cc0 <HAL_IncTick>:
 8000cc0:	b480      	push	{r7}
 8000cc2:	af00      	add	r7, sp, #0
 8000cc4:	4b06      	ldr	r3, [pc, #24]	; (8000ce0 <HAL_IncTick+0x20>)
 8000cc6:	781b      	ldrb	r3, [r3, #0]
 8000cc8:	461a      	mov	r2, r3
 8000cca:	4b06      	ldr	r3, [pc, #24]	; (8000ce4 <HAL_IncTick+0x24>)
 8000ccc:	681b      	ldr	r3, [r3, #0]
 8000cce:	4413      	add	r3, r2
 8000cd0:	4a04      	ldr	r2, [pc, #16]	; (8000ce4 <HAL_IncTick+0x24>)
 8000cd2:	6013      	str	r3, [r2, #0]
 8000cd4:	bf00      	nop
 8000cd6:	46bd      	mov	sp, r7
 8000cd8:	f85d 7b04 	ldr.w	r7, [sp], #4
 8000cdc:	4770      	bx	lr
 8000cde:	bf00      	nop
 8000ce0:	20000004 	.word	0x20000004
 8000ce4:	20001238 	.word	0x20001238

08000ce8 <HAL_GetTick>:
 8000ce8:	b480      	push	{r7}
 8000cea:	af00      	add	r7, sp, #0
 8000cec:	4b03      	ldr	r3, [pc, #12]	; (8000cfc <HAL_GetTick+0x14>)
 8000cee:	681b      	ldr	r3, [r3, #0]
 8000cf0:	4618      	mov	r0, r3
 8000cf2:	46bd      	mov	sp, r7
 8000cf4:	f85d 7b04 	ldr.w	r7, [sp], #4
 8000cf8:	4770      	bx	lr
 8000cfa:	bf00      	nop
 8000cfc:	20001238 	.word	0x20001238

08000d00 <HAL_Delay>:
 8000d00:	b580      	push	{r7, lr}
 8000d02:	b084      	sub	sp, #16
 8000d04:	af00      	add	r7, sp, #0
 8000d06:	6078      	str	r0, [r7, #4]
 8000d08:	f7ff ffee 	bl	8000ce8 <HAL_GetTick>
 8000d0c:	60b8      	str	r0, [r7, #8]
 8000d0e:	687b      	ldr	r3, [r7, #4]
 8000d10:	60fb      	str	r3, [r7, #12]
 8000d12:	68fb      	ldr	r3, [r7, #12]
 8000d14:	f1b3 3fff 	cmp.w	r3, #4294967295
 8000d18:	d005      	beq.n	8000d26 <HAL_Delay+0x26>
 8000d1a:	4b0a      	ldr	r3, [pc, #40]	; (8000d44 <HAL_Delay+0x44>)
 8000d1c:	781b      	ldrb	r3, [r3, #0]
 8000d1e:	461a      	mov	r2, r3
 8000d20:	68fb      	ldr	r3, [r7, #12]
 8000d22:	4413      	add	r3, r2
 8000d24:	60fb      	str	r3, [r7, #12]
 8000d26:	bf00      	nop
 8000d28:	f7ff ffde 	bl	8000ce8 <HAL_GetTick>
 8000d2c:	4602      	mov	r2, r0
 8000d2e:	68bb      	ldr	r3, [r7, #8]
 8000d30:	1ad3      	subs	r3, r2, r3
 8000d32:	68fa      	ldr	r2, [r7, #12]
 8000d34:	429a      	cmp	r2, r3
 8000d36:	d8f7      	bhi.n	8000d28 <HAL_Delay+0x28>
 8000d38:	bf00      	nop
 8000d3a:	bf00      	nop
 8000d3c:	3710      	adds	r7, #16
 8000d3e:	46bd      	mov	sp, r7
 8000d40:	bd80      	pop	{r7, pc}
 8000d42:	bf00      	nop
 8000d44:	20000004 	.word	0x20000004

08000d48 <LL_ADC_SetCommonClock>:
 8000d48:	b480      	push	{r7}
 8000d4a:	b083      	sub	sp, #12
 8000d4c:	af00      	add	r7, sp, #0
 8000d4e:	6078      	str	r0, [r7, #4]
 8000d50:	6039      	str	r1, [r7, #0]
 8000d52:	687b      	ldr	r3, [r7, #4]
 8000d54:	689b      	ldr	r3, [r3, #8]
 8000d56:	f423 127c 	bic.w	r2, r3, #4128768	; 0x3f0000
 8000d5a:	683b      	ldr	r3, [r7, #0]
 8000d5c:	431a      	orrs	r2, r3
 8000d5e:	687b      	ldr	r3, [r7, #4]
 8000d60:	609a      	str	r2, [r3, #8]
 8000d62:	bf00      	nop
 8000d64:	370c      	adds	r7, #12
 8000d66:	46bd      	mov	sp, r7
 8000d68:	f85d 7b04 	ldr.w	r7, [sp], #4
 8000d6c:	4770      	bx	lr

08000d6e <LL_ADC_SetCommonPathInternalCh>:
 8000d6e:	b480      	push	{r7}
 8000d70:	b083      	sub	sp, #12
 8000d72:	af00      	add	r7, sp, #0
 8000d74:	6078      	str	r0, [r7, #4]
 8000d76:	6039      	str	r1, [r7, #0]
 8000d78:	687b      	ldr	r3, [r7, #4]
 8000d7a:	689b      	ldr	r3, [r3, #8]
 8000d7c:	f023 72e0 	bic.w	r2, r3, #29360128	; 0x1c00000
 8000d80:	683b      	ldr	r3, [r7, #0]
 8000d82:	431a      	orrs	r2, r3
 8000d84:	687b      	ldr	r3, [r7, #4]
 8000d86:	609a      	str	r2, [r3, #8]
 8000d88:	bf00      	nop
 8000d8a:	370c      	adds	r7, #12
 8000d8c:	46bd      	mov	sp, r7
 8000d8e:	f85d 7b04 	ldr.w	r7, [sp], #4
 8000d92:	4770      	bx	lr

08000d94 <LL_ADC_GetCommonPathInternalCh>:
 8000d94:	b480      	push	{r7}
 8000d96:	b083      	sub	sp, #12
 8000d98:	af00      	add	r7, sp, #0
 8000d9a:	6078      	str	r0, [r7, #4]
 8000d9c:	687b      	ldr	r3, [r7, #4]
 8000d9e:	689b      	ldr	r3, [r3, #8]
 8000da0:	f003 73e0 	and.w	r3, r3, #29360128	; 0x1c00000
 8000da4:	4618      	mov	r0, r3
 8000da6:	370c      	adds	r7, #12
 8000da8:	46bd      	mov	sp, r7
 8000daa:	f85d 7b04 	ldr.w	r7, [sp], #4
 8000dae:	4770      	bx	lr

08000db0 <LL_ADC_SetOffset>:
 8000db0:	b480      	push	{r7}
 8000db2:	b087      	sub	sp, #28
 8000db4:	af00      	add	r7, sp, #0
 8000db6:	60f8      	str	r0, [r7, #12]
 8000db8:	60b9      	str	r1, [r7, #8]
 8000dba:	607a      	str	r2, [r7, #4]
 8000dbc:	603b      	str	r3, [r7, #0]
 8000dbe:	68fb      	ldr	r3, [r7, #12]
 8000dc0:	3360      	adds	r3, #96	; 0x60
 8000dc2:	461a      	mov	r2, r3
 8000dc4:	68bb      	ldr	r3, [r7, #8]
 8000dc6:	009b      	lsls	r3, r3, #2
 8000dc8:	4413      	add	r3, r2
 8000dca:	617b      	str	r3, [r7, #20]
 8000dcc:	697b      	ldr	r3, [r7, #20]
 8000dce:	681a      	ldr	r2, [r3, #0]
 8000dd0:	4b08      	ldr	r3, [pc, #32]	; (8000df4 <LL_ADC_SetOffset+0x44>)
 8000dd2:	4013      	ands	r3, r2
 8000dd4:	687a      	ldr	r2, [r7, #4]
 8000dd6:	f002 41f8 	and.w	r1, r2, #2080374784	; 0x7c000000
 8000dda:	683a      	ldr	r2, [r7, #0]
 8000ddc:	430a      	orrs	r2, r1
 8000dde:	4313      	orrs	r3, r2
 8000de0:	f043 4200 	orr.w	r2, r3, #2147483648	; 0x80000000
 8000de4:	697b      	ldr	r3, [r7, #20]
 8000de6:	601a      	str	r2, [r3, #0]
 8000de8:	bf00      	nop
 8000dea:	371c      	adds	r7, #28
 8000dec:	46bd      	mov	sp, r7
 8000dee:	f85d 7b04 	ldr.w	r7, [sp], #4
 8000df2:	4770      	bx	lr
 8000df4:	03fff000 	.word	0x03fff000

08000df8 <LL_ADC_GetOffsetChannel>:
 8000df8:	b480      	push	{r7}
 8000dfa:	b085      	sub	sp, #20
 8000dfc:	af00      	add	r7, sp, #0
 8000dfe:	6078      	str	r0, [r7, #4]
 8000e00:	6039      	str	r1, [r7, #0]
 8000e02:	687b      	ldr	r3, [r7, #4]
 8000e04:	3360      	adds	r3, #96	; 0x60
 8000e06:	461a      	mov	r2, r3
 8000e08:	683b      	ldr	r3, [r7, #0]
 8000e0a:	009b      	lsls	r3, r3, #2
 8000e0c:	4413      	add	r3, r2
 8000e0e:	60fb      	str	r3, [r7, #12]
 8000e10:	68fb      	ldr	r3, [r7, #12]
 8000e12:	681b      	ldr	r3, [r3, #0]
 8000e14:	f003 43f8 	and.w	r3, r3, #2080374784	; 0x7c000000
 8000e18:	4618      	mov	r0, r3
 8000e1a:	3714      	adds	r7, #20
 8000e1c:	46bd      	mov	sp, r7
 8000e1e:	f85d 7b04 	ldr.w	r7, [sp], #4
 8000e22:	4770      	bx	lr

08000e24 <LL_ADC_SetOffsetState>:
 8000e24:	b480      	push	{r7}
 8000e26:	b087      	sub	sp, #28
 8000e28:	af00      	add	r7, sp, #0
 8000e2a:	60f8      	str	r0, [r7, #12]
 8000e2c:	60b9      	str	r1, [r7, #8]
 8000e2e:	607a      	str	r2, [r7, #4]
 8000e30:	68fb      	ldr	r3, [r7, #12]
 8000e32:	3360      	adds	r3, #96	; 0x60
 8000e34:	461a      	mov	r2, r3
 8000e36:	68bb      	ldr	r3, [r7, #8]
 8000e38:	009b      	lsls	r3, r3, #2
 8000e3a:	4413      	add	r3, r2
 8000e3c:	617b      	str	r3, [r7, #20]
 8000e3e:	697b      	ldr	r3, [r7, #20]
 8000e40:	681b      	ldr	r3, [r3, #0]
 8000e42:	f023 4200 	bic.w	r2, r3, #2147483648	; 0x80000000
 8000e46:	687b      	ldr	r3, [r7, #4]
 8000e48:	431a      	orrs	r2, r3
 8000e4a:	697b      	ldr	r3, [r7, #20]
 8000e4c:	601a      	str	r2, [r3, #0]
 8000e4e:	bf00      	nop
 8000e50:	371c      	adds	r7, #28
 8000e52:	46bd      	mov	sp, r7
 8000e54:	f85d 7b04 	ldr.w	r7, [sp], #4
 8000e58:	4770      	bx	lr

08000e5a <LL_ADC_SetSamplingTimeCommonConfig>:
 8000e5a:	b480      	push	{r7}
 8000e5c:	b083      	sub	sp, #12
 8000e5e:	af00      	add	r7, sp, #0
 8000e60:	6078      	str	r0, [r7, #4]
 8000e62:	6039      	str	r1, [r7, #0]
 8000e64:	687b      	ldr	r3, [r7, #4]
 8000e66:	695b      	ldr	r3, [r3, #20]
 8000e68:	f023 4200 	bic.w	r2, r3, #2147483648	; 0x80000000
 8000e6c:	683b      	ldr	r3, [r7, #0]
 8000e6e:	431a      	orrs	r2, r3
 8000e70:	687b      	ldr	r3, [r7, #4]
 8000e72:	615a      	str	r2, [r3, #20]
 8000e74:	bf00      	nop
 8000e76:	370c      	adds	r7, #12
 8000e78:	46bd      	mov	sp, r7
 8000e7a:	f85d 7b04 	ldr.w	r7, [sp], #4
 8000e7e:	4770      	bx	lr

08000e80 <LL_ADC_REG_IsTriggerSourceSWStart>:
 8000e80:	b480      	push	{r7}
 8000e82:	b083      	sub	sp, #12
 8000e84:	af00      	add	r7, sp, #0
 8000e86:	6078      	str	r0, [r7, #4]
 8000e88:	687b      	ldr	r3, [r7, #4]
 8000e8a:	68db      	ldr	r3, [r3, #12]
 8000e8c:	f403 6340 	and.w	r3, r3, #3072	; 0xc00
 8000e90:	2b00      	cmp	r3, #0
 8000e92:	d101      	bne.n	8000e98 <LL_ADC_REG_IsTriggerSourceSWStart+0x18>
 8000e94:	2301      	movs	r3, #1
 8000e96:	e000      	b.n	8000e9a <LL_ADC_REG_IsTriggerSourceSWStart+0x1a>
 8000e98:	2300      	movs	r3, #0
 8000e9a:	4618      	mov	r0, r3
 8000e9c:	370c      	adds	r7, #12
 8000e9e:	46bd      	mov	sp, r7
 8000ea0:	f85d 7b04 	ldr.w	r7, [sp], #4
 8000ea4:	4770      	bx	lr

08000ea6 <LL_ADC_REG_SetSequencerRanks>:
 8000ea6:	b480      	push	{r7}
 8000ea8:	b087      	sub	sp, #28
 8000eaa:	af00      	add	r7, sp, #0
 8000eac:	60f8      	str	r0, [r7, #12]
 8000eae:	60b9      	str	r1, [r7, #8]
 8000eb0:	607a      	str	r2, [r7, #4]
 8000eb2:	68fb      	ldr	r3, [r7, #12]
 8000eb4:	3330      	adds	r3, #48	; 0x30
 8000eb6:	461a      	mov	r2, r3
 8000eb8:	68bb      	ldr	r3, [r7, #8]
 8000eba:	0a1b      	lsrs	r3, r3, #8
 8000ebc:	009b      	lsls	r3, r3, #2
 8000ebe:	f003 030c 	and.w	r3, r3, #12
 8000ec2:	4413      	add	r3, r2
 8000ec4:	617b      	str	r3, [r7, #20]
 8000ec6:	697b      	ldr	r3, [r7, #20]
 8000ec8:	681a      	ldr	r2, [r3, #0]
 8000eca:	68bb      	ldr	r3, [r7, #8]
 8000ecc:	f003 031f 	and.w	r3, r3, #31
 8000ed0:	211f      	movs	r1, #31
 8000ed2:	fa01 f303 	lsl.w	r3, r1, r3
 8000ed6:	43db      	mvns	r3, r3
 8000ed8:	401a      	ands	r2, r3
 8000eda:	687b      	ldr	r3, [r7, #4]
 8000edc:	0e9b      	lsrs	r3, r3, #26
 8000ede:	f003 011f 	and.w	r1, r3, #31
 8000ee2:	68bb      	ldr	r3, [r7, #8]
 8000ee4:	f003 031f 	and.w	r3, r3, #31
 8000ee8:	fa01 f303 	lsl.w	r3, r1, r3
 8000eec:	431a      	orrs	r2, r3
 8000eee:	697b      	ldr	r3, [r7, #20]
 8000ef0:	601a      	str	r2, [r3, #0]
 8000ef2:	bf00      	nop
 8000ef4:	371c      	adds	r7, #28
 8000ef6:	46bd      	mov	sp, r7
 8000ef8:	f85d 7b04 	ldr.w	r7, [sp], #4
 8000efc:	4770      	bx	lr

08000efe <LL_ADC_SetChannelSamplingTime>:
 8000efe:	b480      	push	{r7}
 8000f00:	b087      	sub	sp, #28
 8000f02:	af00      	add	r7, sp, #0
 8000f04:	60f8      	str	r0, [r7, #12]
 8000f06:	60b9      	str	r1, [r7, #8]
 8000f08:	607a      	str	r2, [r7, #4]
 8000f0a:	68fb      	ldr	r3, [r7, #12]
 8000f0c:	3314      	adds	r3, #20
 8000f0e:	461a      	mov	r2, r3
 8000f10:	68bb      	ldr	r3, [r7, #8]
 8000f12:	0e5b      	lsrs	r3, r3, #25
 8000f14:	009b      	lsls	r3, r3, #2
 8000f16:	f003 0304 	and.w	r3, r3, #4
 8000f1a:	4413      	add	r3, r2
 8000f1c:	617b      	str	r3, [r7, #20]
 8000f1e:	697b      	ldr	r3, [r7, #20]
 8000f20:	681a      	ldr	r2, [r3, #0]
 8000f22:	68bb      	ldr	r3, [r7, #8]
 8000f24:	0d1b      	lsrs	r3, r3, #20
 8000f26:	f003 031f 	and.w	r3, r3, #31
 8000f2a:	2107      	movs	r1, #7
 8000f2c:	fa01 f303 	lsl.w	r3, r1, r3
 8000f30:	43db      	mvns	r3, r3
 8000f32:	401a      	ands	r2, r3
 8000f34:	68bb      	ldr	r3, [r7, #8]
 8000f36:	0d1b      	lsrs	r3, r3, #20
 8000f38:	f003 031f 	and.w	r3, r3, #31
 8000f3c:	6879      	ldr	r1, [r7, #4]
 8000f3e:	fa01 f303 	lsl.w	r3, r1, r3
 8000f42:	431a      	orrs	r2, r3
 8000f44:	697b      	ldr	r3, [r7, #20]
 8000f46:	601a      	str	r2, [r3, #0]
 8000f48:	bf00      	nop
 8000f4a:	371c      	adds	r7, #28
 8000f4c:	46bd      	mov	sp, r7
 8000f4e:	f85d 7b04 	ldr.w	r7, [sp], #4
 8000f52:	4770      	bx	lr

08000f54 <LL_ADC_SetChannelSingleDiff>:
 8000f54:	b480      	push	{r7}
 8000f56:	b085      	sub	sp, #20
 8000f58:	af00      	add	r7, sp, #0
 8000f5a:	60f8      	str	r0, [r7, #12]
 8000f5c:	60b9      	str	r1, [r7, #8]
 8000f5e:	607a      	str	r2, [r7, #4]
 8000f60:	68fb      	ldr	r3, [r7, #12]
 8000f62:	f8d3 20b0 	ldr.w	r2, [r3, #176]	; 0xb0
 8000f66:	68bb      	ldr	r3, [r7, #8]
 8000f68:	f3c3 0312 	ubfx	r3, r3, #0, #19
 8000f6c:	43db      	mvns	r3, r3
 8000f6e:	401a      	ands	r2, r3
 8000f70:	687b      	ldr	r3, [r7, #4]
 8000f72:	f003 0318 	and.w	r3, r3, #24
 8000f76:	4908      	ldr	r1, [pc, #32]	; (8000f98 <LL_ADC_SetChannelSingleDiff+0x44>)
 8000f78:	40d9      	lsrs	r1, r3
 8000f7a:	68bb      	ldr	r3, [r7, #8]
 8000f7c:	400b      	ands	r3, r1
 8000f7e:	f3c3 0312 	ubfx	r3, r3, #0, #19
 8000f82:	431a      	orrs	r2, r3
 8000f84:	68fb      	ldr	r3, [r7, #12]
 8000f86:	f8c3 20b0 	str.w	r2, [r3, #176]	; 0xb0
 8000f8a:	bf00      	nop
 8000f8c:	3714      	adds	r7, #20
 8000f8e:	46bd      	mov	sp, r7
 8000f90:	f85d 7b04 	ldr.w	r7, [sp], #4
 8000f94:	4770      	bx	lr
 8000f96:	bf00      	nop
 8000f98:	0007ffff 	.word	0x0007ffff

08000f9c <LL_ADC_DisableDeepPowerDown>:
 8000f9c:	b480      	push	{r7}
 8000f9e:	b083      	sub	sp, #12
 8000fa0:	af00      	add	r7, sp, #0
 8000fa2:	6078      	str	r0, [r7, #4]
 8000fa4:	687b      	ldr	r3, [r7, #4]
 8000fa6:	689b      	ldr	r3, [r3, #8]
 8000fa8:	f023 4320 	bic.w	r3, r3, #2684354560	; 0xa0000000
 8000fac:	f023 033f 	bic.w	r3, r3, #63	; 0x3f
 8000fb0:	687a      	ldr	r2, [r7, #4]
 8000fb2:	6093      	str	r3, [r2, #8]
 8000fb4:	bf00      	nop
 8000fb6:	370c      	adds	r7, #12
 8000fb8:	46bd      	mov	sp, r7
 8000fba:	f85d 7b04 	ldr.w	r7, [sp], #4
 8000fbe:	4770      	bx	lr

08000fc0 <LL_ADC_IsDeepPowerDownEnabled>:
 8000fc0:	b480      	push	{r7}
 8000fc2:	b083      	sub	sp, #12
 8000fc4:	af00      	add	r7, sp, #0
 8000fc6:	6078      	str	r0, [r7, #4]
 8000fc8:	687b      	ldr	r3, [r7, #4]
 8000fca:	689b      	ldr	r3, [r3, #8]
 8000fcc:	f003 5300 	and.w	r3, r3, #536870912	; 0x20000000
 8000fd0:	f1b3 5f00 	cmp.w	r3, #536870912	; 0x20000000
 8000fd4:	d101      	bne.n	8000fda <LL_ADC_IsDeepPowerDownEnabled+0x1a>
 8000fd6:	2301      	movs	r3, #1
 8000fd8:	e000      	b.n	8000fdc <LL_ADC_IsDeepPowerDownEnabled+0x1c>
 8000fda:	2300      	movs	r3, #0
 8000fdc:	4618      	mov	r0, r3
 8000fde:	370c      	adds	r7, #12
 8000fe0:	46bd      	mov	sp, r7
 8000fe2:	f85d 7b04 	ldr.w	r7, [sp], #4
 8000fe6:	4770      	bx	lr

08000fe8 <LL_ADC_EnableInternalRegulator>:
 8000fe8:	b480      	push	{r7}
 8000fea:	b083      	sub	sp, #12
 8000fec:	af00      	add	r7, sp, #0
 8000fee:	6078      	str	r0, [r7, #4]
 8000ff0:	687b      	ldr	r3, [r7, #4]
 8000ff2:	689b      	ldr	r3, [r3, #8]
 8000ff4:	f023 4310 	bic.w	r3, r3, #2415919104	; 0x90000000
 8000ff8:	f023 033f 	bic.w	r3, r3, #63	; 0x3f
 8000ffc:	f043 5280 	orr.w	r2, r3, #268435456	; 0x10000000
 8001000:	687b      	ldr	r3, [r7, #4]
 8001002:	609a      	str	r2, [r3, #8]
 8001004:	bf00      	nop
 8001006:	370c      	adds	r7, #12
 8001008:	46bd      	mov	sp, r7
 800100a:	f85d 7b04 	ldr.w	r7, [sp], #4
 800100e:	4770      	bx	lr

08001010 <LL_ADC_IsInternalRegulatorEnabled>:
 8001010:	b480      	push	{r7}
 8001012:	b083      	sub	sp, #12
 8001014:	af00      	add	r7, sp, #0
 8001016:	6078      	str	r0, [r7, #4]
 8001018:	687b      	ldr	r3, [r7, #4]
 800101a:	689b      	ldr	r3, [r3, #8]
 800101c:	f003 5380 	and.w	r3, r3, #268435456	; 0x10000000
 8001020:	f1b3 5f80 	cmp.w	r3, #268435456	; 0x10000000
 8001024:	d101      	bne.n	800102a <LL_ADC_IsInternalRegulatorEnabled+0x1a>
 8001026:	2301      	movs	r3, #1
 8001028:	e000      	b.n	800102c <LL_ADC_IsInternalRegulatorEnabled+0x1c>
 800102a:	2300      	movs	r3, #0
 800102c:	4618      	mov	r0, r3
 800102e:	370c      	adds	r7, #12
 8001030:	46bd      	mov	sp, r7
 8001032:	f85d 7b04 	ldr.w	r7, [sp], #4
 8001036:	4770      	bx	lr

08001038 <LL_ADC_Enable>:
 8001038:	b480      	push	{r7}
 800103a:	b083      	sub	sp, #12
 800103c:	af00      	add	r7, sp, #0
 800103e:	6078      	str	r0, [r7, #4]
 8001040:	687b      	ldr	r3, [r7, #4]
 8001042:	689b      	ldr	r3, [r3, #8]
 8001044:	f023 4300 	bic.w	r3, r3, #2147483648	; 0x80000000
 8001048:	f023 033f 	bic.w	r3, r3, #63	; 0x3f
 800104c:	f043 0201 	orr.w	r2, r3, #1
 8001050:	687b      	ldr	r3, [r7, #4]
 8001052:	609a      	str	r2, [r3, #8]
 8001054:	bf00      	nop
 8001056:	370c      	adds	r7, #12
 8001058:	46bd      	mov	sp, r7
 800105a:	f85d 7b04 	ldr.w	r7, [sp], #4
 800105e:	4770      	bx	lr

08001060 <LL_ADC_Disable>:
 8001060:	b480      	push	{r7}
 8001062:	b083      	sub	sp, #12
 8001064:	af00      	add	r7, sp, #0
 8001066:	6078      	str	r0, [r7, #4]
 8001068:	687b      	ldr	r3, [r7, #4]
 800106a:	689b      	ldr	r3, [r3, #8]
 800106c:	f023 4300 	bic.w	r3, r3, #2147483648	; 0x80000000
 8001070:	f023 033f 	bic.w	r3, r3, #63	; 0x3f
 8001074:	f043 0202 	orr.w	r2, r3, #2
 8001078:	687b      	ldr	r3, [r7, #4]
 800107a:	609a      	str	r2, [r3, #8]
 800107c:	bf00      	nop
 800107e:	370c      	adds	r7, #12
 8001080:	46bd      	mov	sp, r7
 8001082:	f85d 7b04 	ldr.w	r7, [sp], #4
 8001086:	4770      	bx	lr

08001088 <LL_ADC_IsEnabled>:
 8001088:	b480      	push	{r7}
 800108a:	b083      	sub	sp, #12
 800108c:	af00      	add	r7, sp, #0
 800108e:	6078      	str	r0, [r7, #4]
 8001090:	687b      	ldr	r3, [r7, #4]
 8001092:	689b      	ldr	r3, [r3, #8]
 8001094:	f003 0301 	and.w	r3, r3, #1
 8001098:	2b01      	cmp	r3, #1
 800109a:	d101      	bne.n	80010a0 <LL_ADC_IsEnabled+0x18>
 800109c:	2301      	movs	r3, #1
 800109e:	e000      	b.n	80010a2 <LL_ADC_IsEnabled+0x1a>
 80010a0:	2300      	movs	r3, #0
 80010a2:	4618      	mov	r0, r3
 80010a4:	370c      	adds	r7, #12
 80010a6:	46bd      	mov	sp, r7
 80010a8:	f85d 7b04 	ldr.w	r7, [sp], #4
 80010ac:	4770      	bx	lr

080010ae <LL_ADC_IsDisableOngoing>:
 80010ae:	b480      	push	{r7}
 80010b0:	b083      	sub	sp, #12
 80010b2:	af00      	add	r7, sp, #0
 80010b4:	6078      	str	r0, [r7, #4]
 80010b6:	687b      	ldr	r3, [r7, #4]
 80010b8:	689b      	ldr	r3, [r3, #8]
 80010ba:	f003 0302 	and.w	r3, r3, #2
 80010be:	2b02      	cmp	r3, #2
 80010c0:	d101      	bne.n	80010c6 <LL_ADC_IsDisableOngoing+0x18>
 80010c2:	2301      	movs	r3, #1
 80010c4:	e000      	b.n	80010c8 <LL_ADC_IsDisableOngoing+0x1a>
 80010c6:	2300      	movs	r3, #0
 80010c8:	4618      	mov	r0, r3
 80010ca:	370c      	adds	r7, #12
 80010cc:	46bd      	mov	sp, r7
 80010ce:	f85d 7b04 	ldr.w	r7, [sp], #4
 80010d2:	4770      	bx	lr

080010d4 <LL_ADC_REG_StartConversion>:
 80010d4:	b480      	push	{r7}
 80010d6:	b083      	sub	sp, #12
 80010d8:	af00      	add	r7, sp, #0
 80010da:	6078      	str	r0, [r7, #4]
 80010dc:	687b      	ldr	r3, [r7, #4]
 80010de:	689b      	ldr	r3, [r3, #8]
 80010e0:	f023 4300 	bic.w	r3, r3, #2147483648	; 0x80000000
 80010e4:	f023 033f 	bic.w	r3, r3, #63	; 0x3f
 80010e8:	f043 0204 	orr.w	r2, r3, #4
 80010ec:	687b      	ldr	r3, [r7, #4]
 80010ee:	609a      	str	r2, [r3, #8]
 80010f0:	bf00      	nop
 80010f2:	370c      	adds	r7, #12
 80010f4:	46bd      	mov	sp, r7
 80010f6:	f85d 7b04 	ldr.w	r7, [sp], #4
 80010fa:	4770      	bx	lr

080010fc <LL_ADC_REG_StopConversion>:
 80010fc:	b480      	push	{r7}
 80010fe:	b083      	sub	sp, #12
 8001100:	af00      	add	r7, sp, #0
 8001102:	6078      	str	r0, [r7, #4]
 8001104:	687b      	ldr	r3, [r7, #4]
 8001106:	689b      	ldr	r3, [r3, #8]
 8001108:	f023 4300 	bic.w	r3, r3, #2147483648	; 0x80000000
 800110c:	f023 033f 	bic.w	r3, r3, #63	; 0x3f
 8001110:	f043 0210 	orr.w	r2, r3, #16
 8001114:	687b      	ldr	r3, [r7, #4]
 8001116:	609a      	str	r2, [r3, #8]
 8001118:	bf00      	nop
 800111a:	370c      	adds	r7, #12
 800111c:	46bd      	mov	sp, r7
 800111e:	f85d 7b04 	ldr.w	r7, [sp], #4
 8001122:	4770      	bx	lr

08001124 <LL_ADC_REG_IsConversionOngoing>:
 8001124:	b480      	push	{r7}
 8001126:	b083      	sub	sp, #12
 8001128:	af00      	add	r7, sp, #0
 800112a:	6078      	str	r0, [r7, #4]
 800112c:	687b      	ldr	r3, [r7, #4]
 800112e:	689b      	ldr	r3, [r3, #8]
 8001130:	f003 0304 	and.w	r3, r3, #4
 8001134:	2b04      	cmp	r3, #4
 8001136:	d101      	bne.n	800113c <LL_ADC_REG_IsConversionOngoing+0x18>
 8001138:	2301      	movs	r3, #1
 800113a:	e000      	b.n	800113e <LL_ADC_REG_IsConversionOngoing+0x1a>
 800113c:	2300      	movs	r3, #0
 800113e:	4618      	mov	r0, r3
 8001140:	370c      	adds	r7, #12
 8001142:	46bd      	mov	sp, r7
 8001144:	f85d 7b04 	ldr.w	r7, [sp], #4
 8001148:	4770      	bx	lr

0800114a <LL_ADC_INJ_StopConversion>:
 800114a:	b480      	push	{r7}
 800114c:	b083      	sub	sp, #12
 800114e:	af00      	add	r7, sp, #0
 8001150:	6078      	str	r0, [r7, #4]
 8001152:	687b      	ldr	r3, [r7, #4]
 8001154:	689b      	ldr	r3, [r3, #8]
 8001156:	f023 4300 	bic.w	r3, r3, #2147483648	; 0x80000000
 800115a:	f023 033f 	bic.w	r3, r3, #63	; 0x3f
 800115e:	f043 0220 	orr.w	r2, r3, #32
 8001162:	687b      	ldr	r3, [r7, #4]
 8001164:	609a      	str	r2, [r3, #8]
 8001166:	bf00      	nop
 8001168:	370c      	adds	r7, #12
 800116a:	46bd      	mov	sp, r7
 800116c:	f85d 7b04 	ldr.w	r7, [sp], #4
 8001170:	4770      	bx	lr

08001172 <LL_ADC_INJ_IsConversionOngoing>:
 8001172:	b480      	push	{r7}
 8001174:	b083      	sub	sp, #12
 8001176:	af00      	add	r7, sp, #0
 8001178:	6078      	str	r0, [r7, #4]
 800117a:	687b      	ldr	r3, [r7, #4]
 800117c:	689b      	ldr	r3, [r3, #8]
 800117e:	f003 0308 	and.w	r3, r3, #8
 8001182:	2b08      	cmp	r3, #8
 8001184:	d101      	bne.n	800118a <LL_ADC_INJ_IsConversionOngoing+0x18>
 8001186:	2301      	movs	r3, #1
 8001188:	e000      	b.n	800118c <LL_ADC_INJ_IsConversionOngoing+0x1a>
 800118a:	2300      	movs	r3, #0
 800118c:	4618      	mov	r0, r3
 800118e:	370c      	adds	r7, #12
 8001190:	46bd      	mov	sp, r7
 8001192:	f85d 7b04 	ldr.w	r7, [sp], #4
 8001196:	4770      	bx	lr

08001198 <HAL_ADC_Init>:
 8001198:	b580      	push	{r7, lr}
 800119a:	b088      	sub	sp, #32
 800119c:	af00      	add	r7, sp, #0
 800119e:	6078      	str	r0, [r7, #4]
 80011a0:	2300      	movs	r3, #0
 80011a2:	77fb      	strb	r3, [r7, #31]
 80011a4:	2300      	movs	r3, #0
 80011a6:	60bb      	str	r3, [r7, #8]
 80011a8:	687b      	ldr	r3, [r7, #4]
 80011aa:	2b00      	cmp	r3, #0
 80011ac:	d101      	bne.n	80011b2 <HAL_ADC_Init+0x1a>
 80011ae:	2301      	movs	r3, #1
 80011b0:	e12f      	b.n	8001412 <HAL_ADC_Init+0x27a>
 80011b2:	687b      	ldr	r3, [r7, #4]
 80011b4:	691b      	ldr	r3, [r3, #16]
 80011b6:	2b00      	cmp	r3, #0
 80011b8:	687b      	ldr	r3, [r7, #4]
 80011ba:	6d9b      	ldr	r3, [r3, #88]	; 0x58
 80011bc:	2b00      	cmp	r3, #0
 80011be:	d109      	bne.n	80011d4 <HAL_ADC_Init+0x3c>
 80011c0:	6878      	ldr	r0, [r7, #4]
 80011c2:	f003 fc13 	bl	80049ec <HAL_ADC_MspInit>
 80011c6:	687b      	ldr	r3, [r7, #4]
 80011c8:	2200      	movs	r2, #0
 80011ca:	65da      	str	r2, [r3, #92]	; 0x5c
 80011cc:	687b      	ldr	r3, [r7, #4]
 80011ce:	2200      	movs	r2, #0
 80011d0:	f883 2054 	strb.w	r2, [r3, #84]	; 0x54
 80011d4:	687b      	ldr	r3, [r7, #4]
 80011d6:	681b      	ldr	r3, [r3, #0]
 80011d8:	4618      	mov	r0, r3
 80011da:	f7ff fef1 	bl	8000fc0 <LL_ADC_IsDeepPowerDownEnabled>
 80011de:	4603      	mov	r3, r0
 80011e0:	2b00      	cmp	r3, #0
 80011e2:	d004      	beq.n	80011ee <HAL_ADC_Init+0x56>
 80011e4:	687b      	ldr	r3, [r7, #4]
 80011e6:	681b      	ldr	r3, [r3, #0]
 80011e8:	4618      	mov	r0, r3
 80011ea:	f7ff fed7 	bl	8000f9c <LL_ADC_DisableDeepPowerDown>
 80011ee:	687b      	ldr	r3, [r7, #4]
 80011f0:	681b      	ldr	r3, [r3, #0]
 80011f2:	4618      	mov	r0, r3
 80011f4:	f7ff ff0c 	bl	8001010 <LL_ADC_IsInternalRegulatorEnabled>
 80011f8:	4603      	mov	r3, r0
 80011fa:	2b00      	cmp	r3, #0
 80011fc:	d115      	bne.n	800122a <HAL_ADC_Init+0x92>
 80011fe:	687b      	ldr	r3, [r7, #4]
 8001200:	681b      	ldr	r3, [r3, #0]
 8001202:	4618      	mov	r0, r3
 8001204:	f7ff fef0 	bl	8000fe8 <LL_ADC_EnableInternalRegulator>
 8001208:	4b84      	ldr	r3, [pc, #528]	; (800141c <HAL_ADC_Init+0x284>)
 800120a:	681b      	ldr	r3, [r3, #0]
 800120c:	099b      	lsrs	r3, r3, #6
 800120e:	4a84      	ldr	r2, [pc, #528]	; (8001420 <HAL_ADC_Init+0x288>)
 8001210:	fba2 2303 	umull	r2, r3, r2, r3
 8001214:	099b      	lsrs	r3, r3, #6
 8001216:	3301      	adds	r3, #1
 8001218:	005b      	lsls	r3, r3, #1
 800121a:	60bb      	str	r3, [r7, #8]
 800121c:	e002      	b.n	8001224 <HAL_ADC_Init+0x8c>
 800121e:	68bb      	ldr	r3, [r7, #8]
 8001220:	3b01      	subs	r3, #1
 8001222:	60bb      	str	r3, [r7, #8]
 8001224:	68bb      	ldr	r3, [r7, #8]
 8001226:	2b00      	cmp	r3, #0
 8001228:	d1f9      	bne.n	800121e <HAL_ADC_Init+0x86>
 800122a:	687b      	ldr	r3, [r7, #4]
 800122c:	681b      	ldr	r3, [r3, #0]
 800122e:	4618      	mov	r0, r3
 8001230:	f7ff feee 	bl	8001010 <LL_ADC_IsInternalRegulatorEnabled>
 8001234:	4603      	mov	r3, r0
 8001236:	2b00      	cmp	r3, #0
 8001238:	d10d      	bne.n	8001256 <HAL_ADC_Init+0xbe>
 800123a:	687b      	ldr	r3, [r7, #4]
 800123c:	6d9b      	ldr	r3, [r3, #88]	; 0x58
 800123e:	f043 0210 	orr.w	r2, r3, #16
 8001242:	687b      	ldr	r3, [r7, #4]
 8001244:	659a      	str	r2, [r3, #88]	; 0x58
 8001246:	687b      	ldr	r3, [r7, #4]
 8001248:	6ddb      	ldr	r3, [r3, #92]	; 0x5c
 800124a:	f043 0201 	orr.w	r2, r3, #1
 800124e:	687b      	ldr	r3, [r7, #4]
 8001250:	65da      	str	r2, [r3, #92]	; 0x5c
 8001252:	2301      	movs	r3, #1
 8001254:	77fb      	strb	r3, [r7, #31]
 8001256:	687b      	ldr	r3, [r7, #4]
 8001258:	681b      	ldr	r3, [r3, #0]
 800125a:	4618      	mov	r0, r3
 800125c:	f7ff ff62 	bl	8001124 <LL_ADC_REG_IsConversionOngoing>
 8001260:	6178      	str	r0, [r7, #20]
 8001262:	687b      	ldr	r3, [r7, #4]
 8001264:	6d9b      	ldr	r3, [r3, #88]	; 0x58
 8001266:	f003 0310 	and.w	r3, r3, #16
 800126a:	2b00      	cmp	r3, #0
 800126c:	f040 80c8 	bne.w	8001400 <HAL_ADC_Init+0x268>
 8001270:	697b      	ldr	r3, [r7, #20]
 8001272:	2b00      	cmp	r3, #0
 8001274:	f040 80c4 	bne.w	8001400 <HAL_ADC_Init+0x268>
 8001278:	687b      	ldr	r3, [r7, #4]
 800127a:	6d9b      	ldr	r3, [r3, #88]	; 0x58
 800127c:	f423 7381 	bic.w	r3, r3, #258	; 0x102
 8001280:	f043 0202 	orr.w	r2, r3, #2
 8001284:	687b      	ldr	r3, [r7, #4]
 8001286:	659a      	str	r2, [r3, #88]	; 0x58
 8001288:	687b      	ldr	r3, [r7, #4]
 800128a:	681b      	ldr	r3, [r3, #0]
 800128c:	4618      	mov	r0, r3
 800128e:	f7ff fefb 	bl	8001088 <LL_ADC_IsEnabled>
 8001292:	4603      	mov	r3, r0
 8001294:	2b00      	cmp	r3, #0
 8001296:	d10b      	bne.n	80012b0 <HAL_ADC_Init+0x118>
 8001298:	4862      	ldr	r0, [pc, #392]	; (8001424 <HAL_ADC_Init+0x28c>)
 800129a:	f7ff fef5 	bl	8001088 <LL_ADC_IsEnabled>
 800129e:	4603      	mov	r3, r0
 80012a0:	2b00      	cmp	r3, #0
 80012a2:	d105      	bne.n	80012b0 <HAL_ADC_Init+0x118>
 80012a4:	687b      	ldr	r3, [r7, #4]
 80012a6:	685b      	ldr	r3, [r3, #4]
 80012a8:	4619      	mov	r1, r3
 80012aa:	485f      	ldr	r0, [pc, #380]	; (8001428 <HAL_ADC_Init+0x290>)
 80012ac:	f7ff fd4c 	bl	8000d48 <LL_ADC_SetCommonClock>
 80012b0:	687b      	ldr	r3, [r7, #4]
 80012b2:	7e5b      	ldrb	r3, [r3, #25]
 80012b4:	035a      	lsls	r2, r3, #13
 80012b6:	687b      	ldr	r3, [r7, #4]
 80012b8:	6b5b      	ldr	r3, [r3, #52]	; 0x34
 80012ba:	431a      	orrs	r2, r3
 80012bc:	687b      	ldr	r3, [r7, #4]
 80012be:	68db      	ldr	r3, [r3, #12]
 80012c0:	431a      	orrs	r2, r3
 80012c2:	687b      	ldr	r3, [r7, #4]
 80012c4:	689b      	ldr	r3, [r3, #8]
 80012c6:	431a      	orrs	r2, r3
 80012c8:	687b      	ldr	r3, [r7, #4]
 80012ca:	f893 3020 	ldrb.w	r3, [r3, #32]
 80012ce:	041b      	lsls	r3, r3, #16
 80012d0:	4313      	orrs	r3, r2
 80012d2:	61bb      	str	r3, [r7, #24]
 80012d4:	687b      	ldr	r3, [r7, #4]
 80012d6:	f893 3020 	ldrb.w	r3, [r3, #32]
 80012da:	2b01      	cmp	r3, #1
 80012dc:	d106      	bne.n	80012ec <HAL_ADC_Init+0x154>
 80012de:	687b      	ldr	r3, [r7, #4]
 80012e0:	6a5b      	ldr	r3, [r3, #36]	; 0x24
 80012e2:	3b01      	subs	r3, #1
 80012e4:	045b      	lsls	r3, r3, #17
 80012e6:	69ba      	ldr	r2, [r7, #24]
 80012e8:	4313      	orrs	r3, r2
 80012ea:	61bb      	str	r3, [r7, #24]
 80012ec:	687b      	ldr	r3, [r7, #4]
 80012ee:	6a9b      	ldr	r3, [r3, #40]	; 0x28
 80012f0:	2b00      	cmp	r3, #0
 80012f2:	d009      	beq.n	8001308 <HAL_ADC_Init+0x170>
 80012f4:	687b      	ldr	r3, [r7, #4]
 80012f6:	6a9b      	ldr	r3, [r3, #40]	; 0x28
 80012f8:	f403 7270 	and.w	r2, r3, #960	; 0x3c0
 80012fc:	687b      	ldr	r3, [r7, #4]
 80012fe:	6adb      	ldr	r3, [r3, #44]	; 0x2c
 8001300:	4313      	orrs	r3, r2
 8001302:	69ba      	ldr	r2, [r7, #24]
 8001304:	4313      	orrs	r3, r2
 8001306:	61bb      	str	r3, [r7, #24]
 8001308:	687b      	ldr	r3, [r7, #4]
 800130a:	681b      	ldr	r3, [r3, #0]
 800130c:	68da      	ldr	r2, [r3, #12]
 800130e:	4b47      	ldr	r3, [pc, #284]	; (800142c <HAL_ADC_Init+0x294>)
 8001310:	4013      	ands	r3, r2
 8001312:	687a      	ldr	r2, [r7, #4]
 8001314:	6812      	ldr	r2, [r2, #0]
 8001316:	69b9      	ldr	r1, [r7, #24]
 8001318:	430b      	orrs	r3, r1
 800131a:	60d3      	str	r3, [r2, #12]
 800131c:	687b      	ldr	r3, [r7, #4]
 800131e:	681b      	ldr	r3, [r3, #0]
 8001320:	4618      	mov	r0, r3
 8001322:	f7ff feff 	bl	8001124 <LL_ADC_REG_IsConversionOngoing>
 8001326:	6138      	str	r0, [r7, #16]
 8001328:	687b      	ldr	r3, [r7, #4]
 800132a:	681b      	ldr	r3, [r3, #0]
 800132c:	4618      	mov	r0, r3
 800132e:	f7ff ff20 	bl	8001172 <LL_ADC_INJ_IsConversionOngoing>
 8001332:	60f8      	str	r0, [r7, #12]
 8001334:	693b      	ldr	r3, [r7, #16]
 8001336:	2b00      	cmp	r3, #0
 8001338:	d140      	bne.n	80013bc <HAL_ADC_Init+0x224>
 800133a:	68fb      	ldr	r3, [r7, #12]
 800133c:	2b00      	cmp	r3, #0
 800133e:	d13d      	bne.n	80013bc <HAL_ADC_Init+0x224>
 8001340:	687b      	ldr	r3, [r7, #4]
 8001342:	6cda      	ldr	r2, [r3, #76]	; 0x4c
 8001344:	687b      	ldr	r3, [r7, #4]
 8001346:	7e1b      	ldrb	r3, [r3, #24]
 8001348:	039b      	lsls	r3, r3, #14
 800134a:	431a      	orrs	r2, r3
 800134c:	687b      	ldr	r3, [r7, #4]
 800134e:	f893 3030 	ldrb.w	r3, [r3, #48]	; 0x30
 8001352:	005b      	lsls	r3, r3, #1
 8001354:	4313      	orrs	r3, r2
 8001356:	61bb      	str	r3, [r7, #24]
 8001358:	687b      	ldr	r3, [r7, #4]
 800135a:	681b      	ldr	r3, [r3, #0]
 800135c:	68db      	ldr	r3, [r3, #12]
 800135e:	f423 4380 	bic.w	r3, r3, #16384	; 0x4000
 8001362:	f023 0306 	bic.w	r3, r3, #6
 8001366:	687a      	ldr	r2, [r7, #4]
 8001368:	6812      	ldr	r2, [r2, #0]
 800136a:	69b9      	ldr	r1, [r7, #24]
 800136c:	430b      	orrs	r3, r1
 800136e:	60d3      	str	r3, [r2, #12]
 8001370:	687b      	ldr	r3, [r7, #4]
 8001372:	f893 3038 	ldrb.w	r3, [r3, #56]	; 0x38
 8001376:	2b01      	cmp	r3, #1
 8001378:	d118      	bne.n	80013ac <HAL_ADC_Init+0x214>
 800137a:	687b      	ldr	r3, [r7, #4]
 800137c:	681b      	ldr	r3, [r3, #0]
 800137e:	691b      	ldr	r3, [r3, #16]
 8001380:	f423 63ff 	bic.w	r3, r3, #2040	; 0x7f8
 8001384:	f023 0304 	bic.w	r3, r3, #4
 8001388:	687a      	ldr	r2, [r7, #4]
 800138a:	6bd1      	ldr	r1, [r2, #60]	; 0x3c
 800138c:	687a      	ldr	r2, [r7, #4]
 800138e:	6c12      	ldr	r2, [r2, #64]	; 0x40
 8001390:	4311      	orrs	r1, r2
 8001392:	687a      	ldr	r2, [r7, #4]
 8001394:	6c52      	ldr	r2, [r2, #68]	; 0x44
 8001396:	4311      	orrs	r1, r2
 8001398:	687a      	ldr	r2, [r7, #4]
 800139a:	6c92      	ldr	r2, [r2, #72]	; 0x48
 800139c:	430a      	orrs	r2, r1
 800139e:	431a      	orrs	r2, r3
 80013a0:	687b      	ldr	r3, [r7, #4]
 80013a2:	681b      	ldr	r3, [r3, #0]
 80013a4:	f042 0201 	orr.w	r2, r2, #1
 80013a8:	611a      	str	r2, [r3, #16]
 80013aa:	e007      	b.n	80013bc <HAL_ADC_Init+0x224>
 80013ac:	687b      	ldr	r3, [r7, #4]
 80013ae:	681b      	ldr	r3, [r3, #0]
 80013b0:	691a      	ldr	r2, [r3, #16]
 80013b2:	687b      	ldr	r3, [r7, #4]
 80013b4:	681b      	ldr	r3, [r3, #0]
 80013b6:	f022 0201 	bic.w	r2, r2, #1
 80013ba:	611a      	str	r2, [r3, #16]
 80013bc:	687b      	ldr	r3, [r7, #4]
 80013be:	691b      	ldr	r3, [r3, #16]
 80013c0:	2b01      	cmp	r3, #1
 80013c2:	d10c      	bne.n	80013de <HAL_ADC_Init+0x246>
 80013c4:	687b      	ldr	r3, [r7, #4]
 80013c6:	681b      	ldr	r3, [r3, #0]
 80013c8:	6b1b      	ldr	r3, [r3, #48]	; 0x30
 80013ca:	f023 010f 	bic.w	r1, r3, #15
 80013ce:	687b      	ldr	r3, [r7, #4]
 80013d0:	69db      	ldr	r3, [r3, #28]
 80013d2:	1e5a      	subs	r2, r3, #1
 80013d4:	687b      	ldr	r3, [r7, #4]
 80013d6:	681b      	ldr	r3, [r3, #0]
 80013d8:	430a      	orrs	r2, r1
 80013da:	631a      	str	r2, [r3, #48]	; 0x30
 80013dc:	e007      	b.n	80013ee <HAL_ADC_Init+0x256>
 80013de:	687b      	ldr	r3, [r7, #4]
 80013e0:	681b      	ldr	r3, [r3, #0]
 80013e2:	6b1a      	ldr	r2, [r3, #48]	; 0x30
 80013e4:	687b      	ldr	r3, [r7, #4]
 80013e6:	681b      	ldr	r3, [r3, #0]
 80013e8:	f022 020f 	bic.w	r2, r2, #15
 80013ec:	631a      	str	r2, [r3, #48]	; 0x30
 80013ee:	687b      	ldr	r3, [r7, #4]
 80013f0:	6d9b      	ldr	r3, [r3, #88]	; 0x58
 80013f2:	f023 0303 	bic.w	r3, r3, #3
 80013f6:	f043 0201 	orr.w	r2, r3, #1
 80013fa:	687b      	ldr	r3, [r7, #4]
 80013fc:	659a      	str	r2, [r3, #88]	; 0x58
 80013fe:	e007      	b.n	8001410 <HAL_ADC_Init+0x278>
 8001400:	687b      	ldr	r3, [r7, #4]
 8001402:	6d9b      	ldr	r3, [r3, #88]	; 0x58
 8001404:	f043 0210 	orr.w	r2, r3, #16
 8001408:	687b      	ldr	r3, [r7, #4]
 800140a:	659a      	str	r2, [r3, #88]	; 0x58
 800140c:	2301      	movs	r3, #1
 800140e:	77fb      	strb	r3, [r7, #31]
 8001410:	7ffb      	ldrb	r3, [r7, #31]
 8001412:	4618      	mov	r0, r3
 8001414:	3720      	adds	r7, #32
 8001416:	46bd      	mov	sp, r7
 8001418:	bd80      	pop	{r7, pc}
 800141a:	bf00      	nop
 800141c:	20001048 	.word	0x20001048
 8001420:	053e2d63 	.word	0x053e2d63
 8001424:	50040000 	.word	0x50040000
 8001428:	50040300 	.word	0x50040300
 800142c:	fff0c007 	.word	0xfff0c007

08001430 <HAL_ADC_Start>:
 8001430:	b580      	push	{r7, lr}
 8001432:	b084      	sub	sp, #16
 8001434:	af00      	add	r7, sp, #0
 8001436:	6078      	str	r0, [r7, #4]
 8001438:	687b      	ldr	r3, [r7, #4]
 800143a:	681b      	ldr	r3, [r3, #0]
 800143c:	4618      	mov	r0, r3
 800143e:	f7ff fe71 	bl	8001124 <LL_ADC_REG_IsConversionOngoing>
 8001442:	4603      	mov	r3, r0
 8001444:	2b00      	cmp	r3, #0
 8001446:	d14f      	bne.n	80014e8 <HAL_ADC_Start+0xb8>
 8001448:	687b      	ldr	r3, [r7, #4]
 800144a:	f893 3054 	ldrb.w	r3, [r3, #84]	; 0x54
 800144e:	2b01      	cmp	r3, #1
 8001450:	d101      	bne.n	8001456 <HAL_ADC_Start+0x26>
 8001452:	2302      	movs	r3, #2
 8001454:	e04b      	b.n	80014ee <HAL_ADC_Start+0xbe>
 8001456:	687b      	ldr	r3, [r7, #4]
 8001458:	2201      	movs	r2, #1
 800145a:	f883 2054 	strb.w	r2, [r3, #84]	; 0x54
 800145e:	6878      	ldr	r0, [r7, #4]
 8001460:	f000 fdd0 	bl	8002004 <ADC_Enable>
 8001464:	4603      	mov	r3, r0
 8001466:	73fb      	strb	r3, [r7, #15]
 8001468:	7bfb      	ldrb	r3, [r7, #15]
 800146a:	2b00      	cmp	r3, #0
 800146c:	d137      	bne.n	80014de <HAL_ADC_Start+0xae>
 800146e:	687b      	ldr	r3, [r7, #4]
 8001470:	6d9b      	ldr	r3, [r3, #88]	; 0x58
 8001472:	f423 6370 	bic.w	r3, r3, #3840	; 0xf00
 8001476:	f023 0301 	bic.w	r3, r3, #1
 800147a:	f443 7280 	orr.w	r2, r3, #256	; 0x100
 800147e:	687b      	ldr	r3, [r7, #4]
 8001480:	659a      	str	r2, [r3, #88]	; 0x58
 8001482:	687b      	ldr	r3, [r7, #4]
 8001484:	6d9b      	ldr	r3, [r3, #88]	; 0x58
 8001486:	f403 5380 	and.w	r3, r3, #4096	; 0x1000
 800148a:	f5b3 5f80 	cmp.w	r3, #4096	; 0x1000
 800148e:	d106      	bne.n	800149e <HAL_ADC_Start+0x6e>
 8001490:	687b      	ldr	r3, [r7, #4]
 8001492:	6ddb      	ldr	r3, [r3, #92]	; 0x5c
 8001494:	f023 0206 	bic.w	r2, r3, #6
 8001498:	687b      	ldr	r3, [r7, #4]
 800149a:	65da      	str	r2, [r3, #92]	; 0x5c
 800149c:	e002      	b.n	80014a4 <HAL_ADC_Start+0x74>
 800149e:	687b      	ldr	r3, [r7, #4]
 80014a0:	2200      	movs	r2, #0
 80014a2:	65da      	str	r2, [r3, #92]	; 0x5c
 80014a4:	687b      	ldr	r3, [r7, #4]
 80014a6:	681b      	ldr	r3, [r3, #0]
 80014a8:	221c      	movs	r2, #28
 80014aa:	601a      	str	r2, [r3, #0]
 80014ac:	687b      	ldr	r3, [r7, #4]
 80014ae:	2200      	movs	r2, #0
 80014b0:	f883 2054 	strb.w	r2, [r3, #84]	; 0x54
 80014b4:	687b      	ldr	r3, [r7, #4]
 80014b6:	681b      	ldr	r3, [r3, #0]
 80014b8:	68db      	ldr	r3, [r3, #12]
 80014ba:	f003 7300 	and.w	r3, r3, #33554432	; 0x2000000
 80014be:	2b00      	cmp	r3, #0
 80014c0:	d007      	beq.n	80014d2 <HAL_ADC_Start+0xa2>
 80014c2:	687b      	ldr	r3, [r7, #4]
 80014c4:	6d9b      	ldr	r3, [r3, #88]	; 0x58
 80014c6:	f423 5340 	bic.w	r3, r3, #12288	; 0x3000
 80014ca:	f443 5280 	orr.w	r2, r3, #4096	; 0x1000
 80014ce:	687b      	ldr	r3, [r7, #4]
 80014d0:	659a      	str	r2, [r3, #88]	; 0x58
 80014d2:	687b      	ldr	r3, [r7, #4]
 80014d4:	681b      	ldr	r3, [r3, #0]
 80014d6:	4618      	mov	r0, r3
 80014d8:	f7ff fdfc 	bl	80010d4 <LL_ADC_REG_StartConversion>
 80014dc:	e006      	b.n	80014ec <HAL_ADC_Start+0xbc>
 80014de:	687b      	ldr	r3, [r7, #4]
 80014e0:	2200      	movs	r2, #0
 80014e2:	f883 2054 	strb.w	r2, [r3, #84]	; 0x54
 80014e6:	e001      	b.n	80014ec <HAL_ADC_Start+0xbc>
 80014e8:	2302      	movs	r3, #2
 80014ea:	73fb      	strb	r3, [r7, #15]
 80014ec:	7bfb      	ldrb	r3, [r7, #15]
 80014ee:	4618      	mov	r0, r3
 80014f0:	3710      	adds	r7, #16
 80014f2:	46bd      	mov	sp, r7
 80014f4:	bd80      	pop	{r7, pc}

080014f6 <HAL_ADC_Stop>:
 80014f6:	b580      	push	{r7, lr}
 80014f8:	b084      	sub	sp, #16
 80014fa:	af00      	add	r7, sp, #0
 80014fc:	6078      	str	r0, [r7, #4]
 80014fe:	687b      	ldr	r3, [r7, #4]
 8001500:	f893 3054 	ldrb.w	r3, [r3, #84]	; 0x54
 8001504:	2b01      	cmp	r3, #1
 8001506:	d101      	bne.n	800150c <HAL_ADC_Stop+0x16>
 8001508:	2302      	movs	r3, #2
 800150a:	e023      	b.n	8001554 <HAL_ADC_Stop+0x5e>
 800150c:	687b      	ldr	r3, [r7, #4]
 800150e:	2201      	movs	r2, #1
 8001510:	f883 2054 	strb.w	r2, [r3, #84]	; 0x54
 8001514:	2103      	movs	r1, #3
 8001516:	6878      	ldr	r0, [r7, #4]
 8001518:	f000 fcb8 	bl	8001e8c <ADC_ConversionStop>
 800151c:	4603      	mov	r3, r0
 800151e:	73fb      	strb	r3, [r7, #15]
 8001520:	7bfb      	ldrb	r3, [r7, #15]
 8001522:	2b00      	cmp	r3, #0
 8001524:	d111      	bne.n	800154a <HAL_ADC_Stop+0x54>
 8001526:	6878      	ldr	r0, [r7, #4]
 8001528:	f000 fdf2 	bl	8002110 <ADC_Disable>
 800152c:	4603      	mov	r3, r0
 800152e:	73fb      	strb	r3, [r7, #15]
 8001530:	7bfb      	ldrb	r3, [r7, #15]
 8001532:	2b00      	cmp	r3, #0
 8001534:	d109      	bne.n	800154a <HAL_ADC_Stop+0x54>
 8001536:	687b      	ldr	r3, [r7, #4]
 8001538:	6d9b      	ldr	r3, [r3, #88]	; 0x58
 800153a:	f423 5388 	bic.w	r3, r3, #4352	; 0x1100
 800153e:	f023 0301 	bic.w	r3, r3, #1
 8001542:	f043 0201 	orr.w	r2, r3, #1
 8001546:	687b      	ldr	r3, [r7, #4]
 8001548:	659a      	str	r2, [r3, #88]	; 0x58
 800154a:	687b      	ldr	r3, [r7, #4]
 800154c:	2200      	movs	r2, #0
 800154e:	f883 2054 	strb.w	r2, [r3, #84]	; 0x54
 8001552:	7bfb      	ldrb	r3, [r7, #15]
 8001554:	4618      	mov	r0, r3
 8001556:	3710      	adds	r7, #16
 8001558:	46bd      	mov	sp, r7
 800155a:	bd80      	pop	{r7, pc}

0800155c <HAL_ADC_PollForConversion>:
 800155c:	b580      	push	{r7, lr}
 800155e:	b086      	sub	sp, #24
 8001560:	af00      	add	r7, sp, #0
 8001562:	6078      	str	r0, [r7, #4]
 8001564:	6039      	str	r1, [r7, #0]
 8001566:	687b      	ldr	r3, [r7, #4]
 8001568:	695b      	ldr	r3, [r3, #20]
 800156a:	2b08      	cmp	r3, #8
 800156c:	d102      	bne.n	8001574 <HAL_ADC_PollForConversion+0x18>
 800156e:	2308      	movs	r3, #8
 8001570:	617b      	str	r3, [r7, #20]
 8001572:	e010      	b.n	8001596 <HAL_ADC_PollForConversion+0x3a>
 8001574:	687b      	ldr	r3, [r7, #4]
 8001576:	681b      	ldr	r3, [r3, #0]
 8001578:	68db      	ldr	r3, [r3, #12]
 800157a:	f003 0301 	and.w	r3, r3, #1
 800157e:	2b00      	cmp	r3, #0
 8001580:	d007      	beq.n	8001592 <HAL_ADC_PollForConversion+0x36>
 8001582:	687b      	ldr	r3, [r7, #4]
 8001584:	6d9b      	ldr	r3, [r3, #88]	; 0x58
 8001586:	f043 0220 	orr.w	r2, r3, #32
 800158a:	687b      	ldr	r3, [r7, #4]
 800158c:	659a      	str	r2, [r3, #88]	; 0x58
 800158e:	2301      	movs	r3, #1
 8001590:	e06f      	b.n	8001672 <HAL_ADC_PollForConversion+0x116>
 8001592:	2304      	movs	r3, #4
 8001594:	617b      	str	r3, [r7, #20]
 8001596:	f7ff fba7 	bl	8000ce8 <HAL_GetTick>
 800159a:	6138      	str	r0, [r7, #16]
 800159c:	e021      	b.n	80015e2 <HAL_ADC_PollForConversion+0x86>
 800159e:	683b      	ldr	r3, [r7, #0]
 80015a0:	f1b3 3fff 	cmp.w	r3, #4294967295
 80015a4:	d01d      	beq.n	80015e2 <HAL_ADC_PollForConversion+0x86>
 80015a6:	f7ff fb9f 	bl	8000ce8 <HAL_GetTick>
 80015aa:	4602      	mov	r2, r0
 80015ac:	693b      	ldr	r3, [r7, #16]
 80015ae:	1ad3      	subs	r3, r2, r3
 80015b0:	683a      	ldr	r2, [r7, #0]
 80015b2:	429a      	cmp	r2, r3
 80015b4:	d302      	bcc.n	80015bc <HAL_ADC_PollForConversion+0x60>
 80015b6:	683b      	ldr	r3, [r7, #0]
 80015b8:	2b00      	cmp	r3, #0
 80015ba:	d112      	bne.n	80015e2 <HAL_ADC_PollForConversion+0x86>
 80015bc:	687b      	ldr	r3, [r7, #4]
 80015be:	681b      	ldr	r3, [r3, #0]
 80015c0:	681a      	ldr	r2, [r3, #0]
 80015c2:	697b      	ldr	r3, [r7, #20]
 80015c4:	4013      	ands	r3, r2
 80015c6:	2b00      	cmp	r3, #0
 80015c8:	d10b      	bne.n	80015e2 <HAL_ADC_PollForConversion+0x86>
 80015ca:	687b      	ldr	r3, [r7, #4]
 80015cc:	6d9b      	ldr	r3, [r3, #88]	; 0x58
 80015ce:	f043 0204 	orr.w	r2, r3, #4
 80015d2:	687b      	ldr	r3, [r7, #4]
 80015d4:	659a      	str	r2, [r3, #88]	; 0x58
 80015d6:	687b      	ldr	r3, [r7, #4]
 80015d8:	2200      	movs	r2, #0
 80015da:	f883 2054 	strb.w	r2, [r3, #84]	; 0x54
 80015de:	2303      	movs	r3, #3
 80015e0:	e047      	b.n	8001672 <HAL_ADC_PollForConversion+0x116>
 80015e2:	687b      	ldr	r3, [r7, #4]
 80015e4:	681b      	ldr	r3, [r3, #0]
 80015e6:	681a      	ldr	r2, [r3, #0]
 80015e8:	697b      	ldr	r3, [r7, #20]
 80015ea:	4013      	ands	r3, r2
 80015ec:	2b00      	cmp	r3, #0
 80015ee:	d0d6      	beq.n	800159e <HAL_ADC_PollForConversion+0x42>
 80015f0:	687b      	ldr	r3, [r7, #4]
 80015f2:	6d9b      	ldr	r3, [r3, #88]	; 0x58
 80015f4:	f443 7200 	orr.w	r2, r3, #512	; 0x200
 80015f8:	687b      	ldr	r3, [r7, #4]
 80015fa:	659a      	str	r2, [r3, #88]	; 0x58
 80015fc:	687b      	ldr	r3, [r7, #4]
 80015fe:	681b      	ldr	r3, [r3, #0]
 8001600:	4618      	mov	r0, r3
 8001602:	f7ff fc3d 	bl	8000e80 <LL_ADC_REG_IsTriggerSourceSWStart>
 8001606:	4603      	mov	r3, r0
 8001608:	2b00      	cmp	r3, #0
 800160a:	d01c      	beq.n	8001646 <HAL_ADC_PollForConversion+0xea>
 800160c:	687b      	ldr	r3, [r7, #4]
 800160e:	7e5b      	ldrb	r3, [r3, #25]
 8001610:	2b00      	cmp	r3, #0
 8001612:	d118      	bne.n	8001646 <HAL_ADC_PollForConversion+0xea>
 8001614:	687b      	ldr	r3, [r7, #4]
 8001616:	681b      	ldr	r3, [r3, #0]
 8001618:	681b      	ldr	r3, [r3, #0]
 800161a:	f003 0308 	and.w	r3, r3, #8
 800161e:	2b08      	cmp	r3, #8
 8001620:	d111      	bne.n	8001646 <HAL_ADC_PollForConversion+0xea>
 8001622:	687b      	ldr	r3, [r7, #4]
 8001624:	6d9b      	ldr	r3, [r3, #88]	; 0x58
 8001626:	f423 7280 	bic.w	r2, r3, #256	; 0x100
 800162a:	687b      	ldr	r3, [r7, #4]
 800162c:	659a      	str	r2, [r3, #88]	; 0x58
 800162e:	687b      	ldr	r3, [r7, #4]
 8001630:	6d9b      	ldr	r3, [r3, #88]	; 0x58
 8001632:	f403 5380 	and.w	r3, r3, #4096	; 0x1000
 8001636:	2b00      	cmp	r3, #0
 8001638:	d105      	bne.n	8001646 <HAL_ADC_PollForConversion+0xea>
 800163a:	687b      	ldr	r3, [r7, #4]
 800163c:	6d9b      	ldr	r3, [r3, #88]	; 0x58
 800163e:	f043 0201 	orr.w	r2, r3, #1
 8001642:	687b      	ldr	r3, [r7, #4]
 8001644:	659a      	str	r2, [r3, #88]	; 0x58
 8001646:	687b      	ldr	r3, [r7, #4]
 8001648:	681b      	ldr	r3, [r3, #0]
 800164a:	68db      	ldr	r3, [r3, #12]
 800164c:	60fb      	str	r3, [r7, #12]
 800164e:	697b      	ldr	r3, [r7, #20]
 8001650:	2b08      	cmp	r3, #8
 8001652:	d104      	bne.n	800165e <HAL_ADC_PollForConversion+0x102>
 8001654:	687b      	ldr	r3, [r7, #4]
 8001656:	681b      	ldr	r3, [r3, #0]
 8001658:	2208      	movs	r2, #8
 800165a:	601a      	str	r2, [r3, #0]
 800165c:	e008      	b.n	8001670 <HAL_ADC_PollForConversion+0x114>
 800165e:	68fb      	ldr	r3, [r7, #12]
 8001660:	f403 4380 	and.w	r3, r3, #16384	; 0x4000
 8001664:	2b00      	cmp	r3, #0
 8001666:	d103      	bne.n	8001670 <HAL_ADC_PollForConversion+0x114>
 8001668:	687b      	ldr	r3, [r7, #4]
 800166a:	681b      	ldr	r3, [r3, #0]
 800166c:	220c      	movs	r2, #12
 800166e:	601a      	str	r2, [r3, #0]
 8001670:	2300      	movs	r3, #0
 8001672:	4618      	mov	r0, r3
 8001674:	3718      	adds	r7, #24
 8001676:	46bd      	mov	sp, r7
 8001678:	bd80      	pop	{r7, pc}

0800167a <HAL_ADC_GetValue>:
 800167a:	b480      	push	{r7}
 800167c:	b083      	sub	sp, #12
 800167e:	af00      	add	r7, sp, #0
 8001680:	6078      	str	r0, [r7, #4]
 8001682:	687b      	ldr	r3, [r7, #4]
 8001684:	681b      	ldr	r3, [r3, #0]
 8001686:	6c1b      	ldr	r3, [r3, #64]	; 0x40
 8001688:	4618      	mov	r0, r3
 800168a:	370c      	adds	r7, #12
 800168c:	46bd      	mov	sp, r7
 800168e:	f85d 7b04 	ldr.w	r7, [sp], #4
 8001692:	4770      	bx	lr

08001694 <HAL_ADC_ConfigChannel>:
 8001694:	b580      	push	{r7, lr}
 8001696:	b0b6      	sub	sp, #216	; 0xd8
 8001698:	af00      	add	r7, sp, #0
 800169a:	6078      	str	r0, [r7, #4]
 800169c:	6039      	str	r1, [r7, #0]
 800169e:	2300      	movs	r3, #0
 80016a0:	f887 30d7 	strb.w	r3, [r7, #215]	; 0xd7
 80016a4:	2300      	movs	r3, #0
 80016a6:	60fb      	str	r3, [r7, #12]
 80016a8:	687b      	ldr	r3, [r7, #4]
 80016aa:	f893 3054 	ldrb.w	r3, [r3, #84]	; 0x54
 80016ae:	2b01      	cmp	r3, #1
 80016b0:	d101      	bne.n	80016b6 <HAL_ADC_ConfigChannel+0x22>
 80016b2:	2302      	movs	r3, #2
 80016b4:	e3d5      	b.n	8001e62 <HAL_ADC_ConfigChannel+0x7ce>
 80016b6:	687b      	ldr	r3, [r7, #4]
 80016b8:	2201      	movs	r2, #1
 80016ba:	f883 2054 	strb.w	r2, [r3, #84]	; 0x54
 80016be:	687b      	ldr	r3, [r7, #4]
 80016c0:	681b      	ldr	r3, [r3, #0]
 80016c2:	4618      	mov	r0, r3
 80016c4:	f7ff fd2e 	bl	8001124 <LL_ADC_REG_IsConversionOngoing>
 80016c8:	4603      	mov	r3, r0
 80016ca:	2b00      	cmp	r3, #0
 80016cc:	f040 83ba 	bne.w	8001e44 <HAL_ADC_ConfigChannel+0x7b0>
 80016d0:	683b      	ldr	r3, [r7, #0]
 80016d2:	685b      	ldr	r3, [r3, #4]
 80016d4:	2b05      	cmp	r3, #5
 80016d6:	d824      	bhi.n	8001722 <HAL_ADC_ConfigChannel+0x8e>
 80016d8:	683b      	ldr	r3, [r7, #0]
 80016da:	685b      	ldr	r3, [r3, #4]
 80016dc:	3b02      	subs	r3, #2
 80016de:	2b03      	cmp	r3, #3
 80016e0:	d81b      	bhi.n	800171a <HAL_ADC_ConfigChannel+0x86>
 80016e2:	a201      	add	r2, pc, #4	; (adr r2, 80016e8 <HAL_ADC_ConfigChannel+0x54>)
 80016e4:	f852 f023 	ldr.w	pc, [r2, r3, lsl #2]
 80016e8:	080016f9 	.word	0x080016f9
 80016ec:	08001701 	.word	0x08001701
 80016f0:	08001709 	.word	0x08001709
 80016f4:	08001711 	.word	0x08001711
 80016f8:	683b      	ldr	r3, [r7, #0]
 80016fa:	220c      	movs	r2, #12
 80016fc:	605a      	str	r2, [r3, #4]
 80016fe:	e011      	b.n	8001724 <HAL_ADC_ConfigChannel+0x90>
 8001700:	683b      	ldr	r3, [r7, #0]
 8001702:	2212      	movs	r2, #18
 8001704:	605a      	str	r2, [r3, #4]
 8001706:	e00d      	b.n	8001724 <HAL_ADC_ConfigChannel+0x90>
 8001708:	683b      	ldr	r3, [r7, #0]
 800170a:	2218      	movs	r2, #24
 800170c:	605a      	str	r2, [r3, #4]
 800170e:	e009      	b.n	8001724 <HAL_ADC_ConfigChannel+0x90>
 8001710:	683b      	ldr	r3, [r7, #0]
 8001712:	f44f 7280 	mov.w	r2, #256	; 0x100
 8001716:	605a      	str	r2, [r3, #4]
 8001718:	e004      	b.n	8001724 <HAL_ADC_ConfigChannel+0x90>
 800171a:	683b      	ldr	r3, [r7, #0]
 800171c:	2206      	movs	r2, #6
 800171e:	605a      	str	r2, [r3, #4]
 8001720:	e000      	b.n	8001724 <HAL_ADC_ConfigChannel+0x90>
 8001722:	bf00      	nop
 8001724:	687b      	ldr	r3, [r7, #4]
 8001726:	6818      	ldr	r0, [r3, #0]
 8001728:	683b      	ldr	r3, [r7, #0]
 800172a:	6859      	ldr	r1, [r3, #4]
 800172c:	683b      	ldr	r3, [r7, #0]
 800172e:	681b      	ldr	r3, [r3, #0]
 8001730:	461a      	mov	r2, r3
 8001732:	f7ff fbb8 	bl	8000ea6 <LL_ADC_REG_SetSequencerRanks>
 8001736:	687b      	ldr	r3, [r7, #4]
 8001738:	681b      	ldr	r3, [r3, #0]
 800173a:	4618      	mov	r0, r3
 800173c:	f7ff fcf2 	bl	8001124 <LL_ADC_REG_IsConversionOngoing>
 8001740:	f8c7 00d0 	str.w	r0, [r7, #208]	; 0xd0
 8001744:	687b      	ldr	r3, [r7, #4]
 8001746:	681b      	ldr	r3, [r3, #0]
 8001748:	4618      	mov	r0, r3
 800174a:	f7ff fd12 	bl	8001172 <LL_ADC_INJ_IsConversionOngoing>
 800174e:	f8c7 00cc 	str.w	r0, [r7, #204]	; 0xcc
 8001752:	f8d7 30d0 	ldr.w	r3, [r7, #208]	; 0xd0
 8001756:	2b00      	cmp	r3, #0
 8001758:	f040 81c1 	bne.w	8001ade <HAL_ADC_ConfigChannel+0x44a>
 800175c:	f8d7 30cc 	ldr.w	r3, [r7, #204]	; 0xcc
 8001760:	2b00      	cmp	r3, #0
 8001762:	f040 81bc 	bne.w	8001ade <HAL_ADC_ConfigChannel+0x44a>
 8001766:	683b      	ldr	r3, [r7, #0]
 8001768:	689b      	ldr	r3, [r3, #8]
 800176a:	f1b3 4f00 	cmp.w	r3, #2147483648	; 0x80000000
 800176e:	d10f      	bne.n	8001790 <HAL_ADC_ConfigChannel+0xfc>
 8001770:	687b      	ldr	r3, [r7, #4]
 8001772:	6818      	ldr	r0, [r3, #0]
 8001774:	683b      	ldr	r3, [r7, #0]
 8001776:	681b      	ldr	r3, [r3, #0]
 8001778:	2200      	movs	r2, #0
 800177a:	4619      	mov	r1, r3
 800177c:	f7ff fbbf 	bl	8000efe <LL_ADC_SetChannelSamplingTime>
 8001780:	687b      	ldr	r3, [r7, #4]
 8001782:	681b      	ldr	r3, [r3, #0]
 8001784:	f04f 4100 	mov.w	r1, #2147483648	; 0x80000000
 8001788:	4618      	mov	r0, r3
 800178a:	f7ff fb66 	bl	8000e5a <LL_ADC_SetSamplingTimeCommonConfig>
 800178e:	e00e      	b.n	80017ae <HAL_ADC_ConfigChannel+0x11a>
 8001790:	687b      	ldr	r3, [r7, #4]
 8001792:	6818      	ldr	r0, [r3, #0]
 8001794:	683b      	ldr	r3, [r7, #0]
 8001796:	6819      	ldr	r1, [r3, #0]
 8001798:	683b      	ldr	r3, [r7, #0]
 800179a:	689b      	ldr	r3, [r3, #8]
 800179c:	461a      	mov	r2, r3
 800179e:	f7ff fbae 	bl	8000efe <LL_ADC_SetChannelSamplingTime>
 80017a2:	687b      	ldr	r3, [r7, #4]
 80017a4:	681b      	ldr	r3, [r3, #0]
 80017a6:	2100      	movs	r1, #0
 80017a8:	4618      	mov	r0, r3
 80017aa:	f7ff fb56 	bl	8000e5a <LL_ADC_SetSamplingTimeCommonConfig>
 80017ae:	683b      	ldr	r3, [r7, #0]
 80017b0:	695a      	ldr	r2, [r3, #20]
 80017b2:	687b      	ldr	r3, [r7, #4]
 80017b4:	681b      	ldr	r3, [r3, #0]
 80017b6:	68db      	ldr	r3, [r3, #12]
 80017b8:	08db      	lsrs	r3, r3, #3
 80017ba:	f003 0303 	and.w	r3, r3, #3
 80017be:	005b      	lsls	r3, r3, #1
 80017c0:	fa02 f303 	lsl.w	r3, r2, r3
 80017c4:	f8c7 30c8 	str.w	r3, [r7, #200]	; 0xc8
 80017c8:	683b      	ldr	r3, [r7, #0]
 80017ca:	691b      	ldr	r3, [r3, #16]
 80017cc:	2b04      	cmp	r3, #4
 80017ce:	d00a      	beq.n	80017e6 <HAL_ADC_ConfigChannel+0x152>
 80017d0:	687b      	ldr	r3, [r7, #4]
 80017d2:	6818      	ldr	r0, [r3, #0]
 80017d4:	683b      	ldr	r3, [r7, #0]
 80017d6:	6919      	ldr	r1, [r3, #16]
 80017d8:	683b      	ldr	r3, [r7, #0]
 80017da:	681a      	ldr	r2, [r3, #0]
 80017dc:	f8d7 30c8 	ldr.w	r3, [r7, #200]	; 0xc8
 80017e0:	f7ff fae6 	bl	8000db0 <LL_ADC_SetOffset>
 80017e4:	e17b      	b.n	8001ade <HAL_ADC_ConfigChannel+0x44a>
 80017e6:	687b      	ldr	r3, [r7, #4]
 80017e8:	681b      	ldr	r3, [r3, #0]
 80017ea:	2100      	movs	r1, #0
 80017ec:	4618      	mov	r0, r3
 80017ee:	f7ff fb03 	bl	8000df8 <LL_ADC_GetOffsetChannel>
 80017f2:	4603      	mov	r3, r0
 80017f4:	f3c3 0312 	ubfx	r3, r3, #0, #19
 80017f8:	2b00      	cmp	r3, #0
 80017fa:	d10a      	bne.n	8001812 <HAL_ADC_ConfigChannel+0x17e>
 80017fc:	687b      	ldr	r3, [r7, #4]
 80017fe:	681b      	ldr	r3, [r3, #0]
 8001800:	2100      	movs	r1, #0
 8001802:	4618      	mov	r0, r3
 8001804:	f7ff faf8 	bl	8000df8 <LL_ADC_GetOffsetChannel>
 8001808:	4603      	mov	r3, r0
 800180a:	0e9b      	lsrs	r3, r3, #26
 800180c:	f003 021f 	and.w	r2, r3, #31
 8001810:	e01e      	b.n	8001850 <HAL_ADC_ConfigChannel+0x1bc>
 8001812:	687b      	ldr	r3, [r7, #4]
 8001814:	681b      	ldr	r3, [r3, #0]
 8001816:	2100      	movs	r1, #0
 8001818:	4618      	mov	r0, r3
 800181a:	f7ff faed 	bl	8000df8 <LL_ADC_GetOffsetChannel>
 800181e:	4603      	mov	r3, r0
 8001820:	f8c7 30bc 	str.w	r3, [r7, #188]	; 0xbc
 8001824:	f8d7 30bc 	ldr.w	r3, [r7, #188]	; 0xbc
 8001828:	fa93 f3a3 	rbit	r3, r3
 800182c:	f8c7 30b8 	str.w	r3, [r7, #184]	; 0xb8
 8001830:	f8d7 30b8 	ldr.w	r3, [r7, #184]	; 0xb8
 8001834:	f8c7 30c0 	str.w	r3, [r7, #192]	; 0xc0
 8001838:	f8d7 30c0 	ldr.w	r3, [r7, #192]	; 0xc0
 800183c:	2b00      	cmp	r3, #0
 800183e:	d101      	bne.n	8001844 <HAL_ADC_ConfigChannel+0x1b0>
 8001840:	2320      	movs	r3, #32
 8001842:	e004      	b.n	800184e <HAL_ADC_ConfigChannel+0x1ba>
 8001844:	f8d7 30c0 	ldr.w	r3, [r7, #192]	; 0xc0
 8001848:	fab3 f383 	clz	r3, r3
 800184c:	b2db      	uxtb	r3, r3
 800184e:	461a      	mov	r2, r3
 8001850:	683b      	ldr	r3, [r7, #0]
 8001852:	681b      	ldr	r3, [r3, #0]
 8001854:	f3c3 0312 	ubfx	r3, r3, #0, #19
 8001858:	2b00      	cmp	r3, #0
 800185a:	d105      	bne.n	8001868 <HAL_ADC_ConfigChannel+0x1d4>
 800185c:	683b      	ldr	r3, [r7, #0]
 800185e:	681b      	ldr	r3, [r3, #0]
 8001860:	0e9b      	lsrs	r3, r3, #26
 8001862:	f003 031f 	and.w	r3, r3, #31
 8001866:	e018      	b.n	800189a <HAL_ADC_ConfigChannel+0x206>
 8001868:	683b      	ldr	r3, [r7, #0]
 800186a:	681b      	ldr	r3, [r3, #0]
 800186c:	f8c7 30b0 	str.w	r3, [r7, #176]	; 0xb0
 8001870:	f8d7 30b0 	ldr.w	r3, [r7, #176]	; 0xb0
 8001874:	fa93 f3a3 	rbit	r3, r3
 8001878:	f8c7 30ac 	str.w	r3, [r7, #172]	; 0xac
 800187c:	f8d7 30ac 	ldr.w	r3, [r7, #172]	; 0xac
 8001880:	f8c7 30b4 	str.w	r3, [r7, #180]	; 0xb4
 8001884:	f8d7 30b4 	ldr.w	r3, [r7, #180]	; 0xb4
 8001888:	2b00      	cmp	r3, #0
 800188a:	d101      	bne.n	8001890 <HAL_ADC_ConfigChannel+0x1fc>
 800188c:	2320      	movs	r3, #32
 800188e:	e004      	b.n	800189a <HAL_ADC_ConfigChannel+0x206>
 8001890:	f8d7 30b4 	ldr.w	r3, [r7, #180]	; 0xb4
 8001894:	fab3 f383 	clz	r3, r3
 8001898:	b2db      	uxtb	r3, r3
 800189a:	429a      	cmp	r2, r3
 800189c:	d106      	bne.n	80018ac <HAL_ADC_ConfigChannel+0x218>
 800189e:	687b      	ldr	r3, [r7, #4]
 80018a0:	681b      	ldr	r3, [r3, #0]
 80018a2:	2200      	movs	r2, #0
 80018a4:	2100      	movs	r1, #0
 80018a6:	4618      	mov	r0, r3
 80018a8:	f7ff fabc 	bl	8000e24 <LL_ADC_SetOffsetState>
 80018ac:	687b      	ldr	r3, [r7, #4]
 80018ae:	681b      	ldr	r3, [r3, #0]
 80018b0:	2101      	movs	r1, #1
 80018b2:	4618      	mov	r0, r3
 80018b4:	f7ff faa0 	bl	8000df8 <LL_ADC_GetOffsetChannel>
 80018b8:	4603      	mov	r3, r0
 80018ba:	f3c3 0312 	ubfx	r3, r3, #0, #19
 80018be:	2b00      	cmp	r3, #0
 80018c0:	d10a      	bne.n	80018d8 <HAL_ADC_ConfigChannel+0x244>
 80018c2:	687b      	ldr	r3, [r7, #4]
 80018c4:	681b      	ldr	r3, [r3, #0]
 80018c6:	2101      	movs	r1, #1
 80018c8:	4618      	mov	r0, r3
 80018ca:	f7ff fa95 	bl	8000df8 <LL_ADC_GetOffsetChannel>
 80018ce:	4603      	mov	r3, r0
 80018d0:	0e9b      	lsrs	r3, r3, #26
 80018d2:	f003 021f 	and.w	r2, r3, #31
 80018d6:	e01e      	b.n	8001916 <HAL_ADC_ConfigChannel+0x282>
 80018d8:	687b      	ldr	r3, [r7, #4]
 80018da:	681b      	ldr	r3, [r3, #0]
 80018dc:	2101      	movs	r1, #1
 80018de:	4618      	mov	r0, r3
 80018e0:	f7ff fa8a 	bl	8000df8 <LL_ADC_GetOffsetChannel>
 80018e4:	4603      	mov	r3, r0
 80018e6:	f8c7 30a4 	str.w	r3, [r7, #164]	; 0xa4
 80018ea:	f8d7 30a4 	ldr.w	r3, [r7, #164]	; 0xa4
 80018ee:	fa93 f3a3 	rbit	r3, r3
 80018f2:	f8c7 30a0 	str.w	r3, [r7, #160]	; 0xa0
 80018f6:	f8d7 30a0 	ldr.w	r3, [r7, #160]	; 0xa0
 80018fa:	f8c7 30a8 	str.w	r3, [r7, #168]	; 0xa8
 80018fe:	f8d7 30a8 	ldr.w	r3, [r7, #168]	; 0xa8
 8001902:	2b00      	cmp	r3, #0
 8001904:	d101      	bne.n	800190a <HAL_ADC_ConfigChannel+0x276>
 8001906:	2320      	movs	r3, #32
 8001908:	e004      	b.n	8001914 <HAL_ADC_ConfigChannel+0x280>
 800190a:	f8d7 30a8 	ldr.w	r3, [r7, #168]	; 0xa8
 800190e:	fab3 f383 	clz	r3, r3
 8001912:	b2db      	uxtb	r3, r3
 8001914:	461a      	mov	r2, r3
 8001916:	683b      	ldr	r3, [r7, #0]
 8001918:	681b      	ldr	r3, [r3, #0]
 800191a:	f3c3 0312 	ubfx	r3, r3, #0, #19
 800191e:	2b00      	cmp	r3, #0
 8001920:	d105      	bne.n	800192e <HAL_ADC_ConfigChannel+0x29a>
 8001922:	683b      	ldr	r3, [r7, #0]
 8001924:	681b      	ldr	r3, [r3, #0]
 8001926:	0e9b      	lsrs	r3, r3, #26
 8001928:	f003 031f 	and.w	r3, r3, #31
 800192c:	e018      	b.n	8001960 <HAL_ADC_ConfigChannel+0x2cc>
 800192e:	683b      	ldr	r3, [r7, #0]
 8001930:	681b      	ldr	r3, [r3, #0]
 8001932:	f8c7 3098 	str.w	r3, [r7, #152]	; 0x98
 8001936:	f8d7 3098 	ldr.w	r3, [r7, #152]	; 0x98
 800193a:	fa93 f3a3 	rbit	r3, r3
 800193e:	f8c7 3094 	str.w	r3, [r7, #148]	; 0x94
 8001942:	f8d7 3094 	ldr.w	r3, [r7, #148]	; 0x94
 8001946:	f8c7 309c 	str.w	r3, [r7, #156]	; 0x9c
 800194a:	f8d7 309c 	ldr.w	r3, [r7, #156]	; 0x9c
 800194e:	2b00      	cmp	r3, #0
 8001950:	d101      	bne.n	8001956 <HAL_ADC_ConfigChannel+0x2c2>
 8001952:	2320      	movs	r3, #32
 8001954:	e004      	b.n	8001960 <HAL_ADC_ConfigChannel+0x2cc>
 8001956:	f8d7 309c 	ldr.w	r3, [r7, #156]	; 0x9c
 800195a:	fab3 f383 	clz	r3, r3
 800195e:	b2db      	uxtb	r3, r3
 8001960:	429a      	cmp	r2, r3
 8001962:	d106      	bne.n	8001972 <HAL_ADC_ConfigChannel+0x2de>
 8001964:	687b      	ldr	r3, [r7, #4]
 8001966:	681b      	ldr	r3, [r3, #0]
 8001968:	2200      	movs	r2, #0
 800196a:	2101      	movs	r1, #1
 800196c:	4618      	mov	r0, r3
 800196e:	f7ff fa59 	bl	8000e24 <LL_ADC_SetOffsetState>
 8001972:	687b      	ldr	r3, [r7, #4]
 8001974:	681b      	ldr	r3, [r3, #0]
 8001976:	2102      	movs	r1, #2
 8001978:	4618      	mov	r0, r3
 800197a:	f7ff fa3d 	bl	8000df8 <LL_ADC_GetOffsetChannel>
 800197e:	4603      	mov	r3, r0
 8001980:	f3c3 0312 	ubfx	r3, r3, #0, #19
 8001984:	2b00      	cmp	r3, #0
 8001986:	d10a      	bne.n	800199e <HAL_ADC_ConfigChannel+0x30a>
 8001988:	687b      	ldr	r3, [r7, #4]
 800198a:	681b      	ldr	r3, [r3, #0]
 800198c:	2102      	movs	r1, #2
 800198e:	4618      	mov	r0, r3
 8001990:	f7ff fa32 	bl	8000df8 <LL_ADC_GetOffsetChannel>
 8001994:	4603      	mov	r3, r0
 8001996:	0e9b      	lsrs	r3, r3, #26
 8001998:	f003 021f 	and.w	r2, r3, #31
 800199c:	e01e      	b.n	80019dc <HAL_ADC_ConfigChannel+0x348>
 800199e:	687b      	ldr	r3, [r7, #4]
 80019a0:	681b      	ldr	r3, [r3, #0]
 80019a2:	2102      	movs	r1, #2
 80019a4:	4618      	mov	r0, r3
 80019a6:	f7ff fa27 	bl	8000df8 <LL_ADC_GetOffsetChannel>
 80019aa:	4603      	mov	r3, r0
 80019ac:	f8c7 308c 	str.w	r3, [r7, #140]	; 0x8c
 80019b0:	f8d7 308c 	ldr.w	r3, [r7, #140]	; 0x8c
 80019b4:	fa93 f3a3 	rbit	r3, r3
 80019b8:	f8c7 3088 	str.w	r3, [r7, #136]	; 0x88
 80019bc:	f8d7 3088 	ldr.w	r3, [r7, #136]	; 0x88
 80019c0:	f8c7 3090 	str.w	r3, [r7, #144]	; 0x90
 80019c4:	f8d7 3090 	ldr.w	r3, [r7, #144]	; 0x90
 80019c8:	2b00      	cmp	r3, #0
 80019ca:	d101      	bne.n	80019d0 <HAL_ADC_ConfigChannel+0x33c>
 80019cc:	2320      	movs	r3, #32
 80019ce:	e004      	b.n	80019da <HAL_ADC_ConfigChannel+0x346>
 80019d0:	f8d7 3090 	ldr.w	r3, [r7, #144]	; 0x90
 80019d4:	fab3 f383 	clz	r3, r3
 80019d8:	b2db      	uxtb	r3, r3
 80019da:	461a      	mov	r2, r3
 80019dc:	683b      	ldr	r3, [r7, #0]
 80019de:	681b      	ldr	r3, [r3, #0]
 80019e0:	f3c3 0312 	ubfx	r3, r3, #0, #19
 80019e4:	2b00      	cmp	r3, #0
 80019e6:	d105      	bne.n	80019f4 <HAL_ADC_ConfigChannel+0x360>
 80019e8:	683b      	ldr	r3, [r7, #0]
 80019ea:	681b      	ldr	r3, [r3, #0]
 80019ec:	0e9b      	lsrs	r3, r3, #26
 80019ee:	f003 031f 	and.w	r3, r3, #31
 80019f2:	e016      	b.n	8001a22 <HAL_ADC_ConfigChannel+0x38e>
 80019f4:	683b      	ldr	r3, [r7, #0]
 80019f6:	681b      	ldr	r3, [r3, #0]
 80019f8:	f8c7 3080 	str.w	r3, [r7, #128]	; 0x80
 80019fc:	f8d7 3080 	ldr.w	r3, [r7, #128]	; 0x80
 8001a00:	fa93 f3a3 	rbit	r3, r3
 8001a04:	67fb      	str	r3, [r7, #124]	; 0x7c
 8001a06:	6ffb      	ldr	r3, [r7, #124]	; 0x7c
 8001a08:	f8c7 3084 	str.w	r3, [r7, #132]	; 0x84
 8001a0c:	f8d7 3084 	ldr.w	r3, [r7, #132]	; 0x84
 8001a10:	2b00      	cmp	r3, #0
 8001a12:	d101      	bne.n	8001a18 <HAL_ADC_ConfigChannel+0x384>
 8001a14:	2320      	movs	r3, #32
 8001a16:	e004      	b.n	8001a22 <HAL_ADC_ConfigChannel+0x38e>
 8001a18:	f8d7 3084 	ldr.w	r3, [r7, #132]	; 0x84
 8001a1c:	fab3 f383 	clz	r3, r3
 8001a20:	b2db      	uxtb	r3, r3
 8001a22:	429a      	cmp	r2, r3
 8001a24:	d106      	bne.n	8001a34 <HAL_ADC_ConfigChannel+0x3a0>
 8001a26:	687b      	ldr	r3, [r7, #4]
 8001a28:	681b      	ldr	r3, [r3, #0]
 8001a2a:	2200      	movs	r2, #0
 8001a2c:	2102      	movs	r1, #2
 8001a2e:	4618      	mov	r0, r3
 8001a30:	f7ff f9f8 	bl	8000e24 <LL_ADC_SetOffsetState>
 8001a34:	687b      	ldr	r3, [r7, #4]
 8001a36:	681b      	ldr	r3, [r3, #0]
 8001a38:	2103      	movs	r1, #3
 8001a3a:	4618      	mov	r0, r3
 8001a3c:	f7ff f9dc 	bl	8000df8 <LL_ADC_GetOffsetChannel>
 8001a40:	4603      	mov	r3, r0
 8001a42:	f3c3 0312 	ubfx	r3, r3, #0, #19
 8001a46:	2b00      	cmp	r3, #0
 8001a48:	d10a      	bne.n	8001a60 <HAL_ADC_ConfigChannel+0x3cc>
 8001a4a:	687b      	ldr	r3, [r7, #4]
 8001a4c:	681b      	ldr	r3, [r3, #0]
 8001a4e:	2103      	movs	r1, #3
 8001a50:	4618      	mov	r0, r3
 8001a52:	f7ff f9d1 	bl	8000df8 <LL_ADC_GetOffsetChannel>
 8001a56:	4603      	mov	r3, r0
 8001a58:	0e9b      	lsrs	r3, r3, #26
 8001a5a:	f003 021f 	and.w	r2, r3, #31
 8001a5e:	e017      	b.n	8001a90 <HAL_ADC_ConfigChannel+0x3fc>
 8001a60:	687b      	ldr	r3, [r7, #4]
 8001a62:	681b      	ldr	r3, [r3, #0]
 8001a64:	2103      	movs	r1, #3
 8001a66:	4618      	mov	r0, r3
 8001a68:	f7ff f9c6 	bl	8000df8 <LL_ADC_GetOffsetChannel>
 8001a6c:	4603      	mov	r3, r0
 8001a6e:	677b      	str	r3, [r7, #116]	; 0x74
 8001a70:	6f7b      	ldr	r3, [r7, #116]	; 0x74
 8001a72:	fa93 f3a3 	rbit	r3, r3
 8001a76:	673b      	str	r3, [r7, #112]	; 0x70
 8001a78:	6f3b      	ldr	r3, [r7, #112]	; 0x70
 8001a7a:	67bb      	str	r3, [r7, #120]	; 0x78
 8001a7c:	6fbb      	ldr	r3, [r7, #120]	; 0x78
 8001a7e:	2b00      	cmp	r3, #0
 8001a80:	d101      	bne.n	8001a86 <HAL_ADC_ConfigChannel+0x3f2>
 8001a82:	2320      	movs	r3, #32
 8001a84:	e003      	b.n	8001a8e <HAL_ADC_ConfigChannel+0x3fa>
 8001a86:	6fbb      	ldr	r3, [r7, #120]	; 0x78
 8001a88:	fab3 f383 	clz	r3, r3
 8001a8c:	b2db      	uxtb	r3, r3
 8001a8e:	461a      	mov	r2, r3
 8001a90:	683b      	ldr	r3, [r7, #0]
 8001a92:	681b      	ldr	r3, [r3, #0]
 8001a94:	f3c3 0312 	ubfx	r3, r3, #0, #19
 8001a98:	2b00      	cmp	r3, #0
 8001a9a:	d105      	bne.n	8001aa8 <HAL_ADC_ConfigChannel+0x414>
 8001a9c:	683b      	ldr	r3, [r7, #0]
 8001a9e:	681b      	ldr	r3, [r3, #0]
 8001aa0:	0e9b      	lsrs	r3, r3, #26
 8001aa2:	f003 031f 	and.w	r3, r3, #31
 8001aa6:	e011      	b.n	8001acc <HAL_ADC_ConfigChannel+0x438>
 8001aa8:	683b      	ldr	r3, [r7, #0]
 8001aaa:	681b      	ldr	r3, [r3, #0]
 8001aac:	66bb      	str	r3, [r7, #104]	; 0x68
 8001aae:	6ebb      	ldr	r3, [r7, #104]	; 0x68
 8001ab0:	fa93 f3a3 	rbit	r3, r3
 8001ab4:	667b      	str	r3, [r7, #100]	; 0x64
 8001ab6:	6e7b      	ldr	r3, [r7, #100]	; 0x64
 8001ab8:	66fb      	str	r3, [r7, #108]	; 0x6c
 8001aba:	6efb      	ldr	r3, [r7, #108]	; 0x6c
 8001abc:	2b00      	cmp	r3, #0
 8001abe:	d101      	bne.n	8001ac4 <HAL_ADC_ConfigChannel+0x430>
 8001ac0:	2320      	movs	r3, #32
 8001ac2:	e003      	b.n	8001acc <HAL_ADC_ConfigChannel+0x438>
 8001ac4:	6efb      	ldr	r3, [r7, #108]	; 0x6c
 8001ac6:	fab3 f383 	clz	r3, r3
 8001aca:	b2db      	uxtb	r3, r3
 8001acc:	429a      	cmp	r2, r3
 8001ace:	d106      	bne.n	8001ade <HAL_ADC_ConfigChannel+0x44a>
 8001ad0:	687b      	ldr	r3, [r7, #4]
 8001ad2:	681b      	ldr	r3, [r3, #0]
 8001ad4:	2200      	movs	r2, #0
 8001ad6:	2103      	movs	r1, #3
 8001ad8:	4618      	mov	r0, r3
 8001ada:	f7ff f9a3 	bl	8000e24 <LL_ADC_SetOffsetState>
 8001ade:	687b      	ldr	r3, [r7, #4]
 8001ae0:	681b      	ldr	r3, [r3, #0]
 8001ae2:	4618      	mov	r0, r3
 8001ae4:	f7ff fad0 	bl	8001088 <LL_ADC_IsEnabled>
 8001ae8:	4603      	mov	r3, r0
 8001aea:	2b00      	cmp	r3, #0
 8001aec:	f040 8140 	bne.w	8001d70 <HAL_ADC_ConfigChannel+0x6dc>
 8001af0:	687b      	ldr	r3, [r7, #4]
 8001af2:	6818      	ldr	r0, [r3, #0]
 8001af4:	683b      	ldr	r3, [r7, #0]
 8001af6:	6819      	ldr	r1, [r3, #0]
 8001af8:	683b      	ldr	r3, [r7, #0]
 8001afa:	68db      	ldr	r3, [r3, #12]
 8001afc:	461a      	mov	r2, r3
 8001afe:	f7ff fa29 	bl	8000f54 <LL_ADC_SetChannelSingleDiff>
 8001b02:	683b      	ldr	r3, [r7, #0]
 8001b04:	68db      	ldr	r3, [r3, #12]
 8001b06:	4a8f      	ldr	r2, [pc, #572]	; (8001d44 <HAL_ADC_ConfigChannel+0x6b0>)
 8001b08:	4293      	cmp	r3, r2
 8001b0a:	f040 8131 	bne.w	8001d70 <HAL_ADC_ConfigChannel+0x6dc>
 8001b0e:	687b      	ldr	r3, [r7, #4]
 8001b10:	6818      	ldr	r0, [r3, #0]
 8001b12:	683b      	ldr	r3, [r7, #0]
 8001b14:	681b      	ldr	r3, [r3, #0]
 8001b16:	f3c3 0312 	ubfx	r3, r3, #0, #19
 8001b1a:	2b00      	cmp	r3, #0
 8001b1c:	d10b      	bne.n	8001b36 <HAL_ADC_ConfigChannel+0x4a2>
 8001b1e:	683b      	ldr	r3, [r7, #0]
 8001b20:	681b      	ldr	r3, [r3, #0]
 8001b22:	0e9b      	lsrs	r3, r3, #26
 8001b24:	3301      	adds	r3, #1
 8001b26:	f003 031f 	and.w	r3, r3, #31
 8001b2a:	2b09      	cmp	r3, #9
 8001b2c:	bf94      	ite	ls
 8001b2e:	2301      	movls	r3, #1
 8001b30:	2300      	movhi	r3, #0
 8001b32:	b2db      	uxtb	r3, r3
 8001b34:	e019      	b.n	8001b6a <HAL_ADC_ConfigChannel+0x4d6>
 8001b36:	683b      	ldr	r3, [r7, #0]
 8001b38:	681b      	ldr	r3, [r3, #0]
 8001b3a:	65fb      	str	r3, [r7, #92]	; 0x5c
 8001b3c:	6dfb      	ldr	r3, [r7, #92]	; 0x5c
 8001b3e:	fa93 f3a3 	rbit	r3, r3
 8001b42:	65bb      	str	r3, [r7, #88]	; 0x58
 8001b44:	6dbb      	ldr	r3, [r7, #88]	; 0x58
 8001b46:	663b      	str	r3, [r7, #96]	; 0x60
 8001b48:	6e3b      	ldr	r3, [r7, #96]	; 0x60
 8001b4a:	2b00      	cmp	r3, #0
 8001b4c:	d101      	bne.n	8001b52 <HAL_ADC_ConfigChannel+0x4be>
 8001b4e:	2320      	movs	r3, #32
 8001b50:	e003      	b.n	8001b5a <HAL_ADC_ConfigChannel+0x4c6>
 8001b52:	6e3b      	ldr	r3, [r7, #96]	; 0x60
 8001b54:	fab3 f383 	clz	r3, r3
 8001b58:	b2db      	uxtb	r3, r3
 8001b5a:	3301      	adds	r3, #1
 8001b5c:	f003 031f 	and.w	r3, r3, #31
 8001b60:	2b09      	cmp	r3, #9
 8001b62:	bf94      	ite	ls
 8001b64:	2301      	movls	r3, #1
 8001b66:	2300      	movhi	r3, #0
 8001b68:	b2db      	uxtb	r3, r3
 8001b6a:	2b00      	cmp	r3, #0
 8001b6c:	d079      	beq.n	8001c62 <HAL_ADC_ConfigChannel+0x5ce>
 8001b6e:	683b      	ldr	r3, [r7, #0]
 8001b70:	681b      	ldr	r3, [r3, #0]
 8001b72:	f3c3 0312 	ubfx	r3, r3, #0, #19
 8001b76:	2b00      	cmp	r3, #0
 8001b78:	d107      	bne.n	8001b8a <HAL_ADC_ConfigChannel+0x4f6>
 8001b7a:	683b      	ldr	r3, [r7, #0]
 8001b7c:	681b      	ldr	r3, [r3, #0]
 8001b7e:	0e9b      	lsrs	r3, r3, #26
 8001b80:	3301      	adds	r3, #1
 8001b82:	069b      	lsls	r3, r3, #26
 8001b84:	f003 42f8 	and.w	r2, r3, #2080374784	; 0x7c000000
 8001b88:	e015      	b.n	8001bb6 <HAL_ADC_ConfigChannel+0x522>
 8001b8a:	683b      	ldr	r3, [r7, #0]
 8001b8c:	681b      	ldr	r3, [r3, #0]
 8001b8e:	653b      	str	r3, [r7, #80]	; 0x50
 8001b90:	6d3b      	ldr	r3, [r7, #80]	; 0x50
 8001b92:	fa93 f3a3 	rbit	r3, r3
 8001b96:	64fb      	str	r3, [r7, #76]	; 0x4c
 8001b98:	6cfb      	ldr	r3, [r7, #76]	; 0x4c
 8001b9a:	657b      	str	r3, [r7, #84]	; 0x54
 8001b9c:	6d7b      	ldr	r3, [r7, #84]	; 0x54
 8001b9e:	2b00      	cmp	r3, #0
 8001ba0:	d101      	bne.n	8001ba6 <HAL_ADC_ConfigChannel+0x512>
 8001ba2:	2320      	movs	r3, #32
 8001ba4:	e003      	b.n	8001bae <HAL_ADC_ConfigChannel+0x51a>
 8001ba6:	6d7b      	ldr	r3, [r7, #84]	; 0x54
 8001ba8:	fab3 f383 	clz	r3, r3
 8001bac:	b2db      	uxtb	r3, r3
 8001bae:	3301      	adds	r3, #1
 8001bb0:	069b      	lsls	r3, r3, #26
 8001bb2:	f003 42f8 	and.w	r2, r3, #2080374784	; 0x7c000000
 8001bb6:	683b      	ldr	r3, [r7, #0]
 8001bb8:	681b      	ldr	r3, [r3, #0]
 8001bba:	f3c3 0312 	ubfx	r3, r3, #0, #19
 8001bbe:	2b00      	cmp	r3, #0
 8001bc0:	d109      	bne.n	8001bd6 <HAL_ADC_ConfigChannel+0x542>
 8001bc2:	683b      	ldr	r3, [r7, #0]
 8001bc4:	681b      	ldr	r3, [r3, #0]
 8001bc6:	0e9b      	lsrs	r3, r3, #26
 8001bc8:	3301      	adds	r3, #1
 8001bca:	f003 031f 	and.w	r3, r3, #31
 8001bce:	2101      	movs	r1, #1
 8001bd0:	fa01 f303 	lsl.w	r3, r1, r3
 8001bd4:	e017      	b.n	8001c06 <HAL_ADC_ConfigChannel+0x572>
 8001bd6:	683b      	ldr	r3, [r7, #0]
 8001bd8:	681b      	ldr	r3, [r3, #0]
 8001bda:	647b      	str	r3, [r7, #68]	; 0x44
 8001bdc:	6c7b      	ldr	r3, [r7, #68]	; 0x44
 8001bde:	fa93 f3a3 	rbit	r3, r3
 8001be2:	643b      	str	r3, [r7, #64]	; 0x40
 8001be4:	6c3b      	ldr	r3, [r7, #64]	; 0x40
 8001be6:	64bb      	str	r3, [r7, #72]	; 0x48
 8001be8:	6cbb      	ldr	r3, [r7, #72]	; 0x48
 8001bea:	2b00      	cmp	r3, #0
 8001bec:	d101      	bne.n	8001bf2 <HAL_ADC_ConfigChannel+0x55e>
 8001bee:	2320      	movs	r3, #32
 8001bf0:	e003      	b.n	8001bfa <HAL_ADC_ConfigChannel+0x566>
 8001bf2:	6cbb      	ldr	r3, [r7, #72]	; 0x48
 8001bf4:	fab3 f383 	clz	r3, r3
 8001bf8:	b2db      	uxtb	r3, r3
 8001bfa:	3301      	adds	r3, #1
 8001bfc:	f003 031f 	and.w	r3, r3, #31
 8001c00:	2101      	movs	r1, #1
 8001c02:	fa01 f303 	lsl.w	r3, r1, r3
 8001c06:	ea42 0103 	orr.w	r1, r2, r3
 8001c0a:	683b      	ldr	r3, [r7, #0]
 8001c0c:	681b      	ldr	r3, [r3, #0]
 8001c0e:	f3c3 0312 	ubfx	r3, r3, #0, #19
 8001c12:	2b00      	cmp	r3, #0
 8001c14:	d10a      	bne.n	8001c2c <HAL_ADC_ConfigChannel+0x598>
 8001c16:	683b      	ldr	r3, [r7, #0]
 8001c18:	681b      	ldr	r3, [r3, #0]
 8001c1a:	0e9b      	lsrs	r3, r3, #26
 8001c1c:	3301      	adds	r3, #1
 8001c1e:	f003 021f 	and.w	r2, r3, #31
 8001c22:	4613      	mov	r3, r2
 8001c24:	005b      	lsls	r3, r3, #1
 8001c26:	4413      	add	r3, r2
 8001c28:	051b      	lsls	r3, r3, #20
 8001c2a:	e018      	b.n	8001c5e <HAL_ADC_ConfigChannel+0x5ca>
 8001c2c:	683b      	ldr	r3, [r7, #0]
 8001c2e:	681b      	ldr	r3, [r3, #0]
 8001c30:	63bb      	str	r3, [r7, #56]	; 0x38
 8001c32:	6bbb      	ldr	r3, [r7, #56]	; 0x38
 8001c34:	fa93 f3a3 	rbit	r3, r3
 8001c38:	637b      	str	r3, [r7, #52]	; 0x34
 8001c3a:	6b7b      	ldr	r3, [r7, #52]	; 0x34
 8001c3c:	63fb      	str	r3, [r7, #60]	; 0x3c
 8001c3e:	6bfb      	ldr	r3, [r7, #60]	; 0x3c
 8001c40:	2b00      	cmp	r3, #0
 8001c42:	d101      	bne.n	8001c48 <HAL_ADC_ConfigChannel+0x5b4>
 8001c44:	2320      	movs	r3, #32
 8001c46:	e003      	b.n	8001c50 <HAL_ADC_ConfigChannel+0x5bc>
 8001c48:	6bfb      	ldr	r3, [r7, #60]	; 0x3c
 8001c4a:	fab3 f383 	clz	r3, r3
 8001c4e:	b2db      	uxtb	r3, r3
 8001c50:	3301      	adds	r3, #1
 8001c52:	f003 021f 	and.w	r2, r3, #31
 8001c56:	4613      	mov	r3, r2
 8001c58:	005b      	lsls	r3, r3, #1
 8001c5a:	4413      	add	r3, r2
 8001c5c:	051b      	lsls	r3, r3, #20
 8001c5e:	430b      	orrs	r3, r1
 8001c60:	e081      	b.n	8001d66 <HAL_ADC_ConfigChannel+0x6d2>
 8001c62:	683b      	ldr	r3, [r7, #0]
 8001c64:	681b      	ldr	r3, [r3, #0]
 8001c66:	f3c3 0312 	ubfx	r3, r3, #0, #19
 8001c6a:	2b00      	cmp	r3, #0
 8001c6c:	d107      	bne.n	8001c7e <HAL_ADC_ConfigChannel+0x5ea>
 8001c6e:	683b      	ldr	r3, [r7, #0]
 8001c70:	681b      	ldr	r3, [r3, #0]
 8001c72:	0e9b      	lsrs	r3, r3, #26
 8001c74:	3301      	adds	r3, #1
 8001c76:	069b      	lsls	r3, r3, #26
 8001c78:	f003 42f8 	and.w	r2, r3, #2080374784	; 0x7c000000
 8001c7c:	e015      	b.n	8001caa <HAL_ADC_ConfigChannel+0x616>
 8001c7e:	683b      	ldr	r3, [r7, #0]
 8001c80:	681b      	ldr	r3, [r3, #0]
 8001c82:	62fb      	str	r3, [r7, #44]	; 0x2c
 8001c84:	6afb      	ldr	r3, [r7, #44]	; 0x2c
 8001c86:	fa93 f3a3 	rbit	r3, r3
 8001c8a:	62bb      	str	r3, [r7, #40]	; 0x28
 8001c8c:	6abb      	ldr	r3, [r7, #40]	; 0x28
 8001c8e:	633b      	str	r3, [r7, #48]	; 0x30
 8001c90:	6b3b      	ldr	r3, [r7, #48]	; 0x30
 8001c92:	2b00      	cmp	r3, #0
 8001c94:	d101      	bne.n	8001c9a <HAL_ADC_ConfigChannel+0x606>
 8001c96:	2320      	movs	r3, #32
 8001c98:	e003      	b.n	8001ca2 <HAL_ADC_ConfigChannel+0x60e>
 8001c9a:	6b3b      	ldr	r3, [r7, #48]	; 0x30
 8001c9c:	fab3 f383 	clz	r3, r3
 8001ca0:	b2db      	uxtb	r3, r3
 8001ca2:	3301      	adds	r3, #1
 8001ca4:	069b      	lsls	r3, r3, #26
 8001ca6:	f003 42f8 	and.w	r2, r3, #2080374784	; 0x7c000000
 8001caa:	683b      	ldr	r3, [r7, #0]
 8001cac:	681b      	ldr	r3, [r3, #0]
 8001cae:	f3c3 0312 	ubfx	r3, r3, #0, #19
 8001cb2:	2b00      	cmp	r3, #0
 8001cb4:	d109      	bne.n	8001cca <HAL_ADC_ConfigChannel+0x636>
 8001cb6:	683b      	ldr	r3, [r7, #0]
 8001cb8:	681b      	ldr	r3, [r3, #0]
 8001cba:	0e9b      	lsrs	r3, r3, #26
 8001cbc:	3301      	adds	r3, #1
 8001cbe:	f003 031f 	and.w	r3, r3, #31
 8001cc2:	2101      	movs	r1, #1
 8001cc4:	fa01 f303 	lsl.w	r3, r1, r3
 8001cc8:	e017      	b.n	8001cfa <HAL_ADC_ConfigChannel+0x666>
 8001cca:	683b      	ldr	r3, [r7, #0]
 8001ccc:	681b      	ldr	r3, [r3, #0]
 8001cce:	623b      	str	r3, [r7, #32]
 8001cd0:	6a3b      	ldr	r3, [r7, #32]
 8001cd2:	fa93 f3a3 	rbit	r3, r3
 8001cd6:	61fb      	str	r3, [r7, #28]
 8001cd8:	69fb      	ldr	r3, [r7, #28]
 8001cda:	627b      	str	r3, [r7, #36]	; 0x24
 8001cdc:	6a7b      	ldr	r3, [r7, #36]	; 0x24
 8001cde:	2b00      	cmp	r3, #0
 8001ce0:	d101      	bne.n	8001ce6 <HAL_ADC_ConfigChannel+0x652>
 8001ce2:	2320      	movs	r3, #32
 8001ce4:	e003      	b.n	8001cee <HAL_ADC_ConfigChannel+0x65a>
 8001ce6:	6a7b      	ldr	r3, [r7, #36]	; 0x24
 8001ce8:	fab3 f383 	clz	r3, r3
 8001cec:	b2db      	uxtb	r3, r3
 8001cee:	3301      	adds	r3, #1
 8001cf0:	f003 031f 	and.w	r3, r3, #31
 8001cf4:	2101      	movs	r1, #1
 8001cf6:	fa01 f303 	lsl.w	r3, r1, r3
 8001cfa:	ea42 0103 	orr.w	r1, r2, r3
 8001cfe:	683b      	ldr	r3, [r7, #0]
 8001d00:	681b      	ldr	r3, [r3, #0]
 8001d02:	f3c3 0312 	ubfx	r3, r3, #0, #19
 8001d06:	2b00      	cmp	r3, #0
 8001d08:	d10d      	bne.n	8001d26 <HAL_ADC_ConfigChannel+0x692>
 8001d0a:	683b      	ldr	r3, [r7, #0]
 8001d0c:	681b      	ldr	r3, [r3, #0]
 8001d0e:	0e9b      	lsrs	r3, r3, #26
 8001d10:	3301      	adds	r3, #1
 8001d12:	f003 021f 	and.w	r2, r3, #31
 8001d16:	4613      	mov	r3, r2
 8001d18:	005b      	lsls	r3, r3, #1
 8001d1a:	4413      	add	r3, r2
 8001d1c:	3b1e      	subs	r3, #30
 8001d1e:	051b      	lsls	r3, r3, #20
 8001d20:	f043 7300 	orr.w	r3, r3, #33554432	; 0x2000000
 8001d24:	e01e      	b.n	8001d64 <HAL_ADC_ConfigChannel+0x6d0>
 8001d26:	683b      	ldr	r3, [r7, #0]
 8001d28:	681b      	ldr	r3, [r3, #0]
 8001d2a:	617b      	str	r3, [r7, #20]
 8001d2c:	697b      	ldr	r3, [r7, #20]
 8001d2e:	fa93 f3a3 	rbit	r3, r3
 8001d32:	613b      	str	r3, [r7, #16]
 8001d34:	693b      	ldr	r3, [r7, #16]
 8001d36:	61bb      	str	r3, [r7, #24]
 8001d38:	69bb      	ldr	r3, [r7, #24]
 8001d3a:	2b00      	cmp	r3, #0
 8001d3c:	d104      	bne.n	8001d48 <HAL_ADC_ConfigChannel+0x6b4>
 8001d3e:	2320      	movs	r3, #32
 8001d40:	e006      	b.n	8001d50 <HAL_ADC_ConfigChannel+0x6bc>
 8001d42:	bf00      	nop
 8001d44:	407f0000 	.word	0x407f0000
 8001d48:	69bb      	ldr	r3, [r7, #24]
 8001d4a:	fab3 f383 	clz	r3, r3
 8001d4e:	b2db      	uxtb	r3, r3
 8001d50:	3301      	adds	r3, #1
 8001d52:	f003 021f 	and.w	r2, r3, #31
 8001d56:	4613      	mov	r3, r2
 8001d58:	005b      	lsls	r3, r3, #1
 8001d5a:	4413      	add	r3, r2
 8001d5c:	3b1e      	subs	r3, #30
 8001d5e:	051b      	lsls	r3, r3, #20
 8001d60:	f043 7300 	orr.w	r3, r3, #33554432	; 0x2000000
 8001d64:	430b      	orrs	r3, r1
 8001d66:	683a      	ldr	r2, [r7, #0]
 8001d68:	6892      	ldr	r2, [r2, #8]
 8001d6a:	4619      	mov	r1, r3
 8001d6c:	f7ff f8c7 	bl	8000efe <LL_ADC_SetChannelSamplingTime>
 8001d70:	683b      	ldr	r3, [r7, #0]
 8001d72:	681a      	ldr	r2, [r3, #0]
 8001d74:	4b3d      	ldr	r3, [pc, #244]	; (8001e6c <HAL_ADC_ConfigChannel+0x7d8>)
 8001d76:	4013      	ands	r3, r2
 8001d78:	2b00      	cmp	r3, #0
 8001d7a:	d06c      	beq.n	8001e56 <HAL_ADC_ConfigChannel+0x7c2>
 8001d7c:	483c      	ldr	r0, [pc, #240]	; (8001e70 <HAL_ADC_ConfigChannel+0x7dc>)
 8001d7e:	f7ff f809 	bl	8000d94 <LL_ADC_GetCommonPathInternalCh>
 8001d82:	f8c7 00c4 	str.w	r0, [r7, #196]	; 0xc4
 8001d86:	683b      	ldr	r3, [r7, #0]
 8001d88:	681b      	ldr	r3, [r3, #0]
 8001d8a:	4a3a      	ldr	r2, [pc, #232]	; (8001e74 <HAL_ADC_ConfigChannel+0x7e0>)
 8001d8c:	4293      	cmp	r3, r2
 8001d8e:	d127      	bne.n	8001de0 <HAL_ADC_ConfigChannel+0x74c>
 8001d90:	f8d7 30c4 	ldr.w	r3, [r7, #196]	; 0xc4
 8001d94:	f403 0300 	and.w	r3, r3, #8388608	; 0x800000
 8001d98:	2b00      	cmp	r3, #0
 8001d9a:	d121      	bne.n	8001de0 <HAL_ADC_ConfigChannel+0x74c>
 8001d9c:	687b      	ldr	r3, [r7, #4]
 8001d9e:	681b      	ldr	r3, [r3, #0]
 8001da0:	4a35      	ldr	r2, [pc, #212]	; (8001e78 <HAL_ADC_ConfigChannel+0x7e4>)
 8001da2:	4293      	cmp	r3, r2
 8001da4:	d157      	bne.n	8001e56 <HAL_ADC_ConfigChannel+0x7c2>
 8001da6:	f8d7 30c4 	ldr.w	r3, [r7, #196]	; 0xc4
 8001daa:	f443 0300 	orr.w	r3, r3, #8388608	; 0x800000
 8001dae:	4619      	mov	r1, r3
 8001db0:	482f      	ldr	r0, [pc, #188]	; (8001e70 <HAL_ADC_ConfigChannel+0x7dc>)
 8001db2:	f7fe ffdc 	bl	8000d6e <LL_ADC_SetCommonPathInternalCh>
 8001db6:	4b31      	ldr	r3, [pc, #196]	; (8001e7c <HAL_ADC_ConfigChannel+0x7e8>)
 8001db8:	681b      	ldr	r3, [r3, #0]
 8001dba:	099b      	lsrs	r3, r3, #6
 8001dbc:	4a30      	ldr	r2, [pc, #192]	; (8001e80 <HAL_ADC_ConfigChannel+0x7ec>)
 8001dbe:	fba2 2303 	umull	r2, r3, r2, r3
 8001dc2:	099b      	lsrs	r3, r3, #6
 8001dc4:	1c5a      	adds	r2, r3, #1
 8001dc6:	4613      	mov	r3, r2
 8001dc8:	005b      	lsls	r3, r3, #1
 8001dca:	4413      	add	r3, r2
 8001dcc:	009b      	lsls	r3, r3, #2
 8001dce:	60fb      	str	r3, [r7, #12]
 8001dd0:	e002      	b.n	8001dd8 <HAL_ADC_ConfigChannel+0x744>
 8001dd2:	68fb      	ldr	r3, [r7, #12]
 8001dd4:	3b01      	subs	r3, #1
 8001dd6:	60fb      	str	r3, [r7, #12]
 8001dd8:	68fb      	ldr	r3, [r7, #12]
 8001dda:	2b00      	cmp	r3, #0
 8001ddc:	d1f9      	bne.n	8001dd2 <HAL_ADC_ConfigChannel+0x73e>
 8001dde:	e03a      	b.n	8001e56 <HAL_ADC_ConfigChannel+0x7c2>
 8001de0:	683b      	ldr	r3, [r7, #0]
 8001de2:	681b      	ldr	r3, [r3, #0]
 8001de4:	4a27      	ldr	r2, [pc, #156]	; (8001e84 <HAL_ADC_ConfigChannel+0x7f0>)
 8001de6:	4293      	cmp	r3, r2
 8001de8:	d113      	bne.n	8001e12 <HAL_ADC_ConfigChannel+0x77e>
 8001dea:	f8d7 30c4 	ldr.w	r3, [r7, #196]	; 0xc4
 8001dee:	f003 7380 	and.w	r3, r3, #16777216	; 0x1000000
 8001df2:	2b00      	cmp	r3, #0
 8001df4:	d10d      	bne.n	8001e12 <HAL_ADC_ConfigChannel+0x77e>
 8001df6:	687b      	ldr	r3, [r7, #4]
 8001df8:	681b      	ldr	r3, [r3, #0]
 8001dfa:	4a1f      	ldr	r2, [pc, #124]	; (8001e78 <HAL_ADC_ConfigChannel+0x7e4>)
 8001dfc:	4293      	cmp	r3, r2
 8001dfe:	d12a      	bne.n	8001e56 <HAL_ADC_ConfigChannel+0x7c2>
 8001e00:	f8d7 30c4 	ldr.w	r3, [r7, #196]	; 0xc4
 8001e04:	f043 7380 	orr.w	r3, r3, #16777216	; 0x1000000
 8001e08:	4619      	mov	r1, r3
 8001e0a:	4819      	ldr	r0, [pc, #100]	; (8001e70 <HAL_ADC_ConfigChannel+0x7dc>)
 8001e0c:	f7fe ffaf 	bl	8000d6e <LL_ADC_SetCommonPathInternalCh>
 8001e10:	e021      	b.n	8001e56 <HAL_ADC_ConfigChannel+0x7c2>
 8001e12:	683b      	ldr	r3, [r7, #0]
 8001e14:	681b      	ldr	r3, [r3, #0]
 8001e16:	4a1c      	ldr	r2, [pc, #112]	; (8001e88 <HAL_ADC_ConfigChannel+0x7f4>)
 8001e18:	4293      	cmp	r3, r2
 8001e1a:	d11c      	bne.n	8001e56 <HAL_ADC_ConfigChannel+0x7c2>
 8001e1c:	f8d7 30c4 	ldr.w	r3, [r7, #196]	; 0xc4
 8001e20:	f403 0380 	and.w	r3, r3, #4194304	; 0x400000
 8001e24:	2b00      	cmp	r3, #0
 8001e26:	d116      	bne.n	8001e56 <HAL_ADC_ConfigChannel+0x7c2>
 8001e28:	687b      	ldr	r3, [r7, #4]
 8001e2a:	681b      	ldr	r3, [r3, #0]
 8001e2c:	4a12      	ldr	r2, [pc, #72]	; (8001e78 <HAL_ADC_ConfigChannel+0x7e4>)
 8001e2e:	4293      	cmp	r3, r2
 8001e30:	d111      	bne.n	8001e56 <HAL_ADC_ConfigChannel+0x7c2>
 8001e32:	f8d7 30c4 	ldr.w	r3, [r7, #196]	; 0xc4
 8001e36:	f443 0380 	orr.w	r3, r3, #4194304	; 0x400000
 8001e3a:	4619      	mov	r1, r3
 8001e3c:	480c      	ldr	r0, [pc, #48]	; (8001e70 <HAL_ADC_ConfigChannel+0x7dc>)
 8001e3e:	f7fe ff96 	bl	8000d6e <LL_ADC_SetCommonPathInternalCh>
 8001e42:	e008      	b.n	8001e56 <HAL_ADC_ConfigChannel+0x7c2>
 8001e44:	687b      	ldr	r3, [r7, #4]
 8001e46:	6d9b      	ldr	r3, [r3, #88]	; 0x58
 8001e48:	f043 0220 	orr.w	r2, r3, #32
 8001e4c:	687b      	ldr	r3, [r7, #4]
 8001e4e:	659a      	str	r2, [r3, #88]	; 0x58
 8001e50:	2301      	movs	r3, #1
 8001e52:	f887 30d7 	strb.w	r3, [r7, #215]	; 0xd7
 8001e56:	687b      	ldr	r3, [r7, #4]
 8001e58:	2200      	movs	r2, #0
 8001e5a:	f883 2054 	strb.w	r2, [r3, #84]	; 0x54
 8001e5e:	f897 30d7 	ldrb.w	r3, [r7, #215]	; 0xd7
 8001e62:	4618      	mov	r0, r3
 8001e64:	37d8      	adds	r7, #216	; 0xd8
 8001e66:	46bd      	mov	sp, r7
 8001e68:	bd80      	pop	{r7, pc}
 8001e6a:	bf00      	nop
 8001e6c:	80080000 	.word	0x80080000
 8001e70:	50040300 	.word	0x50040300
 8001e74:	c7520000 	.word	0xc7520000
 8001e78:	50040000 	.word	0x50040000
 8001e7c:	20001048 	.word	0x20001048
 8001e80:	053e2d63 	.word	0x053e2d63
 8001e84:	cb840000 	.word	0xcb840000
 8001e88:	80000001 	.word	0x80000001

08001e8c <ADC_ConversionStop>:
 8001e8c:	b580      	push	{r7, lr}
 8001e8e:	b088      	sub	sp, #32
 8001e90:	af00      	add	r7, sp, #0
 8001e92:	6078      	str	r0, [r7, #4]
 8001e94:	6039      	str	r1, [r7, #0]
 8001e96:	2300      	movs	r3, #0
 8001e98:	61fb      	str	r3, [r7, #28]
 8001e9a:	683b      	ldr	r3, [r7, #0]
 8001e9c:	61bb      	str	r3, [r7, #24]
 8001e9e:	687b      	ldr	r3, [r7, #4]
 8001ea0:	681b      	ldr	r3, [r3, #0]
 8001ea2:	4618      	mov	r0, r3
 8001ea4:	f7ff f93e 	bl	8001124 <LL_ADC_REG_IsConversionOngoing>
 8001ea8:	6138      	str	r0, [r7, #16]
 8001eaa:	687b      	ldr	r3, [r7, #4]
 8001eac:	681b      	ldr	r3, [r3, #0]
 8001eae:	4618      	mov	r0, r3
 8001eb0:	f7ff f95f 	bl	8001172 <LL_ADC_INJ_IsConversionOngoing>
 8001eb4:	60f8      	str	r0, [r7, #12]
 8001eb6:	693b      	ldr	r3, [r7, #16]
 8001eb8:	2b00      	cmp	r3, #0
 8001eba:	d103      	bne.n	8001ec4 <ADC_ConversionStop+0x38>
 8001ebc:	68fb      	ldr	r3, [r7, #12]
 8001ebe:	2b00      	cmp	r3, #0
 8001ec0:	f000 8098 	beq.w	8001ff4 <ADC_ConversionStop+0x168>
 8001ec4:	687b      	ldr	r3, [r7, #4]
 8001ec6:	681b      	ldr	r3, [r3, #0]
 8001ec8:	68db      	ldr	r3, [r3, #12]
 8001eca:	f003 7300 	and.w	r3, r3, #33554432	; 0x2000000
 8001ece:	2b00      	cmp	r3, #0
 8001ed0:	d02a      	beq.n	8001f28 <ADC_ConversionStop+0x9c>
 8001ed2:	687b      	ldr	r3, [r7, #4]
 8001ed4:	7e5b      	ldrb	r3, [r3, #25]
 8001ed6:	2b01      	cmp	r3, #1
 8001ed8:	d126      	bne.n	8001f28 <ADC_ConversionStop+0x9c>
 8001eda:	687b      	ldr	r3, [r7, #4]
 8001edc:	7e1b      	ldrb	r3, [r3, #24]
 8001ede:	2b01      	cmp	r3, #1
 8001ee0:	d122      	bne.n	8001f28 <ADC_ConversionStop+0x9c>
 8001ee2:	2301      	movs	r3, #1
 8001ee4:	61bb      	str	r3, [r7, #24]
 8001ee6:	e014      	b.n	8001f12 <ADC_ConversionStop+0x86>
 8001ee8:	69fb      	ldr	r3, [r7, #28]
 8001eea:	4a45      	ldr	r2, [pc, #276]	; (8002000 <ADC_ConversionStop+0x174>)
 8001eec:	4293      	cmp	r3, r2
 8001eee:	d90d      	bls.n	8001f0c <ADC_ConversionStop+0x80>
 8001ef0:	687b      	ldr	r3, [r7, #4]
 8001ef2:	6d9b      	ldr	r3, [r3, #88]	; 0x58
 8001ef4:	f043 0210 	orr.w	r2, r3, #16
 8001ef8:	687b      	ldr	r3, [r7, #4]
 8001efa:	659a      	str	r2, [r3, #88]	; 0x58
 8001efc:	687b      	ldr	r3, [r7, #4]
 8001efe:	6ddb      	ldr	r3, [r3, #92]	; 0x5c
 8001f00:	f043 0201 	orr.w	r2, r3, #1
 8001f04:	687b      	ldr	r3, [r7, #4]
 8001f06:	65da      	str	r2, [r3, #92]	; 0x5c
 8001f08:	2301      	movs	r3, #1
 8001f0a:	e074      	b.n	8001ff6 <ADC_ConversionStop+0x16a>
 8001f0c:	69fb      	ldr	r3, [r7, #28]
 8001f0e:	3301      	adds	r3, #1
 8001f10:	61fb      	str	r3, [r7, #28]
 8001f12:	687b      	ldr	r3, [r7, #4]
 8001f14:	681b      	ldr	r3, [r3, #0]
 8001f16:	681b      	ldr	r3, [r3, #0]
 8001f18:	f003 0340 	and.w	r3, r3, #64	; 0x40
 8001f1c:	2b40      	cmp	r3, #64	; 0x40
 8001f1e:	d1e3      	bne.n	8001ee8 <ADC_ConversionStop+0x5c>
 8001f20:	687b      	ldr	r3, [r7, #4]
 8001f22:	681b      	ldr	r3, [r3, #0]
 8001f24:	2240      	movs	r2, #64	; 0x40
 8001f26:	601a      	str	r2, [r3, #0]
 8001f28:	69bb      	ldr	r3, [r7, #24]
 8001f2a:	2b02      	cmp	r3, #2
 8001f2c:	d014      	beq.n	8001f58 <ADC_ConversionStop+0xcc>
 8001f2e:	687b      	ldr	r3, [r7, #4]
 8001f30:	681b      	ldr	r3, [r3, #0]
 8001f32:	4618      	mov	r0, r3
 8001f34:	f7ff f8f6 	bl	8001124 <LL_ADC_REG_IsConversionOngoing>
 8001f38:	4603      	mov	r3, r0
 8001f3a:	2b00      	cmp	r3, #0
 8001f3c:	d00c      	beq.n	8001f58 <ADC_ConversionStop+0xcc>
 8001f3e:	687b      	ldr	r3, [r7, #4]
 8001f40:	681b      	ldr	r3, [r3, #0]
 8001f42:	4618      	mov	r0, r3
 8001f44:	f7ff f8b3 	bl	80010ae <LL_ADC_IsDisableOngoing>
 8001f48:	4603      	mov	r3, r0
 8001f4a:	2b00      	cmp	r3, #0
 8001f4c:	d104      	bne.n	8001f58 <ADC_ConversionStop+0xcc>
 8001f4e:	687b      	ldr	r3, [r7, #4]
 8001f50:	681b      	ldr	r3, [r3, #0]
 8001f52:	4618      	mov	r0, r3
 8001f54:	f7ff f8d2 	bl	80010fc <LL_ADC_REG_StopConversion>
 8001f58:	69bb      	ldr	r3, [r7, #24]
 8001f5a:	2b01      	cmp	r3, #1
 8001f5c:	d014      	beq.n	8001f88 <ADC_ConversionStop+0xfc>
 8001f5e:	687b      	ldr	r3, [r7, #4]
 8001f60:	681b      	ldr	r3, [r3, #0]
 8001f62:	4618      	mov	r0, r3
 8001f64:	f7ff f905 	bl	8001172 <LL_ADC_INJ_IsConversionOngoing>
 8001f68:	4603      	mov	r3, r0
 8001f6a:	2b00      	cmp	r3, #0
 8001f6c:	d00c      	beq.n	8001f88 <ADC_ConversionStop+0xfc>
 8001f6e:	687b      	ldr	r3, [r7, #4]
 8001f70:	681b      	ldr	r3, [r3, #0]
 8001f72:	4618      	mov	r0, r3
 8001f74:	f7ff f89b 	bl	80010ae <LL_ADC_IsDisableOngoing>
 8001f78:	4603      	mov	r3, r0
 8001f7a:	2b00      	cmp	r3, #0
 8001f7c:	d104      	bne.n	8001f88 <ADC_ConversionStop+0xfc>
 8001f7e:	687b      	ldr	r3, [r7, #4]
 8001f80:	681b      	ldr	r3, [r3, #0]
 8001f82:	4618      	mov	r0, r3
 8001f84:	f7ff f8e1 	bl	800114a <LL_ADC_INJ_StopConversion>
 8001f88:	69bb      	ldr	r3, [r7, #24]
 8001f8a:	2b02      	cmp	r3, #2
 8001f8c:	d005      	beq.n	8001f9a <ADC_ConversionStop+0x10e>
 8001f8e:	69bb      	ldr	r3, [r7, #24]
 8001f90:	2b03      	cmp	r3, #3
 8001f92:	d105      	bne.n	8001fa0 <ADC_ConversionStop+0x114>
 8001f94:	230c      	movs	r3, #12
 8001f96:	617b      	str	r3, [r7, #20]
 8001f98:	e005      	b.n	8001fa6 <ADC_ConversionStop+0x11a>
 8001f9a:	2308      	movs	r3, #8
 8001f9c:	617b      	str	r3, [r7, #20]
 8001f9e:	e002      	b.n	8001fa6 <ADC_ConversionStop+0x11a>
 8001fa0:	2304      	movs	r3, #4
 8001fa2:	617b      	str	r3, [r7, #20]
 8001fa4:	bf00      	nop
 8001fa6:	f7fe fe9f 	bl	8000ce8 <HAL_GetTick>
 8001faa:	60b8      	str	r0, [r7, #8]
 8001fac:	e01b      	b.n	8001fe6 <ADC_ConversionStop+0x15a>
 8001fae:	f7fe fe9b 	bl	8000ce8 <HAL_GetTick>
 8001fb2:	4602      	mov	r2, r0
 8001fb4:	68bb      	ldr	r3, [r7, #8]
 8001fb6:	1ad3      	subs	r3, r2, r3
 8001fb8:	2b05      	cmp	r3, #5
 8001fba:	d914      	bls.n	8001fe6 <ADC_ConversionStop+0x15a>
 8001fbc:	687b      	ldr	r3, [r7, #4]
 8001fbe:	681b      	ldr	r3, [r3, #0]
 8001fc0:	689a      	ldr	r2, [r3, #8]
 8001fc2:	697b      	ldr	r3, [r7, #20]
 8001fc4:	4013      	ands	r3, r2
 8001fc6:	2b00      	cmp	r3, #0
 8001fc8:	d00d      	beq.n	8001fe6 <ADC_ConversionStop+0x15a>
 8001fca:	687b      	ldr	r3, [r7, #4]
 8001fcc:	6d9b      	ldr	r3, [r3, #88]	; 0x58
 8001fce:	f043 0210 	orr.w	r2, r3, #16
 8001fd2:	687b      	ldr	r3, [r7, #4]
 8001fd4:	659a      	str	r2, [r3, #88]	; 0x58
 8001fd6:	687b      	ldr	r3, [r7, #4]
 8001fd8:	6ddb      	ldr	r3, [r3, #92]	; 0x5c
 8001fda:	f043 0201 	orr.w	r2, r3, #1
 8001fde:	687b      	ldr	r3, [r7, #4]
 8001fe0:	65da      	str	r2, [r3, #92]	; 0x5c
 8001fe2:	2301      	movs	r3, #1
 8001fe4:	e007      	b.n	8001ff6 <ADC_ConversionStop+0x16a>
 8001fe6:	687b      	ldr	r3, [r7, #4]
 8001fe8:	681b      	ldr	r3, [r3, #0]
 8001fea:	689a      	ldr	r2, [r3, #8]
 8001fec:	697b      	ldr	r3, [r7, #20]
 8001fee:	4013      	ands	r3, r2
 8001ff0:	2b00      	cmp	r3, #0
 8001ff2:	d1dc      	bne.n	8001fae <ADC_ConversionStop+0x122>
 8001ff4:	2300      	movs	r3, #0
 8001ff6:	4618      	mov	r0, r3
 8001ff8:	3720      	adds	r7, #32
 8001ffa:	46bd      	mov	sp, r7
 8001ffc:	bd80      	pop	{r7, pc}
 8001ffe:	bf00      	nop
 8002000:	a33fffff 	.word	0xa33fffff

08002004 <ADC_Enable>:
 8002004:	b580      	push	{r7, lr}
 8002006:	b084      	sub	sp, #16
 8002008:	af00      	add	r7, sp, #0
 800200a:	6078      	str	r0, [r7, #4]
 800200c:	2300      	movs	r3, #0
 800200e:	60bb      	str	r3, [r7, #8]
 8002010:	687b      	ldr	r3, [r7, #4]
 8002012:	681b      	ldr	r3, [r3, #0]
 8002014:	4618      	mov	r0, r3
 8002016:	f7ff f837 	bl	8001088 <LL_ADC_IsEnabled>
 800201a:	4603      	mov	r3, r0
 800201c:	2b00      	cmp	r3, #0
 800201e:	d169      	bne.n	80020f4 <ADC_Enable+0xf0>
 8002020:	687b      	ldr	r3, [r7, #4]
 8002022:	681b      	ldr	r3, [r3, #0]
 8002024:	689a      	ldr	r2, [r3, #8]
 8002026:	4b36      	ldr	r3, [pc, #216]	; (8002100 <ADC_Enable+0xfc>)
 8002028:	4013      	ands	r3, r2
 800202a:	2b00      	cmp	r3, #0
 800202c:	d00d      	beq.n	800204a <ADC_Enable+0x46>
 800202e:	687b      	ldr	r3, [r7, #4]
 8002030:	6d9b      	ldr	r3, [r3, #88]	; 0x58
 8002032:	f043 0210 	orr.w	r2, r3, #16
 8002036:	687b      	ldr	r3, [r7, #4]
 8002038:	659a      	str	r2, [r3, #88]	; 0x58
 800203a:	687b      	ldr	r3, [r7, #4]
 800203c:	6ddb      	ldr	r3, [r3, #92]	; 0x5c
 800203e:	f043 0201 	orr.w	r2, r3, #1
 8002042:	687b      	ldr	r3, [r7, #4]
 8002044:	65da      	str	r2, [r3, #92]	; 0x5c
 8002046:	2301      	movs	r3, #1
 8002048:	e055      	b.n	80020f6 <ADC_Enable+0xf2>
 800204a:	687b      	ldr	r3, [r7, #4]
 800204c:	681b      	ldr	r3, [r3, #0]
 800204e:	4618      	mov	r0, r3
 8002050:	f7fe fff2 	bl	8001038 <LL_ADC_Enable>
 8002054:	482b      	ldr	r0, [pc, #172]	; (8002104 <ADC_Enable+0x100>)
 8002056:	f7fe fe9d 	bl	8000d94 <LL_ADC_GetCommonPathInternalCh>
 800205a:	4603      	mov	r3, r0
 800205c:	f403 0300 	and.w	r3, r3, #8388608	; 0x800000
 8002060:	2b00      	cmp	r3, #0
 8002062:	d013      	beq.n	800208c <ADC_Enable+0x88>
 8002064:	4b28      	ldr	r3, [pc, #160]	; (8002108 <ADC_Enable+0x104>)
 8002066:	681b      	ldr	r3, [r3, #0]
 8002068:	099b      	lsrs	r3, r3, #6
 800206a:	4a28      	ldr	r2, [pc, #160]	; (800210c <ADC_Enable+0x108>)
 800206c:	fba2 2303 	umull	r2, r3, r2, r3
 8002070:	099b      	lsrs	r3, r3, #6
 8002072:	1c5a      	adds	r2, r3, #1
 8002074:	4613      	mov	r3, r2
 8002076:	005b      	lsls	r3, r3, #1
 8002078:	4413      	add	r3, r2
 800207a:	009b      	lsls	r3, r3, #2
 800207c:	60bb      	str	r3, [r7, #8]
 800207e:	e002      	b.n	8002086 <ADC_Enable+0x82>
 8002080:	68bb      	ldr	r3, [r7, #8]
 8002082:	3b01      	subs	r3, #1
 8002084:	60bb      	str	r3, [r7, #8]
 8002086:	68bb      	ldr	r3, [r7, #8]
 8002088:	2b00      	cmp	r3, #0
 800208a:	d1f9      	bne.n	8002080 <ADC_Enable+0x7c>
 800208c:	f7fe fe2c 	bl	8000ce8 <HAL_GetTick>
 8002090:	60f8      	str	r0, [r7, #12]
 8002092:	e028      	b.n	80020e6 <ADC_Enable+0xe2>
 8002094:	687b      	ldr	r3, [r7, #4]
 8002096:	681b      	ldr	r3, [r3, #0]
 8002098:	4618      	mov	r0, r3
 800209a:	f7fe fff5 	bl	8001088 <LL_ADC_IsEnabled>
 800209e:	4603      	mov	r3, r0
 80020a0:	2b00      	cmp	r3, #0
 80020a2:	d104      	bne.n	80020ae <ADC_Enable+0xaa>
 80020a4:	687b      	ldr	r3, [r7, #4]
 80020a6:	681b      	ldr	r3, [r3, #0]
 80020a8:	4618      	mov	r0, r3
 80020aa:	f7fe ffc5 	bl	8001038 <LL_ADC_Enable>
 80020ae:	f7fe fe1b 	bl	8000ce8 <HAL_GetTick>
 80020b2:	4602      	mov	r2, r0
 80020b4:	68fb      	ldr	r3, [r7, #12]
 80020b6:	1ad3      	subs	r3, r2, r3
 80020b8:	2b02      	cmp	r3, #2
 80020ba:	d914      	bls.n	80020e6 <ADC_Enable+0xe2>
 80020bc:	687b      	ldr	r3, [r7, #4]
 80020be:	681b      	ldr	r3, [r3, #0]
 80020c0:	681b      	ldr	r3, [r3, #0]
 80020c2:	f003 0301 	and.w	r3, r3, #1
 80020c6:	2b01      	cmp	r3, #1
 80020c8:	d00d      	beq.n	80020e6 <ADC_Enable+0xe2>
 80020ca:	687b      	ldr	r3, [r7, #4]
 80020cc:	6d9b      	ldr	r3, [r3, #88]	; 0x58
 80020ce:	f043 0210 	orr.w	r2, r3, #16
 80020d2:	687b      	ldr	r3, [r7, #4]
 80020d4:	659a      	str	r2, [r3, #88]	; 0x58
 80020d6:	687b      	ldr	r3, [r7, #4]
 80020d8:	6ddb      	ldr	r3, [r3, #92]	; 0x5c
 80020da:	f043 0201 	orr.w	r2, r3, #1
 80020de:	687b      	ldr	r3, [r7, #4]
 80020e0:	65da      	str	r2, [r3, #92]	; 0x5c
 80020e2:	2301      	movs	r3, #1
 80020e4:	e007      	b.n	80020f6 <ADC_Enable+0xf2>
 80020e6:	687b      	ldr	r3, [r7, #4]
 80020e8:	681b      	ldr	r3, [r3, #0]
 80020ea:	681b      	ldr	r3, [r3, #0]
 80020ec:	f003 0301 	and.w	r3, r3, #1
 80020f0:	2b01      	cmp	r3, #1
 80020f2:	d1cf      	bne.n	8002094 <ADC_Enable+0x90>
 80020f4:	2300      	movs	r3, #0
 80020f6:	4618      	mov	r0, r3
 80020f8:	3710      	adds	r7, #16
 80020fa:	46bd      	mov	sp, r7
 80020fc:	bd80      	pop	{r7, pc}
 80020fe:	bf00      	nop
 8002100:	8000003f 	.word	0x8000003f
 8002104:	50040300 	.word	0x50040300
 8002108:	20001048 	.word	0x20001048
 800210c:	053e2d63 	.word	0x053e2d63

08002110 <ADC_Disable>:
 8002110:	b580      	push	{r7, lr}
 8002112:	b084      	sub	sp, #16
 8002114:	af00      	add	r7, sp, #0
 8002116:	6078      	str	r0, [r7, #4]
 8002118:	687b      	ldr	r3, [r7, #4]
 800211a:	681b      	ldr	r3, [r3, #0]
 800211c:	4618      	mov	r0, r3
 800211e:	f7fe ffc6 	bl	80010ae <LL_ADC_IsDisableOngoing>
 8002122:	60f8      	str	r0, [r7, #12]
 8002124:	687b      	ldr	r3, [r7, #4]
 8002126:	681b      	ldr	r3, [r3, #0]
 8002128:	4618      	mov	r0, r3
 800212a:	f7fe ffad 	bl	8001088 <LL_ADC_IsEnabled>
 800212e:	4603      	mov	r3, r0
 8002130:	2b00      	cmp	r3, #0
 8002132:	d047      	beq.n	80021c4 <ADC_Disable+0xb4>
 8002134:	68fb      	ldr	r3, [r7, #12]
 8002136:	2b00      	cmp	r3, #0
 8002138:	d144      	bne.n	80021c4 <ADC_Disable+0xb4>
 800213a:	687b      	ldr	r3, [r7, #4]
 800213c:	681b      	ldr	r3, [r3, #0]
 800213e:	689b      	ldr	r3, [r3, #8]
 8002140:	f003 030d 	and.w	r3, r3, #13
 8002144:	2b01      	cmp	r3, #1
 8002146:	d10c      	bne.n	8002162 <ADC_Disable+0x52>
 8002148:	687b      	ldr	r3, [r7, #4]
 800214a:	681b      	ldr	r3, [r3, #0]
 800214c:	4618      	mov	r0, r3
 800214e:	f7fe ff87 	bl	8001060 <LL_ADC_Disable>
 8002152:	687b      	ldr	r3, [r7, #4]
 8002154:	681b      	ldr	r3, [r3, #0]
 8002156:	2203      	movs	r2, #3
 8002158:	601a      	str	r2, [r3, #0]
 800215a:	f7fe fdc5 	bl	8000ce8 <HAL_GetTick>
 800215e:	60b8      	str	r0, [r7, #8]
 8002160:	e029      	b.n	80021b6 <ADC_Disable+0xa6>
 8002162:	687b      	ldr	r3, [r7, #4]
 8002164:	6d9b      	ldr	r3, [r3, #88]	; 0x58
 8002166:	f043 0210 	orr.w	r2, r3, #16
 800216a:	687b      	ldr	r3, [r7, #4]
 800216c:	659a      	str	r2, [r3, #88]	; 0x58
 800216e:	687b      	ldr	r3, [r7, #4]
 8002170:	6ddb      	ldr	r3, [r3, #92]	; 0x5c
 8002172:	f043 0201 	orr.w	r2, r3, #1
 8002176:	687b      	ldr	r3, [r7, #4]
 8002178:	65da      	str	r2, [r3, #92]	; 0x5c
 800217a:	2301      	movs	r3, #1
 800217c:	e023      	b.n	80021c6 <ADC_Disable+0xb6>
 800217e:	f7fe fdb3 	bl	8000ce8 <HAL_GetTick>
 8002182:	4602      	mov	r2, r0
 8002184:	68bb      	ldr	r3, [r7, #8]
 8002186:	1ad3      	subs	r3, r2, r3
 8002188:	2b02      	cmp	r3, #2
 800218a:	d914      	bls.n	80021b6 <ADC_Disable+0xa6>
 800218c:	687b      	ldr	r3, [r7, #4]
 800218e:	681b      	ldr	r3, [r3, #0]
 8002190:	689b      	ldr	r3, [r3, #8]
 8002192:	f003 0301 	and.w	r3, r3, #1
 8002196:	2b00      	cmp	r3, #0
 8002198:	d00d      	beq.n	80021b6 <ADC_Disable+0xa6>
 800219a:	687b      	ldr	r3, [r7, #4]
 800219c:	6d9b      	ldr	r3, [r3, #88]	; 0x58
 800219e:	f043 0210 	orr.w	r2, r3, #16
 80021a2:	687b      	ldr	r3, [r7, #4]
 80021a4:	659a      	str	r2, [r3, #88]	; 0x58
 80021a6:	687b      	ldr	r3, [r7, #4]
 80021a8:	6ddb      	ldr	r3, [r3, #92]	; 0x5c
 80021aa:	f043 0201 	orr.w	r2, r3, #1
 80021ae:	687b      	ldr	r3, [r7, #4]
 80021b0:	65da      	str	r2, [r3, #92]	; 0x5c
 80021b2:	2301      	movs	r3, #1
 80021b4:	e007      	b.n	80021c6 <ADC_Disable+0xb6>
 80021b6:	687b      	ldr	r3, [r7, #4]
 80021b8:	681b      	ldr	r3, [r3, #0]
 80021ba:	689b      	ldr	r3, [r3, #8]
 80021bc:	f003 0301 	and.w	r3, r3, #1
 80021c0:	2b00      	cmp	r3, #0
 80021c2:	d1dc      	bne.n	800217e <ADC_Disable+0x6e>
 80021c4:	2300      	movs	r3, #0
 80021c6:	4618      	mov	r0, r3
 80021c8:	3710      	adds	r7, #16
 80021ca:	46bd      	mov	sp, r7
 80021cc:	bd80      	pop	{r7, pc}
	...

080021d0 <__NVIC_SetPriorityGrouping>:
 80021d0:	b480      	push	{r7}
 80021d2:	b085      	sub	sp, #20
 80021d4:	af00      	add	r7, sp, #0
 80021d6:	6078      	str	r0, [r7, #4]
 80021d8:	687b      	ldr	r3, [r7, #4]
 80021da:	f003 0307 	and.w	r3, r3, #7
 80021de:	60fb      	str	r3, [r7, #12]
 80021e0:	4b0c      	ldr	r3, [pc, #48]	; (8002214 <__NVIC_SetPriorityGrouping+0x44>)
 80021e2:	68db      	ldr	r3, [r3, #12]
 80021e4:	60bb      	str	r3, [r7, #8]
 80021e6:	68ba      	ldr	r2, [r7, #8]
 80021e8:	f64f 03ff 	movw	r3, #63743	; 0xf8ff
 80021ec:	4013      	ands	r3, r2
 80021ee:	60bb      	str	r3, [r7, #8]
 80021f0:	68fb      	ldr	r3, [r7, #12]
 80021f2:	021a      	lsls	r2, r3, #8
 80021f4:	68bb      	ldr	r3, [r7, #8]
 80021f6:	4313      	orrs	r3, r2
 80021f8:	f043 63bf 	orr.w	r3, r3, #100139008	; 0x5f80000
 80021fc:	f443 3300 	orr.w	r3, r3, #131072	; 0x20000
 8002200:	60bb      	str	r3, [r7, #8]
 8002202:	4a04      	ldr	r2, [pc, #16]	; (8002214 <__NVIC_SetPriorityGrouping+0x44>)
 8002204:	68bb      	ldr	r3, [r7, #8]
 8002206:	60d3      	str	r3, [r2, #12]
 8002208:	bf00      	nop
 800220a:	3714      	adds	r7, #20
 800220c:	46bd      	mov	sp, r7
 800220e:	f85d 7b04 	ldr.w	r7, [sp], #4
 8002212:	4770      	bx	lr
 8002214:	e000ed00 	.word	0xe000ed00

08002218 <__NVIC_GetPriorityGrouping>:
 8002218:	b480      	push	{r7}
 800221a:	af00      	add	r7, sp, #0
 800221c:	4b04      	ldr	r3, [pc, #16]	; (8002230 <__NVIC_GetPriorityGrouping+0x18>)
 800221e:	68db      	ldr	r3, [r3, #12]
 8002220:	0a1b      	lsrs	r3, r3, #8
 8002222:	f003 0307 	and.w	r3, r3, #7
 8002226:	4618      	mov	r0, r3
 8002228:	46bd      	mov	sp, r7
 800222a:	f85d 7b04 	ldr.w	r7, [sp], #4
 800222e:	4770      	bx	lr
 8002230:	e000ed00 	.word	0xe000ed00

08002234 <__NVIC_SetPriority>:
 8002234:	b480      	push	{r7}
 8002236:	b083      	sub	sp, #12
 8002238:	af00      	add	r7, sp, #0
 800223a:	4603      	mov	r3, r0
 800223c:	6039      	str	r1, [r7, #0]
 800223e:	71fb      	strb	r3, [r7, #7]
 8002240:	f997 3007 	ldrsb.w	r3, [r7, #7]
 8002244:	2b00      	cmp	r3, #0
 8002246:	db0a      	blt.n	800225e <__NVIC_SetPriority+0x2a>
 8002248:	683b      	ldr	r3, [r7, #0]
 800224a:	b2da      	uxtb	r2, r3
 800224c:	490c      	ldr	r1, [pc, #48]	; (8002280 <__NVIC_SetPriority+0x4c>)
 800224e:	f997 3007 	ldrsb.w	r3, [r7, #7]
 8002252:	0112      	lsls	r2, r2, #4
 8002254:	b2d2      	uxtb	r2, r2
 8002256:	440b      	add	r3, r1
 8002258:	f883 2300 	strb.w	r2, [r3, #768]	; 0x300
 800225c:	e00a      	b.n	8002274 <__NVIC_SetPriority+0x40>
 800225e:	683b      	ldr	r3, [r7, #0]
 8002260:	b2da      	uxtb	r2, r3
 8002262:	4908      	ldr	r1, [pc, #32]	; (8002284 <__NVIC_SetPriority+0x50>)
 8002264:	79fb      	ldrb	r3, [r7, #7]
 8002266:	f003 030f 	and.w	r3, r3, #15
 800226a:	3b04      	subs	r3, #4
 800226c:	0112      	lsls	r2, r2, #4
 800226e:	b2d2      	uxtb	r2, r2
 8002270:	440b      	add	r3, r1
 8002272:	761a      	strb	r2, [r3, #24]
 8002274:	bf00      	nop
 8002276:	370c      	adds	r7, #12
 8002278:	46bd      	mov	sp, r7
 800227a:	f85d 7b04 	ldr.w	r7, [sp], #4
 800227e:	4770      	bx	lr
 8002280:	e000e100 	.word	0xe000e100
 8002284:	e000ed00 	.word	0xe000ed00

08002288 <NVIC_EncodePriority>:
 8002288:	b480      	push	{r7}
 800228a:	b089      	sub	sp, #36	; 0x24
 800228c:	af00      	add	r7, sp, #0
 800228e:	60f8      	str	r0, [r7, #12]
 8002290:	60b9      	str	r1, [r7, #8]
 8002292:	607a      	str	r2, [r7, #4]
 8002294:	68fb      	ldr	r3, [r7, #12]
 8002296:	f003 0307 	and.w	r3, r3, #7
 800229a:	61fb      	str	r3, [r7, #28]
 800229c:	69fb      	ldr	r3, [r7, #28]
 800229e:	f1c3 0307 	rsb	r3, r3, #7
 80022a2:	2b04      	cmp	r3, #4
 80022a4:	bf28      	it	cs
 80022a6:	2304      	movcs	r3, #4
 80022a8:	61bb      	str	r3, [r7, #24]
 80022aa:	69fb      	ldr	r3, [r7, #28]
 80022ac:	3304      	adds	r3, #4
 80022ae:	2b06      	cmp	r3, #6
 80022b0:	d902      	bls.n	80022b8 <NVIC_EncodePriority+0x30>
 80022b2:	69fb      	ldr	r3, [r7, #28]
 80022b4:	3b03      	subs	r3, #3
 80022b6:	e000      	b.n	80022ba <NVIC_EncodePriority+0x32>
 80022b8:	2300      	movs	r3, #0
 80022ba:	617b      	str	r3, [r7, #20]
 80022bc:	f04f 32ff 	mov.w	r2, #4294967295
 80022c0:	69bb      	ldr	r3, [r7, #24]
 80022c2:	fa02 f303 	lsl.w	r3, r2, r3
 80022c6:	43da      	mvns	r2, r3
 80022c8:	68bb      	ldr	r3, [r7, #8]
 80022ca:	401a      	ands	r2, r3
 80022cc:	697b      	ldr	r3, [r7, #20]
 80022ce:	409a      	lsls	r2, r3
 80022d0:	f04f 31ff 	mov.w	r1, #4294967295
 80022d4:	697b      	ldr	r3, [r7, #20]
 80022d6:	fa01 f303 	lsl.w	r3, r1, r3
 80022da:	43d9      	mvns	r1, r3
 80022dc:	687b      	ldr	r3, [r7, #4]
 80022de:	400b      	ands	r3, r1
 80022e0:	4313      	orrs	r3, r2
 80022e2:	4618      	mov	r0, r3
 80022e4:	3724      	adds	r7, #36	; 0x24
 80022e6:	46bd      	mov	sp, r7
 80022e8:	f85d 7b04 	ldr.w	r7, [sp], #4
 80022ec:	4770      	bx	lr
	...

080022f0 <SysTick_Config>:
 80022f0:	b580      	push	{r7, lr}
 80022f2:	b082      	sub	sp, #8
 80022f4:	af00      	add	r7, sp, #0
 80022f6:	6078      	str	r0, [r7, #4]
 80022f8:	687b      	ldr	r3, [r7, #4]
 80022fa:	3b01      	subs	r3, #1
 80022fc:	f1b3 7f80 	cmp.w	r3, #16777216	; 0x1000000
 8002300:	d301      	bcc.n	8002306 <SysTick_Config+0x16>
 8002302:	2301      	movs	r3, #1
 8002304:	e00f      	b.n	8002326 <SysTick_Config+0x36>
 8002306:	4a0a      	ldr	r2, [pc, #40]	; (8002330 <SysTick_Config+0x40>)
 8002308:	687b      	ldr	r3, [r7, #4]
 800230a:	3b01      	subs	r3, #1
 800230c:	6053      	str	r3, [r2, #4]
 800230e:	210f      	movs	r1, #15
 8002310:	f04f 30ff 	mov.w	r0, #4294967295
 8002314:	f7ff ff8e 	bl	8002234 <__NVIC_SetPriority>
 8002318:	4b05      	ldr	r3, [pc, #20]	; (8002330 <SysTick_Config+0x40>)
 800231a:	2200      	movs	r2, #0
 800231c:	609a      	str	r2, [r3, #8]
 800231e:	4b04      	ldr	r3, [pc, #16]	; (8002330 <SysTick_Config+0x40>)
 8002320:	2207      	movs	r2, #7
 8002322:	601a      	str	r2, [r3, #0]
 8002324:	2300      	movs	r3, #0
 8002326:	4618      	mov	r0, r3
 8002328:	3708      	adds	r7, #8
 800232a:	46bd      	mov	sp, r7
 800232c:	bd80      	pop	{r7, pc}
 800232e:	bf00      	nop
 8002330:	e000e010 	.word	0xe000e010

08002334 <HAL_NVIC_SetPriorityGrouping>:
 8002334:	b580      	push	{r7, lr}
 8002336:	b082      	sub	sp, #8
 8002338:	af00      	add	r7, sp, #0
 800233a:	6078      	str	r0, [r7, #4]
 800233c:	6878      	ldr	r0, [r7, #4]
 800233e:	f7ff ff47 	bl	80021d0 <__NVIC_SetPriorityGrouping>
 8002342:	bf00      	nop
 8002344:	3708      	adds	r7, #8
 8002346:	46bd      	mov	sp, r7
 8002348:	bd80      	pop	{r7, pc}

0800234a <HAL_NVIC_SetPriority>:
 800234a:	b580      	push	{r7, lr}
 800234c:	b086      	sub	sp, #24
 800234e:	af00      	add	r7, sp, #0
 8002350:	4603      	mov	r3, r0
 8002352:	60b9      	str	r1, [r7, #8]
 8002354:	607a      	str	r2, [r7, #4]
 8002356:	73fb      	strb	r3, [r7, #15]
 8002358:	2300      	movs	r3, #0
 800235a:	617b      	str	r3, [r7, #20]
 800235c:	f7ff ff5c 	bl	8002218 <__NVIC_GetPriorityGrouping>
 8002360:	6178      	str	r0, [r7, #20]
 8002362:	687a      	ldr	r2, [r7, #4]
 8002364:	68b9      	ldr	r1, [r7, #8]
 8002366:	6978      	ldr	r0, [r7, #20]
 8002368:	f7ff ff8e 	bl	8002288 <NVIC_EncodePriority>
 800236c:	4602      	mov	r2, r0
 800236e:	f997 300f 	ldrsb.w	r3, [r7, #15]
 8002372:	4611      	mov	r1, r2
 8002374:	4618      	mov	r0, r3
 8002376:	f7ff ff5d 	bl	8002234 <__NVIC_SetPriority>
 800237a:	bf00      	nop
 800237c:	3718      	adds	r7, #24
 800237e:	46bd      	mov	sp, r7
 8002380:	bd80      	pop	{r7, pc}

08002382 <HAL_SYSTICK_Config>:
 8002382:	b580      	push	{r7, lr}
 8002384:	b082      	sub	sp, #8
 8002386:	af00      	add	r7, sp, #0
 8002388:	6078      	str	r0, [r7, #4]
 800238a:	6878      	ldr	r0, [r7, #4]
 800238c:	f7ff ffb0 	bl	80022f0 <SysTick_Config>
 8002390:	4603      	mov	r3, r0
 8002392:	4618      	mov	r0, r3
 8002394:	3708      	adds	r7, #8
 8002396:	46bd      	mov	sp, r7
 8002398:	bd80      	pop	{r7, pc}

0800239a <HAL_DAC_Init>:
 800239a:	b580      	push	{r7, lr}
 800239c:	b082      	sub	sp, #8
 800239e:	af00      	add	r7, sp, #0
 80023a0:	6078      	str	r0, [r7, #4]
 80023a2:	687b      	ldr	r3, [r7, #4]
 80023a4:	2b00      	cmp	r3, #0
 80023a6:	d101      	bne.n	80023ac <HAL_DAC_Init+0x12>
 80023a8:	2301      	movs	r3, #1
 80023aa:	e014      	b.n	80023d6 <HAL_DAC_Init+0x3c>
 80023ac:	687b      	ldr	r3, [r7, #4]
 80023ae:	791b      	ldrb	r3, [r3, #4]
 80023b0:	b2db      	uxtb	r3, r3
 80023b2:	2b00      	cmp	r3, #0
 80023b4:	d105      	bne.n	80023c2 <HAL_DAC_Init+0x28>
 80023b6:	687b      	ldr	r3, [r7, #4]
 80023b8:	2200      	movs	r2, #0
 80023ba:	715a      	strb	r2, [r3, #5]
 80023bc:	6878      	ldr	r0, [r7, #4]
 80023be:	f002 fb59 	bl	8004a74 <HAL_DAC_MspInit>
 80023c2:	687b      	ldr	r3, [r7, #4]
 80023c4:	2202      	movs	r2, #2
 80023c6:	711a      	strb	r2, [r3, #4]
 80023c8:	687b      	ldr	r3, [r7, #4]
 80023ca:	2200      	movs	r2, #0
 80023cc:	611a      	str	r2, [r3, #16]
 80023ce:	687b      	ldr	r3, [r7, #4]
 80023d0:	2201      	movs	r2, #1
 80023d2:	711a      	strb	r2, [r3, #4]
 80023d4:	2300      	movs	r3, #0
 80023d6:	4618      	mov	r0, r3
 80023d8:	3708      	adds	r7, #8
 80023da:	46bd      	mov	sp, r7
 80023dc:	bd80      	pop	{r7, pc}

080023de <HAL_DAC_Start>:
 80023de:	b480      	push	{r7}
 80023e0:	b083      	sub	sp, #12
 80023e2:	af00      	add	r7, sp, #0
 80023e4:	6078      	str	r0, [r7, #4]
 80023e6:	6039      	str	r1, [r7, #0]
 80023e8:	687b      	ldr	r3, [r7, #4]
 80023ea:	795b      	ldrb	r3, [r3, #5]
 80023ec:	2b01      	cmp	r3, #1
 80023ee:	d101      	bne.n	80023f4 <HAL_DAC_Start+0x16>
 80023f0:	2302      	movs	r3, #2
 80023f2:	e040      	b.n	8002476 <HAL_DAC_Start+0x98>
 80023f4:	687b      	ldr	r3, [r7, #4]
 80023f6:	2201      	movs	r2, #1
 80023f8:	715a      	strb	r2, [r3, #5]
 80023fa:	687b      	ldr	r3, [r7, #4]
 80023fc:	2202      	movs	r2, #2
 80023fe:	711a      	strb	r2, [r3, #4]
 8002400:	687b      	ldr	r3, [r7, #4]
 8002402:	681b      	ldr	r3, [r3, #0]
 8002404:	6819      	ldr	r1, [r3, #0]
 8002406:	683b      	ldr	r3, [r7, #0]
 8002408:	f003 0310 	and.w	r3, r3, #16
 800240c:	2201      	movs	r2, #1
 800240e:	409a      	lsls	r2, r3
 8002410:	687b      	ldr	r3, [r7, #4]
 8002412:	681b      	ldr	r3, [r3, #0]
 8002414:	430a      	orrs	r2, r1
 8002416:	601a      	str	r2, [r3, #0]
 8002418:	683b      	ldr	r3, [r7, #0]
 800241a:	2b00      	cmp	r3, #0
 800241c:	d10f      	bne.n	800243e <HAL_DAC_Start+0x60>
 800241e:	687b      	ldr	r3, [r7, #4]
 8002420:	681b      	ldr	r3, [r3, #0]
 8002422:	681b      	ldr	r3, [r3, #0]
 8002424:	f003 033e 	and.w	r3, r3, #62	; 0x3e
 8002428:	2b02      	cmp	r3, #2
 800242a:	d11d      	bne.n	8002468 <HAL_DAC_Start+0x8a>
 800242c:	687b      	ldr	r3, [r7, #4]
 800242e:	681b      	ldr	r3, [r3, #0]
 8002430:	685a      	ldr	r2, [r3, #4]
 8002432:	687b      	ldr	r3, [r7, #4]
 8002434:	681b      	ldr	r3, [r3, #0]
 8002436:	f042 0201 	orr.w	r2, r2, #1
 800243a:	605a      	str	r2, [r3, #4]
 800243c:	e014      	b.n	8002468 <HAL_DAC_Start+0x8a>
 800243e:	687b      	ldr	r3, [r7, #4]
 8002440:	681b      	ldr	r3, [r3, #0]
 8002442:	681b      	ldr	r3, [r3, #0]
 8002444:	f403 1278 	and.w	r2, r3, #4063232	; 0x3e0000
 8002448:	683b      	ldr	r3, [r7, #0]
 800244a:	f003 0310 	and.w	r3, r3, #16
 800244e:	2102      	movs	r1, #2
 8002450:	fa01 f303 	lsl.w	r3, r1, r3
 8002454:	429a      	cmp	r2, r3
 8002456:	d107      	bne.n	8002468 <HAL_DAC_Start+0x8a>
 8002458:	687b      	ldr	r3, [r7, #4]
 800245a:	681b      	ldr	r3, [r3, #0]
 800245c:	685a      	ldr	r2, [r3, #4]
 800245e:	687b      	ldr	r3, [r7, #4]
 8002460:	681b      	ldr	r3, [r3, #0]
 8002462:	f042 0202 	orr.w	r2, r2, #2
 8002466:	605a      	str	r2, [r3, #4]
 8002468:	687b      	ldr	r3, [r7, #4]
 800246a:	2201      	movs	r2, #1
 800246c:	711a      	strb	r2, [r3, #4]
 800246e:	687b      	ldr	r3, [r7, #4]
 8002470:	2200      	movs	r2, #0
 8002472:	715a      	strb	r2, [r3, #5]
 8002474:	2300      	movs	r3, #0
 8002476:	4618      	mov	r0, r3
 8002478:	370c      	adds	r7, #12
 800247a:	46bd      	mov	sp, r7
 800247c:	f85d 7b04 	ldr.w	r7, [sp], #4
 8002480:	4770      	bx	lr

08002482 <HAL_DAC_Stop>:
 8002482:	b480      	push	{r7}
 8002484:	b083      	sub	sp, #12
 8002486:	af00      	add	r7, sp, #0
 8002488:	6078      	str	r0, [r7, #4]
 800248a:	6039      	str	r1, [r7, #0]
 800248c:	687b      	ldr	r3, [r7, #4]
 800248e:	681b      	ldr	r3, [r3, #0]
 8002490:	6819      	ldr	r1, [r3, #0]
 8002492:	683b      	ldr	r3, [r7, #0]
 8002494:	f003 0310 	and.w	r3, r3, #16
 8002498:	2201      	movs	r2, #1
 800249a:	fa02 f303 	lsl.w	r3, r2, r3
 800249e:	43da      	mvns	r2, r3
 80024a0:	687b      	ldr	r3, [r7, #4]
 80024a2:	681b      	ldr	r3, [r3, #0]
 80024a4:	400a      	ands	r2, r1
 80024a6:	601a      	str	r2, [r3, #0]
 80024a8:	687b      	ldr	r3, [r7, #4]
 80024aa:	2201      	movs	r2, #1
 80024ac:	711a      	strb	r2, [r3, #4]
 80024ae:	2300      	movs	r3, #0
 80024b0:	4618      	mov	r0, r3
 80024b2:	370c      	adds	r7, #12
 80024b4:	46bd      	mov	sp, r7
 80024b6:	f85d 7b04 	ldr.w	r7, [sp], #4
 80024ba:	4770      	bx	lr

080024bc <HAL_DAC_SetValue>:
 80024bc:	b480      	push	{r7}
 80024be:	b087      	sub	sp, #28
 80024c0:	af00      	add	r7, sp, #0
 80024c2:	60f8      	str	r0, [r7, #12]
 80024c4:	60b9      	str	r1, [r7, #8]
 80024c6:	607a      	str	r2, [r7, #4]
 80024c8:	603b      	str	r3, [r7, #0]
 80024ca:	2300      	movs	r3, #0
 80024cc:	617b      	str	r3, [r7, #20]
 80024ce:	68fb      	ldr	r3, [r7, #12]
 80024d0:	681b      	ldr	r3, [r3, #0]
 80024d2:	617b      	str	r3, [r7, #20]
 80024d4:	68bb      	ldr	r3, [r7, #8]
 80024d6:	2b00      	cmp	r3, #0
 80024d8:	d105      	bne.n	80024e6 <HAL_DAC_SetValue+0x2a>
 80024da:	697a      	ldr	r2, [r7, #20]
 80024dc:	687b      	ldr	r3, [r7, #4]
 80024de:	4413      	add	r3, r2
 80024e0:	3308      	adds	r3, #8
 80024e2:	617b      	str	r3, [r7, #20]
 80024e4:	e004      	b.n	80024f0 <HAL_DAC_SetValue+0x34>
 80024e6:	697a      	ldr	r2, [r7, #20]
 80024e8:	687b      	ldr	r3, [r7, #4]
 80024ea:	4413      	add	r3, r2
 80024ec:	3314      	adds	r3, #20
 80024ee:	617b      	str	r3, [r7, #20]
 80024f0:	697b      	ldr	r3, [r7, #20]
 80024f2:	461a      	mov	r2, r3
 80024f4:	683b      	ldr	r3, [r7, #0]
 80024f6:	6013      	str	r3, [r2, #0]
 80024f8:	2300      	movs	r3, #0
 80024fa:	4618      	mov	r0, r3
 80024fc:	371c      	adds	r7, #28
 80024fe:	46bd      	mov	sp, r7
 8002500:	f85d 7b04 	ldr.w	r7, [sp], #4
 8002504:	4770      	bx	lr
	...

08002508 <HAL_DAC_ConfigChannel>:
 8002508:	b580      	push	{r7, lr}
 800250a:	b088      	sub	sp, #32
 800250c:	af00      	add	r7, sp, #0
 800250e:	60f8      	str	r0, [r7, #12]
 8002510:	60b9      	str	r1, [r7, #8]
 8002512:	607a      	str	r2, [r7, #4]
 8002514:	2300      	movs	r3, #0
 8002516:	61bb      	str	r3, [r7, #24]
 8002518:	68fb      	ldr	r3, [r7, #12]
 800251a:	795b      	ldrb	r3, [r3, #5]
 800251c:	2b01      	cmp	r3, #1
 800251e:	d101      	bne.n	8002524 <HAL_DAC_ConfigChannel+0x1c>
 8002520:	2302      	movs	r3, #2
 8002522:	e12a      	b.n	800277a <HAL_DAC_ConfigChannel+0x272>
 8002524:	68fb      	ldr	r3, [r7, #12]
 8002526:	2201      	movs	r2, #1
 8002528:	715a      	strb	r2, [r3, #5]
 800252a:	68fb      	ldr	r3, [r7, #12]
 800252c:	2202      	movs	r2, #2
 800252e:	711a      	strb	r2, [r3, #4]
 8002530:	68bb      	ldr	r3, [r7, #8]
 8002532:	685b      	ldr	r3, [r3, #4]
 8002534:	2b04      	cmp	r3, #4
 8002536:	d174      	bne.n	8002622 <HAL_DAC_ConfigChannel+0x11a>
 8002538:	f7fe fbd6 	bl	8000ce8 <HAL_GetTick>
 800253c:	61b8      	str	r0, [r7, #24]
 800253e:	687b      	ldr	r3, [r7, #4]
 8002540:	2b00      	cmp	r3, #0
 8002542:	d134      	bne.n	80025ae <HAL_DAC_ConfigChannel+0xa6>
 8002544:	e011      	b.n	800256a <HAL_DAC_ConfigChannel+0x62>
 8002546:	f7fe fbcf 	bl	8000ce8 <HAL_GetTick>
 800254a:	4602      	mov	r2, r0
 800254c:	69bb      	ldr	r3, [r7, #24]
 800254e:	1ad3      	subs	r3, r2, r3
 8002550:	2b01      	cmp	r3, #1
 8002552:	d90a      	bls.n	800256a <HAL_DAC_ConfigChannel+0x62>
 8002554:	68fb      	ldr	r3, [r7, #12]
 8002556:	691b      	ldr	r3, [r3, #16]
 8002558:	f043 0208 	orr.w	r2, r3, #8
 800255c:	68fb      	ldr	r3, [r7, #12]
 800255e:	611a      	str	r2, [r3, #16]
 8002560:	68fb      	ldr	r3, [r7, #12]
 8002562:	2203      	movs	r2, #3
 8002564:	711a      	strb	r2, [r3, #4]
 8002566:	2303      	movs	r3, #3
 8002568:	e107      	b.n	800277a <HAL_DAC_ConfigChannel+0x272>
 800256a:	68fb      	ldr	r3, [r7, #12]
 800256c:	681b      	ldr	r3, [r3, #0]
 800256e:	6b5b      	ldr	r3, [r3, #52]	; 0x34
 8002570:	f403 4300 	and.w	r3, r3, #32768	; 0x8000
 8002574:	2b00      	cmp	r3, #0
 8002576:	d1e6      	bne.n	8002546 <HAL_DAC_ConfigChannel+0x3e>
 8002578:	2001      	movs	r0, #1
 800257a:	f7fe fbc1 	bl	8000d00 <HAL_Delay>
 800257e:	68fb      	ldr	r3, [r7, #12]
 8002580:	681b      	ldr	r3, [r3, #0]
 8002582:	68ba      	ldr	r2, [r7, #8]
 8002584:	69d2      	ldr	r2, [r2, #28]
 8002586:	641a      	str	r2, [r3, #64]	; 0x40
 8002588:	e01e      	b.n	80025c8 <HAL_DAC_ConfigChannel+0xc0>
 800258a:	f7fe fbad 	bl	8000ce8 <HAL_GetTick>
 800258e:	4602      	mov	r2, r0
 8002590:	69bb      	ldr	r3, [r7, #24]
 8002592:	1ad3      	subs	r3, r2, r3
 8002594:	2b01      	cmp	r3, #1
 8002596:	d90a      	bls.n	80025ae <HAL_DAC_ConfigChannel+0xa6>
 8002598:	68fb      	ldr	r3, [r7, #12]
 800259a:	691b      	ldr	r3, [r3, #16]
 800259c:	f043 0208 	orr.w	r2, r3, #8
 80025a0:	68fb      	ldr	r3, [r7, #12]
 80025a2:	611a      	str	r2, [r3, #16]
 80025a4:	68fb      	ldr	r3, [r7, #12]
 80025a6:	2203      	movs	r2, #3
 80025a8:	711a      	strb	r2, [r3, #4]
 80025aa:	2303      	movs	r3, #3
 80025ac:	e0e5      	b.n	800277a <HAL_DAC_ConfigChannel+0x272>
 80025ae:	68fb      	ldr	r3, [r7, #12]
 80025b0:	681b      	ldr	r3, [r3, #0]
 80025b2:	6b5b      	ldr	r3, [r3, #52]	; 0x34
 80025b4:	2b00      	cmp	r3, #0
 80025b6:	dbe8      	blt.n	800258a <HAL_DAC_ConfigChannel+0x82>
 80025b8:	2001      	movs	r0, #1
 80025ba:	f7fe fba1 	bl	8000d00 <HAL_Delay>
 80025be:	68fb      	ldr	r3, [r7, #12]
 80025c0:	681b      	ldr	r3, [r3, #0]
 80025c2:	68ba      	ldr	r2, [r7, #8]
 80025c4:	69d2      	ldr	r2, [r2, #28]
 80025c6:	645a      	str	r2, [r3, #68]	; 0x44
 80025c8:	68fb      	ldr	r3, [r7, #12]
 80025ca:	681b      	ldr	r3, [r3, #0]
 80025cc:	6c9a      	ldr	r2, [r3, #72]	; 0x48
 80025ce:	687b      	ldr	r3, [r7, #4]
 80025d0:	f003 0310 	and.w	r3, r3, #16
 80025d4:	f240 31ff 	movw	r1, #1023	; 0x3ff
 80025d8:	fa01 f303 	lsl.w	r3, r1, r3
 80025dc:	43db      	mvns	r3, r3
 80025de:	ea02 0103 	and.w	r1, r2, r3
 80025e2:	68bb      	ldr	r3, [r7, #8]
 80025e4:	6a1a      	ldr	r2, [r3, #32]
 80025e6:	687b      	ldr	r3, [r7, #4]
 80025e8:	f003 0310 	and.w	r3, r3, #16
 80025ec:	409a      	lsls	r2, r3
 80025ee:	68fb      	ldr	r3, [r7, #12]
 80025f0:	681b      	ldr	r3, [r3, #0]
 80025f2:	430a      	orrs	r2, r1
 80025f4:	649a      	str	r2, [r3, #72]	; 0x48
 80025f6:	68fb      	ldr	r3, [r7, #12]
 80025f8:	681b      	ldr	r3, [r3, #0]
 80025fa:	6cda      	ldr	r2, [r3, #76]	; 0x4c
 80025fc:	687b      	ldr	r3, [r7, #4]
 80025fe:	f003 0310 	and.w	r3, r3, #16
 8002602:	21ff      	movs	r1, #255	; 0xff
 8002604:	fa01 f303 	lsl.w	r3, r1, r3
 8002608:	43db      	mvns	r3, r3
 800260a:	ea02 0103 	and.w	r1, r2, r3
 800260e:	68bb      	ldr	r3, [r7, #8]
 8002610:	6a5a      	ldr	r2, [r3, #36]	; 0x24
 8002612:	687b      	ldr	r3, [r7, #4]
 8002614:	f003 0310 	and.w	r3, r3, #16
 8002618:	409a      	lsls	r2, r3
 800261a:	68fb      	ldr	r3, [r7, #12]
 800261c:	681b      	ldr	r3, [r3, #0]
 800261e:	430a      	orrs	r2, r1
 8002620:	64da      	str	r2, [r3, #76]	; 0x4c
 8002622:	68bb      	ldr	r3, [r7, #8]
 8002624:	695b      	ldr	r3, [r3, #20]
 8002626:	2b01      	cmp	r3, #1
 8002628:	d11d      	bne.n	8002666 <HAL_DAC_ConfigChannel+0x15e>
 800262a:	68fb      	ldr	r3, [r7, #12]
 800262c:	681b      	ldr	r3, [r3, #0]
 800262e:	6b9b      	ldr	r3, [r3, #56]	; 0x38
 8002630:	61fb      	str	r3, [r7, #28]
 8002632:	687b      	ldr	r3, [r7, #4]
 8002634:	f003 0310 	and.w	r3, r3, #16
 8002638:	221f      	movs	r2, #31
 800263a:	fa02 f303 	lsl.w	r3, r2, r3
 800263e:	43db      	mvns	r3, r3
 8002640:	69fa      	ldr	r2, [r7, #28]
 8002642:	4013      	ands	r3, r2
 8002644:	61fb      	str	r3, [r7, #28]
 8002646:	68bb      	ldr	r3, [r7, #8]
 8002648:	699b      	ldr	r3, [r3, #24]
 800264a:	617b      	str	r3, [r7, #20]
 800264c:	687b      	ldr	r3, [r7, #4]
 800264e:	f003 0310 	and.w	r3, r3, #16
 8002652:	697a      	ldr	r2, [r7, #20]
 8002654:	fa02 f303 	lsl.w	r3, r2, r3
 8002658:	69fa      	ldr	r2, [r7, #28]
 800265a:	4313      	orrs	r3, r2
 800265c:	61fb      	str	r3, [r7, #28]
 800265e:	68fb      	ldr	r3, [r7, #12]
 8002660:	681b      	ldr	r3, [r3, #0]
 8002662:	69fa      	ldr	r2, [r7, #28]
 8002664:	639a      	str	r2, [r3, #56]	; 0x38
 8002666:	68fb      	ldr	r3, [r7, #12]
 8002668:	681b      	ldr	r3, [r3, #0]
 800266a:	6bdb      	ldr	r3, [r3, #60]	; 0x3c
 800266c:	61fb      	str	r3, [r7, #28]
 800266e:	687b      	ldr	r3, [r7, #4]
 8002670:	f003 0310 	and.w	r3, r3, #16
 8002674:	2207      	movs	r2, #7
 8002676:	fa02 f303 	lsl.w	r3, r2, r3
 800267a:	43db      	mvns	r3, r3
 800267c:	69fa      	ldr	r2, [r7, #28]
 800267e:	4013      	ands	r3, r2
 8002680:	61fb      	str	r3, [r7, #28]
 8002682:	68bb      	ldr	r3, [r7, #8]
 8002684:	685a      	ldr	r2, [r3, #4]
 8002686:	68bb      	ldr	r3, [r7, #8]
 8002688:	68db      	ldr	r3, [r3, #12]
 800268a:	431a      	orrs	r2, r3
 800268c:	68bb      	ldr	r3, [r7, #8]
 800268e:	691b      	ldr	r3, [r3, #16]
 8002690:	4313      	orrs	r3, r2
 8002692:	617b      	str	r3, [r7, #20]
 8002694:	687b      	ldr	r3, [r7, #4]
 8002696:	f003 0310 	and.w	r3, r3, #16
 800269a:	697a      	ldr	r2, [r7, #20]
 800269c:	fa02 f303 	lsl.w	r3, r2, r3
 80026a0:	69fa      	ldr	r2, [r7, #28]
 80026a2:	4313      	orrs	r3, r2
 80026a4:	61fb      	str	r3, [r7, #28]
 80026a6:	68fb      	ldr	r3, [r7, #12]
 80026a8:	681b      	ldr	r3, [r3, #0]
 80026aa:	69fa      	ldr	r2, [r7, #28]
 80026ac:	63da      	str	r2, [r3, #60]	; 0x3c
 80026ae:	68fb      	ldr	r3, [r7, #12]
 80026b0:	681b      	ldr	r3, [r3, #0]
 80026b2:	6819      	ldr	r1, [r3, #0]
 80026b4:	687b      	ldr	r3, [r7, #4]
 80026b6:	f003 0310 	and.w	r3, r3, #16
 80026ba:	f44f 4280 	mov.w	r2, #16384	; 0x4000
 80026be:	fa02 f303 	lsl.w	r3, r2, r3
 80026c2:	43da      	mvns	r2, r3
 80026c4:	68fb      	ldr	r3, [r7, #12]
 80026c6:	681b      	ldr	r3, [r3, #0]
 80026c8:	400a      	ands	r2, r1
 80026ca:	601a      	str	r2, [r3, #0]
 80026cc:	68fb      	ldr	r3, [r7, #12]
 80026ce:	681b      	ldr	r3, [r3, #0]
 80026d0:	681b      	ldr	r3, [r3, #0]
 80026d2:	61fb      	str	r3, [r7, #28]
 80026d4:	687b      	ldr	r3, [r7, #4]
 80026d6:	f003 0310 	and.w	r3, r3, #16
 80026da:	f640 72fe 	movw	r2, #4094	; 0xffe
 80026de:	fa02 f303 	lsl.w	r3, r2, r3
 80026e2:	43db      	mvns	r3, r3
 80026e4:	69fa      	ldr	r2, [r7, #28]
 80026e6:	4013      	ands	r3, r2
 80026e8:	61fb      	str	r3, [r7, #28]
 80026ea:	68bb      	ldr	r3, [r7, #8]
 80026ec:	689b      	ldr	r3, [r3, #8]
 80026ee:	617b      	str	r3, [r7, #20]
 80026f0:	687b      	ldr	r3, [r7, #4]
 80026f2:	f003 0310 	and.w	r3, r3, #16
 80026f6:	697a      	ldr	r2, [r7, #20]
 80026f8:	fa02 f303 	lsl.w	r3, r2, r3
 80026fc:	69fa      	ldr	r2, [r7, #28]
 80026fe:	4313      	orrs	r3, r2
 8002700:	61fb      	str	r3, [r7, #28]
 8002702:	68bb      	ldr	r3, [r7, #8]
 8002704:	681b      	ldr	r3, [r3, #0]
 8002706:	f5b3 4f00 	cmp.w	r3, #32768	; 0x8000
 800270a:	d104      	bne.n	8002716 <HAL_DAC_ConfigChannel+0x20e>
 800270c:	69fb      	ldr	r3, [r7, #28]
 800270e:	f443 4300 	orr.w	r3, r3, #32768	; 0x8000
 8002712:	61fb      	str	r3, [r7, #28]
 8002714:	e018      	b.n	8002748 <HAL_DAC_ConfigChannel+0x240>
 8002716:	68bb      	ldr	r3, [r7, #8]
 8002718:	681b      	ldr	r3, [r3, #0]
 800271a:	2b00      	cmp	r3, #0
 800271c:	d104      	bne.n	8002728 <HAL_DAC_ConfigChannel+0x220>
 800271e:	69fb      	ldr	r3, [r7, #28]
 8002720:	f423 4300 	bic.w	r3, r3, #32768	; 0x8000
 8002724:	61fb      	str	r3, [r7, #28]
 8002726:	e00f      	b.n	8002748 <HAL_DAC_ConfigChannel+0x240>
 8002728:	f001 f87c 	bl	8003824 <HAL_RCC_GetHCLKFreq>
 800272c:	6138      	str	r0, [r7, #16]
 800272e:	693b      	ldr	r3, [r7, #16]
 8002730:	4a14      	ldr	r2, [pc, #80]	; (8002784 <HAL_DAC_ConfigChannel+0x27c>)
 8002732:	4293      	cmp	r3, r2
 8002734:	d904      	bls.n	8002740 <HAL_DAC_ConfigChannel+0x238>
 8002736:	69fb      	ldr	r3, [r7, #28]
 8002738:	f443 4300 	orr.w	r3, r3, #32768	; 0x8000
 800273c:	61fb      	str	r3, [r7, #28]
 800273e:	e003      	b.n	8002748 <HAL_DAC_ConfigChannel+0x240>
 8002740:	69fb      	ldr	r3, [r7, #28]
 8002742:	f423 4300 	bic.w	r3, r3, #32768	; 0x8000
 8002746:	61fb      	str	r3, [r7, #28]
 8002748:	68fb      	ldr	r3, [r7, #12]
 800274a:	681b      	ldr	r3, [r3, #0]
 800274c:	69fa      	ldr	r2, [r7, #28]
 800274e:	601a      	str	r2, [r3, #0]
 8002750:	68fb      	ldr	r3, [r7, #12]
 8002752:	681b      	ldr	r3, [r3, #0]
 8002754:	6819      	ldr	r1, [r3, #0]
 8002756:	687b      	ldr	r3, [r7, #4]
 8002758:	f003 0310 	and.w	r3, r3, #16
 800275c:	22c0      	movs	r2, #192	; 0xc0
 800275e:	fa02 f303 	lsl.w	r3, r2, r3
 8002762:	43da      	mvns	r2, r3
 8002764:	68fb      	ldr	r3, [r7, #12]
 8002766:	681b      	ldr	r3, [r3, #0]
 8002768:	400a      	ands	r2, r1
 800276a:	601a      	str	r2, [r3, #0]
 800276c:	68fb      	ldr	r3, [r7, #12]
 800276e:	2201      	movs	r2, #1
 8002770:	711a      	strb	r2, [r3, #4]
 8002772:	68fb      	ldr	r3, [r7, #12]
 8002774:	2200      	movs	r2, #0
 8002776:	715a      	strb	r2, [r3, #5]
 8002778:	2300      	movs	r3, #0
 800277a:	4618      	mov	r0, r3
 800277c:	3720      	adds	r7, #32
 800277e:	46bd      	mov	sp, r7
 8002780:	bd80      	pop	{r7, pc}
 8002782:	bf00      	nop
 8002784:	04c4b400 	.word	0x04c4b400

08002788 <HAL_GPIO_Init>:
 8002788:	b480      	push	{r7}
 800278a:	b087      	sub	sp, #28
 800278c:	af00      	add	r7, sp, #0
 800278e:	6078      	str	r0, [r7, #4]
 8002790:	6039      	str	r1, [r7, #0]
 8002792:	2300      	movs	r3, #0
 8002794:	617b      	str	r3, [r7, #20]
 8002796:	e166      	b.n	8002a66 <HAL_GPIO_Init+0x2de>
 8002798:	683b      	ldr	r3, [r7, #0]
 800279a:	681a      	ldr	r2, [r3, #0]
 800279c:	2101      	movs	r1, #1
 800279e:	697b      	ldr	r3, [r7, #20]
 80027a0:	fa01 f303 	lsl.w	r3, r1, r3
 80027a4:	4013      	ands	r3, r2
 80027a6:	60fb      	str	r3, [r7, #12]
 80027a8:	68fb      	ldr	r3, [r7, #12]
 80027aa:	2b00      	cmp	r3, #0
 80027ac:	f000 8158 	beq.w	8002a60 <HAL_GPIO_Init+0x2d8>
 80027b0:	683b      	ldr	r3, [r7, #0]
 80027b2:	685b      	ldr	r3, [r3, #4]
 80027b4:	f003 0303 	and.w	r3, r3, #3
 80027b8:	2b01      	cmp	r3, #1
 80027ba:	d005      	beq.n	80027c8 <HAL_GPIO_Init+0x40>
 80027bc:	683b      	ldr	r3, [r7, #0]
 80027be:	685b      	ldr	r3, [r3, #4]
 80027c0:	f003 0303 	and.w	r3, r3, #3
 80027c4:	2b02      	cmp	r3, #2
 80027c6:	d130      	bne.n	800282a <HAL_GPIO_Init+0xa2>
 80027c8:	687b      	ldr	r3, [r7, #4]
 80027ca:	689b      	ldr	r3, [r3, #8]
 80027cc:	613b      	str	r3, [r7, #16]
 80027ce:	697b      	ldr	r3, [r7, #20]
 80027d0:	005b      	lsls	r3, r3, #1
 80027d2:	2203      	movs	r2, #3
 80027d4:	fa02 f303 	lsl.w	r3, r2, r3
 80027d8:	43db      	mvns	r3, r3
 80027da:	693a      	ldr	r2, [r7, #16]
 80027dc:	4013      	ands	r3, r2
 80027de:	613b      	str	r3, [r7, #16]
 80027e0:	683b      	ldr	r3, [r7, #0]
 80027e2:	68da      	ldr	r2, [r3, #12]
 80027e4:	697b      	ldr	r3, [r7, #20]
 80027e6:	005b      	lsls	r3, r3, #1
 80027e8:	fa02 f303 	lsl.w	r3, r2, r3
 80027ec:	693a      	ldr	r2, [r7, #16]
 80027ee:	4313      	orrs	r3, r2
 80027f0:	613b      	str	r3, [r7, #16]
 80027f2:	687b      	ldr	r3, [r7, #4]
 80027f4:	693a      	ldr	r2, [r7, #16]
 80027f6:	609a      	str	r2, [r3, #8]
 80027f8:	687b      	ldr	r3, [r7, #4]
 80027fa:	685b      	ldr	r3, [r3, #4]
 80027fc:	613b      	str	r3, [r7, #16]
 80027fe:	2201      	movs	r2, #1
 8002800:	697b      	ldr	r3, [r7, #20]
 8002802:	fa02 f303 	lsl.w	r3, r2, r3
 8002806:	43db      	mvns	r3, r3
 8002808:	693a      	ldr	r2, [r7, #16]
 800280a:	4013      	ands	r3, r2
 800280c:	613b      	str	r3, [r7, #16]
 800280e:	683b      	ldr	r3, [r7, #0]
 8002810:	685b      	ldr	r3, [r3, #4]
 8002812:	091b      	lsrs	r3, r3, #4
 8002814:	f003 0201 	and.w	r2, r3, #1
 8002818:	697b      	ldr	r3, [r7, #20]
 800281a:	fa02 f303 	lsl.w	r3, r2, r3
 800281e:	693a      	ldr	r2, [r7, #16]
 8002820:	4313      	orrs	r3, r2
 8002822:	613b      	str	r3, [r7, #16]
 8002824:	687b      	ldr	r3, [r7, #4]
 8002826:	693a      	ldr	r2, [r7, #16]
 8002828:	605a      	str	r2, [r3, #4]
 800282a:	683b      	ldr	r3, [r7, #0]
 800282c:	685b      	ldr	r3, [r3, #4]
 800282e:	f003 0303 	and.w	r3, r3, #3
 8002832:	2b03      	cmp	r3, #3
 8002834:	d017      	beq.n	8002866 <HAL_GPIO_Init+0xde>
 8002836:	687b      	ldr	r3, [r7, #4]
 8002838:	68db      	ldr	r3, [r3, #12]
 800283a:	613b      	str	r3, [r7, #16]
 800283c:	697b      	ldr	r3, [r7, #20]
 800283e:	005b      	lsls	r3, r3, #1
 8002840:	2203      	movs	r2, #3
 8002842:	fa02 f303 	lsl.w	r3, r2, r3
 8002846:	43db      	mvns	r3, r3
 8002848:	693a      	ldr	r2, [r7, #16]
 800284a:	4013      	ands	r3, r2
 800284c:	613b      	str	r3, [r7, #16]
 800284e:	683b      	ldr	r3, [r7, #0]
 8002850:	689a      	ldr	r2, [r3, #8]
 8002852:	697b      	ldr	r3, [r7, #20]
 8002854:	005b      	lsls	r3, r3, #1
 8002856:	fa02 f303 	lsl.w	r3, r2, r3
 800285a:	693a      	ldr	r2, [r7, #16]
 800285c:	4313      	orrs	r3, r2
 800285e:	613b      	str	r3, [r7, #16]
 8002860:	687b      	ldr	r3, [r7, #4]
 8002862:	693a      	ldr	r2, [r7, #16]
 8002864:	60da      	str	r2, [r3, #12]
 8002866:	683b      	ldr	r3, [r7, #0]
 8002868:	685b      	ldr	r3, [r3, #4]
 800286a:	f003 0303 	and.w	r3, r3, #3
 800286e:	2b02      	cmp	r3, #2
 8002870:	d123      	bne.n	80028ba <HAL_GPIO_Init+0x132>
 8002872:	697b      	ldr	r3, [r7, #20]
 8002874:	08da      	lsrs	r2, r3, #3
 8002876:	687b      	ldr	r3, [r7, #4]
 8002878:	3208      	adds	r2, #8
 800287a:	f853 3022 	ldr.w	r3, [r3, r2, lsl #2]
 800287e:	613b      	str	r3, [r7, #16]
 8002880:	697b      	ldr	r3, [r7, #20]
 8002882:	f003 0307 	and.w	r3, r3, #7
 8002886:	009b      	lsls	r3, r3, #2
 8002888:	220f      	movs	r2, #15
 800288a:	fa02 f303 	lsl.w	r3, r2, r3
 800288e:	43db      	mvns	r3, r3
 8002890:	693a      	ldr	r2, [r7, #16]
 8002892:	4013      	ands	r3, r2
 8002894:	613b      	str	r3, [r7, #16]
 8002896:	683b      	ldr	r3, [r7, #0]
 8002898:	691a      	ldr	r2, [r3, #16]
 800289a:	697b      	ldr	r3, [r7, #20]
 800289c:	f003 0307 	and.w	r3, r3, #7
 80028a0:	009b      	lsls	r3, r3, #2
 80028a2:	fa02 f303 	lsl.w	r3, r2, r3
 80028a6:	693a      	ldr	r2, [r7, #16]
 80028a8:	4313      	orrs	r3, r2
 80028aa:	613b      	str	r3, [r7, #16]
 80028ac:	697b      	ldr	r3, [r7, #20]
 80028ae:	08da      	lsrs	r2, r3, #3
 80028b0:	687b      	ldr	r3, [r7, #4]
 80028b2:	3208      	adds	r2, #8
 80028b4:	6939      	ldr	r1, [r7, #16]
 80028b6:	f843 1022 	str.w	r1, [r3, r2, lsl #2]
 80028ba:	687b      	ldr	r3, [r7, #4]
 80028bc:	681b      	ldr	r3, [r3, #0]
 80028be:	613b      	str	r3, [r7, #16]
 80028c0:	697b      	ldr	r3, [r7, #20]
 80028c2:	005b      	lsls	r3, r3, #1
 80028c4:	2203      	movs	r2, #3
 80028c6:	fa02 f303 	lsl.w	r3, r2, r3
 80028ca:	43db      	mvns	r3, r3
 80028cc:	693a      	ldr	r2, [r7, #16]
 80028ce:	4013      	ands	r3, r2
 80028d0:	613b      	str	r3, [r7, #16]
 80028d2:	683b      	ldr	r3, [r7, #0]
 80028d4:	685b      	ldr	r3, [r3, #4]
 80028d6:	f003 0203 	and.w	r2, r3, #3
 80028da:	697b      	ldr	r3, [r7, #20]
 80028dc:	005b      	lsls	r3, r3, #1
 80028de:	fa02 f303 	lsl.w	r3, r2, r3
 80028e2:	693a      	ldr	r2, [r7, #16]
 80028e4:	4313      	orrs	r3, r2
 80028e6:	613b      	str	r3, [r7, #16]
 80028e8:	687b      	ldr	r3, [r7, #4]
 80028ea:	693a      	ldr	r2, [r7, #16]
 80028ec:	601a      	str	r2, [r3, #0]
 80028ee:	683b      	ldr	r3, [r7, #0]
 80028f0:	685b      	ldr	r3, [r3, #4]
 80028f2:	f403 3340 	and.w	r3, r3, #196608	; 0x30000
 80028f6:	2b00      	cmp	r3, #0
 80028f8:	f000 80b2 	beq.w	8002a60 <HAL_GPIO_Init+0x2d8>
 80028fc:	4b61      	ldr	r3, [pc, #388]	; (8002a84 <HAL_GPIO_Init+0x2fc>)
 80028fe:	6e1b      	ldr	r3, [r3, #96]	; 0x60
 8002900:	4a60      	ldr	r2, [pc, #384]	; (8002a84 <HAL_GPIO_Init+0x2fc>)
 8002902:	f043 0301 	orr.w	r3, r3, #1
 8002906:	6613      	str	r3, [r2, #96]	; 0x60
 8002908:	4b5e      	ldr	r3, [pc, #376]	; (8002a84 <HAL_GPIO_Init+0x2fc>)
 800290a:	6e1b      	ldr	r3, [r3, #96]	; 0x60
 800290c:	f003 0301 	and.w	r3, r3, #1
 8002910:	60bb      	str	r3, [r7, #8]
 8002912:	68bb      	ldr	r3, [r7, #8]
 8002914:	4a5c      	ldr	r2, [pc, #368]	; (8002a88 <HAL_GPIO_Init+0x300>)
 8002916:	697b      	ldr	r3, [r7, #20]
 8002918:	089b      	lsrs	r3, r3, #2
 800291a:	3302      	adds	r3, #2
 800291c:	f852 3023 	ldr.w	r3, [r2, r3, lsl #2]
 8002920:	613b      	str	r3, [r7, #16]
 8002922:	697b      	ldr	r3, [r7, #20]
 8002924:	f003 0303 	and.w	r3, r3, #3
 8002928:	009b      	lsls	r3, r3, #2
 800292a:	220f      	movs	r2, #15
 800292c:	fa02 f303 	lsl.w	r3, r2, r3
 8002930:	43db      	mvns	r3, r3
 8002932:	693a      	ldr	r2, [r7, #16]
 8002934:	4013      	ands	r3, r2
 8002936:	613b      	str	r3, [r7, #16]
 8002938:	687b      	ldr	r3, [r7, #4]
 800293a:	f1b3 4f90 	cmp.w	r3, #1207959552	; 0x48000000
 800293e:	d02b      	beq.n	8002998 <HAL_GPIO_Init+0x210>
 8002940:	687b      	ldr	r3, [r7, #4]
 8002942:	4a52      	ldr	r2, [pc, #328]	; (8002a8c <HAL_GPIO_Init+0x304>)
 8002944:	4293      	cmp	r3, r2
 8002946:	d025      	beq.n	8002994 <HAL_GPIO_Init+0x20c>
 8002948:	687b      	ldr	r3, [r7, #4]
 800294a:	4a51      	ldr	r2, [pc, #324]	; (8002a90 <HAL_GPIO_Init+0x308>)
 800294c:	4293      	cmp	r3, r2
 800294e:	d01f      	beq.n	8002990 <HAL_GPIO_Init+0x208>
 8002950:	687b      	ldr	r3, [r7, #4]
 8002952:	4a50      	ldr	r2, [pc, #320]	; (8002a94 <HAL_GPIO_Init+0x30c>)
 8002954:	4293      	cmp	r3, r2
 8002956:	d019      	beq.n	800298c <HAL_GPIO_Init+0x204>
 8002958:	687b      	ldr	r3, [r7, #4]
 800295a:	4a4f      	ldr	r2, [pc, #316]	; (8002a98 <HAL_GPIO_Init+0x310>)
 800295c:	4293      	cmp	r3, r2
 800295e:	d013      	beq.n	8002988 <HAL_GPIO_Init+0x200>
 8002960:	687b      	ldr	r3, [r7, #4]
 8002962:	4a4e      	ldr	r2, [pc, #312]	; (8002a9c <HAL_GPIO_Init+0x314>)
 8002964:	4293      	cmp	r3, r2
 8002966:	d00d      	beq.n	8002984 <HAL_GPIO_Init+0x1fc>
 8002968:	687b      	ldr	r3, [r7, #4]
 800296a:	4a4d      	ldr	r2, [pc, #308]	; (8002aa0 <HAL_GPIO_Init+0x318>)
 800296c:	4293      	cmp	r3, r2
 800296e:	d007      	beq.n	8002980 <HAL_GPIO_Init+0x1f8>
 8002970:	687b      	ldr	r3, [r7, #4]
 8002972:	4a4c      	ldr	r2, [pc, #304]	; (8002aa4 <HAL_GPIO_Init+0x31c>)
 8002974:	4293      	cmp	r3, r2
 8002976:	d101      	bne.n	800297c <HAL_GPIO_Init+0x1f4>
 8002978:	2307      	movs	r3, #7
 800297a:	e00e      	b.n	800299a <HAL_GPIO_Init+0x212>
 800297c:	2308      	movs	r3, #8
 800297e:	e00c      	b.n	800299a <HAL_GPIO_Init+0x212>
 8002980:	2306      	movs	r3, #6
 8002982:	e00a      	b.n	800299a <HAL_GPIO_Init+0x212>
 8002984:	2305      	movs	r3, #5
 8002986:	e008      	b.n	800299a <HAL_GPIO_Init+0x212>
 8002988:	2304      	movs	r3, #4
 800298a:	e006      	b.n	800299a <HAL_GPIO_Init+0x212>
 800298c:	2303      	movs	r3, #3
 800298e:	e004      	b.n	800299a <HAL_GPIO_Init+0x212>
 8002990:	2302      	movs	r3, #2
 8002992:	e002      	b.n	800299a <HAL_GPIO_Init+0x212>
 8002994:	2301      	movs	r3, #1
 8002996:	e000      	b.n	800299a <HAL_GPIO_Init+0x212>
 8002998:	2300      	movs	r3, #0
 800299a:	697a      	ldr	r2, [r7, #20]
 800299c:	f002 0203 	and.w	r2, r2, #3
 80029a0:	0092      	lsls	r2, r2, #2
 80029a2:	4093      	lsls	r3, r2
 80029a4:	693a      	ldr	r2, [r7, #16]
 80029a6:	4313      	orrs	r3, r2
 80029a8:	613b      	str	r3, [r7, #16]
 80029aa:	4937      	ldr	r1, [pc, #220]	; (8002a88 <HAL_GPIO_Init+0x300>)
 80029ac:	697b      	ldr	r3, [r7, #20]
 80029ae:	089b      	lsrs	r3, r3, #2
 80029b0:	3302      	adds	r3, #2
 80029b2:	693a      	ldr	r2, [r7, #16]
 80029b4:	f841 2023 	str.w	r2, [r1, r3, lsl #2]
 80029b8:	4b3b      	ldr	r3, [pc, #236]	; (8002aa8 <HAL_GPIO_Init+0x320>)
 80029ba:	689b      	ldr	r3, [r3, #8]
 80029bc:	613b      	str	r3, [r7, #16]
 80029be:	68fb      	ldr	r3, [r7, #12]
 80029c0:	43db      	mvns	r3, r3
 80029c2:	693a      	ldr	r2, [r7, #16]
 80029c4:	4013      	ands	r3, r2
 80029c6:	613b      	str	r3, [r7, #16]
 80029c8:	683b      	ldr	r3, [r7, #0]
 80029ca:	685b      	ldr	r3, [r3, #4]
 80029cc:	f403 1380 	and.w	r3, r3, #1048576	; 0x100000
 80029d0:	2b00      	cmp	r3, #0
 80029d2:	d003      	beq.n	80029dc <HAL_GPIO_Init+0x254>
 80029d4:	693a      	ldr	r2, [r7, #16]
 80029d6:	68fb      	ldr	r3, [r7, #12]
 80029d8:	4313      	orrs	r3, r2
 80029da:	613b      	str	r3, [r7, #16]
 80029dc:	4a32      	ldr	r2, [pc, #200]	; (8002aa8 <HAL_GPIO_Init+0x320>)
 80029de:	693b      	ldr	r3, [r7, #16]
 80029e0:	6093      	str	r3, [r2, #8]
 80029e2:	4b31      	ldr	r3, [pc, #196]	; (8002aa8 <HAL_GPIO_Init+0x320>)
 80029e4:	68db      	ldr	r3, [r3, #12]
 80029e6:	613b      	str	r3, [r7, #16]
 80029e8:	68fb      	ldr	r3, [r7, #12]
 80029ea:	43db      	mvns	r3, r3
 80029ec:	693a      	ldr	r2, [r7, #16]
 80029ee:	4013      	ands	r3, r2
 80029f0:	613b      	str	r3, [r7, #16]
 80029f2:	683b      	ldr	r3, [r7, #0]
 80029f4:	685b      	ldr	r3, [r3, #4]
 80029f6:	f403 1300 	and.w	r3, r3, #2097152	; 0x200000
 80029fa:	2b00      	cmp	r3, #0
 80029fc:	d003      	beq.n	8002a06 <HAL_GPIO_Init+0x27e>
 80029fe:	693a      	ldr	r2, [r7, #16]
 8002a00:	68fb      	ldr	r3, [r7, #12]
 8002a02:	4313      	orrs	r3, r2
 8002a04:	613b      	str	r3, [r7, #16]
 8002a06:	4a28      	ldr	r2, [pc, #160]	; (8002aa8 <HAL_GPIO_Init+0x320>)
 8002a08:	693b      	ldr	r3, [r7, #16]
 8002a0a:	60d3      	str	r3, [r2, #12]
 8002a0c:	4b26      	ldr	r3, [pc, #152]	; (8002aa8 <HAL_GPIO_Init+0x320>)
 8002a0e:	685b      	ldr	r3, [r3, #4]
 8002a10:	613b      	str	r3, [r7, #16]
 8002a12:	68fb      	ldr	r3, [r7, #12]
 8002a14:	43db      	mvns	r3, r3
 8002a16:	693a      	ldr	r2, [r7, #16]
 8002a18:	4013      	ands	r3, r2
 8002a1a:	613b      	str	r3, [r7, #16]
 8002a1c:	683b      	ldr	r3, [r7, #0]
 8002a1e:	685b      	ldr	r3, [r3, #4]
 8002a20:	f403 3300 	and.w	r3, r3, #131072	; 0x20000
 8002a24:	2b00      	cmp	r3, #0
 8002a26:	d003      	beq.n	8002a30 <HAL_GPIO_Init+0x2a8>
 8002a28:	693a      	ldr	r2, [r7, #16]
 8002a2a:	68fb      	ldr	r3, [r7, #12]
 8002a2c:	4313      	orrs	r3, r2
 8002a2e:	613b      	str	r3, [r7, #16]
 8002a30:	4a1d      	ldr	r2, [pc, #116]	; (8002aa8 <HAL_GPIO_Init+0x320>)
 8002a32:	693b      	ldr	r3, [r7, #16]
 8002a34:	6053      	str	r3, [r2, #4]
 8002a36:	4b1c      	ldr	r3, [pc, #112]	; (8002aa8 <HAL_GPIO_Init+0x320>)
 8002a38:	681b      	ldr	r3, [r3, #0]
 8002a3a:	613b      	str	r3, [r7, #16]
 8002a3c:	68fb      	ldr	r3, [r7, #12]
 8002a3e:	43db      	mvns	r3, r3
 8002a40:	693a      	ldr	r2, [r7, #16]
 8002a42:	4013      	ands	r3, r2
 8002a44:	613b      	str	r3, [r7, #16]
 8002a46:	683b      	ldr	r3, [r7, #0]
 8002a48:	685b      	ldr	r3, [r3, #4]
 8002a4a:	f403 3380 	and.w	r3, r3, #65536	; 0x10000
 8002a4e:	2b00      	cmp	r3, #0
 8002a50:	d003      	beq.n	8002a5a <HAL_GPIO_Init+0x2d2>
 8002a52:	693a      	ldr	r2, [r7, #16]
 8002a54:	68fb      	ldr	r3, [r7, #12]
 8002a56:	4313      	orrs	r3, r2
 8002a58:	613b      	str	r3, [r7, #16]
 8002a5a:	4a13      	ldr	r2, [pc, #76]	; (8002aa8 <HAL_GPIO_Init+0x320>)
 8002a5c:	693b      	ldr	r3, [r7, #16]
 8002a5e:	6013      	str	r3, [r2, #0]
 8002a60:	697b      	ldr	r3, [r7, #20]
 8002a62:	3301      	adds	r3, #1
 8002a64:	617b      	str	r3, [r7, #20]
 8002a66:	683b      	ldr	r3, [r7, #0]
 8002a68:	681a      	ldr	r2, [r3, #0]
 8002a6a:	697b      	ldr	r3, [r7, #20]
 8002a6c:	fa22 f303 	lsr.w	r3, r2, r3
 8002a70:	2b00      	cmp	r3, #0
 8002a72:	f47f ae91 	bne.w	8002798 <HAL_GPIO_Init+0x10>
 8002a76:	bf00      	nop
 8002a78:	bf00      	nop
 8002a7a:	371c      	adds	r7, #28
 8002a7c:	46bd      	mov	sp, r7
 8002a7e:	f85d 7b04 	ldr.w	r7, [sp], #4
 8002a82:	4770      	bx	lr
 8002a84:	40021000 	.word	0x40021000
 8002a88:	40010000 	.word	0x40010000
 8002a8c:	48000400 	.word	0x48000400
 8002a90:	48000800 	.word	0x48000800
 8002a94:	48000c00 	.word	0x48000c00
 8002a98:	48001000 	.word	0x48001000
 8002a9c:	48001400 	.word	0x48001400
 8002aa0:	48001800 	.word	0x48001800
 8002aa4:	48001c00 	.word	0x48001c00
 8002aa8:	40010400 	.word	0x40010400

08002aac <HAL_GPIO_WritePin>:
 8002aac:	b480      	push	{r7}
 8002aae:	b083      	sub	sp, #12
 8002ab0:	af00      	add	r7, sp, #0
 8002ab2:	6078      	str	r0, [r7, #4]
 8002ab4:	460b      	mov	r3, r1
 8002ab6:	807b      	strh	r3, [r7, #2]
 8002ab8:	4613      	mov	r3, r2
 8002aba:	707b      	strb	r3, [r7, #1]
 8002abc:	787b      	ldrb	r3, [r7, #1]
 8002abe:	2b00      	cmp	r3, #0
 8002ac0:	d003      	beq.n	8002aca <HAL_GPIO_WritePin+0x1e>
 8002ac2:	887a      	ldrh	r2, [r7, #2]
 8002ac4:	687b      	ldr	r3, [r7, #4]
 8002ac6:	619a      	str	r2, [r3, #24]
 8002ac8:	e002      	b.n	8002ad0 <HAL_GPIO_WritePin+0x24>
 8002aca:	887a      	ldrh	r2, [r7, #2]
 8002acc:	687b      	ldr	r3, [r7, #4]
 8002ace:	629a      	str	r2, [r3, #40]	; 0x28
 8002ad0:	bf00      	nop
 8002ad2:	370c      	adds	r7, #12
 8002ad4:	46bd      	mov	sp, r7
 8002ad6:	f85d 7b04 	ldr.w	r7, [sp], #4
 8002ada:	4770      	bx	lr

08002adc <HAL_PWREx_GetVoltageRange>:
 8002adc:	b480      	push	{r7}
 8002ade:	af00      	add	r7, sp, #0
 8002ae0:	4b0d      	ldr	r3, [pc, #52]	; (8002b18 <HAL_PWREx_GetVoltageRange+0x3c>)
 8002ae2:	681b      	ldr	r3, [r3, #0]
 8002ae4:	f403 63c0 	and.w	r3, r3, #1536	; 0x600
 8002ae8:	f5b3 6f80 	cmp.w	r3, #1024	; 0x400
 8002aec:	d102      	bne.n	8002af4 <HAL_PWREx_GetVoltageRange+0x18>
 8002aee:	f44f 6380 	mov.w	r3, #1024	; 0x400
 8002af2:	e00b      	b.n	8002b0c <HAL_PWREx_GetVoltageRange+0x30>
 8002af4:	4b08      	ldr	r3, [pc, #32]	; (8002b18 <HAL_PWREx_GetVoltageRange+0x3c>)
 8002af6:	f8d3 3080 	ldr.w	r3, [r3, #128]	; 0x80
 8002afa:	f403 7380 	and.w	r3, r3, #256	; 0x100
 8002afe:	f5b3 7f80 	cmp.w	r3, #256	; 0x100
 8002b02:	d102      	bne.n	8002b0a <HAL_PWREx_GetVoltageRange+0x2e>
 8002b04:	f44f 7300 	mov.w	r3, #512	; 0x200
 8002b08:	e000      	b.n	8002b0c <HAL_PWREx_GetVoltageRange+0x30>
 8002b0a:	2300      	movs	r3, #0
 8002b0c:	4618      	mov	r0, r3
 8002b0e:	46bd      	mov	sp, r7
 8002b10:	f85d 7b04 	ldr.w	r7, [sp], #4
 8002b14:	4770      	bx	lr
 8002b16:	bf00      	nop
 8002b18:	40007000 	.word	0x40007000

08002b1c <HAL_PWREx_ControlVoltageScaling>:
 8002b1c:	b480      	push	{r7}
 8002b1e:	b085      	sub	sp, #20
 8002b20:	af00      	add	r7, sp, #0
 8002b22:	6078      	str	r0, [r7, #4]
 8002b24:	687b      	ldr	r3, [r7, #4]
 8002b26:	2b00      	cmp	r3, #0
 8002b28:	d141      	bne.n	8002bae <HAL_PWREx_ControlVoltageScaling+0x92>
 8002b2a:	4b4b      	ldr	r3, [pc, #300]	; (8002c58 <HAL_PWREx_ControlVoltageScaling+0x13c>)
 8002b2c:	681b      	ldr	r3, [r3, #0]
 8002b2e:	f403 63c0 	and.w	r3, r3, #1536	; 0x600
 8002b32:	f5b3 6f80 	cmp.w	r3, #1024	; 0x400
 8002b36:	d131      	bne.n	8002b9c <HAL_PWREx_ControlVoltageScaling+0x80>
 8002b38:	4b47      	ldr	r3, [pc, #284]	; (8002c58 <HAL_PWREx_ControlVoltageScaling+0x13c>)
 8002b3a:	f8d3 3080 	ldr.w	r3, [r3, #128]	; 0x80
 8002b3e:	4a46      	ldr	r2, [pc, #280]	; (8002c58 <HAL_PWREx_ControlVoltageScaling+0x13c>)
 8002b40:	f423 7380 	bic.w	r3, r3, #256	; 0x100
 8002b44:	f8c2 3080 	str.w	r3, [r2, #128]	; 0x80
 8002b48:	4b43      	ldr	r3, [pc, #268]	; (8002c58 <HAL_PWREx_ControlVoltageScaling+0x13c>)
 8002b4a:	681b      	ldr	r3, [r3, #0]
 8002b4c:	f423 63c0 	bic.w	r3, r3, #1536	; 0x600
 8002b50:	4a41      	ldr	r2, [pc, #260]	; (8002c58 <HAL_PWREx_ControlVoltageScaling+0x13c>)
 8002b52:	f443 7300 	orr.w	r3, r3, #512	; 0x200
 8002b56:	6013      	str	r3, [r2, #0]
 8002b58:	4b40      	ldr	r3, [pc, #256]	; (8002c5c <HAL_PWREx_ControlVoltageScaling+0x140>)
 8002b5a:	681b      	ldr	r3, [r3, #0]
 8002b5c:	2232      	movs	r2, #50	; 0x32
 8002b5e:	fb02 f303 	mul.w	r3, r2, r3
 8002b62:	4a3f      	ldr	r2, [pc, #252]	; (8002c60 <HAL_PWREx_ControlVoltageScaling+0x144>)
 8002b64:	fba2 2303 	umull	r2, r3, r2, r3
 8002b68:	0c9b      	lsrs	r3, r3, #18
 8002b6a:	3301      	adds	r3, #1
 8002b6c:	60fb      	str	r3, [r7, #12]
 8002b6e:	e002      	b.n	8002b76 <HAL_PWREx_ControlVoltageScaling+0x5a>
 8002b70:	68fb      	ldr	r3, [r7, #12]
 8002b72:	3b01      	subs	r3, #1
 8002b74:	60fb      	str	r3, [r7, #12]
 8002b76:	4b38      	ldr	r3, [pc, #224]	; (8002c58 <HAL_PWREx_ControlVoltageScaling+0x13c>)
 8002b78:	695b      	ldr	r3, [r3, #20]
 8002b7a:	f403 6380 	and.w	r3, r3, #1024	; 0x400
 8002b7e:	f5b3 6f80 	cmp.w	r3, #1024	; 0x400
 8002b82:	d102      	bne.n	8002b8a <HAL_PWREx_ControlVoltageScaling+0x6e>
 8002b84:	68fb      	ldr	r3, [r7, #12]
 8002b86:	2b00      	cmp	r3, #0
 8002b88:	d1f2      	bne.n	8002b70 <HAL_PWREx_ControlVoltageScaling+0x54>
 8002b8a:	4b33      	ldr	r3, [pc, #204]	; (8002c58 <HAL_PWREx_ControlVoltageScaling+0x13c>)
 8002b8c:	695b      	ldr	r3, [r3, #20]
 8002b8e:	f403 6380 	and.w	r3, r3, #1024	; 0x400
 8002b92:	f5b3 6f80 	cmp.w	r3, #1024	; 0x400
 8002b96:	d158      	bne.n	8002c4a <HAL_PWREx_ControlVoltageScaling+0x12e>
 8002b98:	2303      	movs	r3, #3
 8002b9a:	e057      	b.n	8002c4c <HAL_PWREx_ControlVoltageScaling+0x130>
 8002b9c:	4b2e      	ldr	r3, [pc, #184]	; (8002c58 <HAL_PWREx_ControlVoltageScaling+0x13c>)
 8002b9e:	f8d3 3080 	ldr.w	r3, [r3, #128]	; 0x80
 8002ba2:	4a2d      	ldr	r2, [pc, #180]	; (8002c58 <HAL_PWREx_ControlVoltageScaling+0x13c>)
 8002ba4:	f423 7380 	bic.w	r3, r3, #256	; 0x100
 8002ba8:	f8c2 3080 	str.w	r3, [r2, #128]	; 0x80
 8002bac:	e04d      	b.n	8002c4a <HAL_PWREx_ControlVoltageScaling+0x12e>
 8002bae:	687b      	ldr	r3, [r7, #4]
 8002bb0:	f5b3 7f00 	cmp.w	r3, #512	; 0x200
 8002bb4:	d141      	bne.n	8002c3a <HAL_PWREx_ControlVoltageScaling+0x11e>
 8002bb6:	4b28      	ldr	r3, [pc, #160]	; (8002c58 <HAL_PWREx_ControlVoltageScaling+0x13c>)
 8002bb8:	681b      	ldr	r3, [r3, #0]
 8002bba:	f403 63c0 	and.w	r3, r3, #1536	; 0x600
 8002bbe:	f5b3 6f80 	cmp.w	r3, #1024	; 0x400
 8002bc2:	d131      	bne.n	8002c28 <HAL_PWREx_ControlVoltageScaling+0x10c>
 8002bc4:	4b24      	ldr	r3, [pc, #144]	; (8002c58 <HAL_PWREx_ControlVoltageScaling+0x13c>)
 8002bc6:	f8d3 3080 	ldr.w	r3, [r3, #128]	; 0x80
 8002bca:	4a23      	ldr	r2, [pc, #140]	; (8002c58 <HAL_PWREx_ControlVoltageScaling+0x13c>)
 8002bcc:	f443 7380 	orr.w	r3, r3, #256	; 0x100
 8002bd0:	f8c2 3080 	str.w	r3, [r2, #128]	; 0x80
 8002bd4:	4b20      	ldr	r3, [pc, #128]	; (8002c58 <HAL_PWREx_ControlVoltageScaling+0x13c>)
 8002bd6:	681b      	ldr	r3, [r3, #0]
 8002bd8:	f423 63c0 	bic.w	r3, r3, #1536	; 0x600
 8002bdc:	4a1e      	ldr	r2, [pc, #120]	; (8002c58 <HAL_PWREx_ControlVoltageScaling+0x13c>)
 8002bde:	f443 7300 	orr.w	r3, r3, #512	; 0x200
 8002be2:	6013      	str	r3, [r2, #0]
 8002be4:	4b1d      	ldr	r3, [pc, #116]	; (8002c5c <HAL_PWREx_ControlVoltageScaling+0x140>)
 8002be6:	681b      	ldr	r3, [r3, #0]
 8002be8:	2232      	movs	r2, #50	; 0x32
 8002bea:	fb02 f303 	mul.w	r3, r2, r3
 8002bee:	4a1c      	ldr	r2, [pc, #112]	; (8002c60 <HAL_PWREx_ControlVoltageScaling+0x144>)
 8002bf0:	fba2 2303 	umull	r2, r3, r2, r3
 8002bf4:	0c9b      	lsrs	r3, r3, #18
 8002bf6:	3301      	adds	r3, #1
 8002bf8:	60fb      	str	r3, [r7, #12]
 8002bfa:	e002      	b.n	8002c02 <HAL_PWREx_ControlVoltageScaling+0xe6>
 8002bfc:	68fb      	ldr	r3, [r7, #12]
 8002bfe:	3b01      	subs	r3, #1
 8002c00:	60fb      	str	r3, [r7, #12]
 8002c02:	4b15      	ldr	r3, [pc, #84]	; (8002c58 <HAL_PWREx_ControlVoltageScaling+0x13c>)
 8002c04:	695b      	ldr	r3, [r3, #20]
 8002c06:	f403 6380 	and.w	r3, r3, #1024	; 0x400
 8002c0a:	f5b3 6f80 	cmp.w	r3, #1024	; 0x400
 8002c0e:	d102      	bne.n	8002c16 <HAL_PWREx_ControlVoltageScaling+0xfa>
 8002c10:	68fb      	ldr	r3, [r7, #12]
 8002c12:	2b00      	cmp	r3, #0
 8002c14:	d1f2      	bne.n	8002bfc <HAL_PWREx_ControlVoltageScaling+0xe0>
 8002c16:	4b10      	ldr	r3, [pc, #64]	; (8002c58 <HAL_PWREx_ControlVoltageScaling+0x13c>)
 8002c18:	695b      	ldr	r3, [r3, #20]
 8002c1a:	f403 6380 	and.w	r3, r3, #1024	; 0x400
 8002c1e:	f5b3 6f80 	cmp.w	r3, #1024	; 0x400
 8002c22:	d112      	bne.n	8002c4a <HAL_PWREx_ControlVoltageScaling+0x12e>
 8002c24:	2303      	movs	r3, #3
 8002c26:	e011      	b.n	8002c4c <HAL_PWREx_ControlVoltageScaling+0x130>
 8002c28:	4b0b      	ldr	r3, [pc, #44]	; (8002c58 <HAL_PWREx_ControlVoltageScaling+0x13c>)
 8002c2a:	f8d3 3080 	ldr.w	r3, [r3, #128]	; 0x80
 8002c2e:	4a0a      	ldr	r2, [pc, #40]	; (8002c58 <HAL_PWREx_ControlVoltageScaling+0x13c>)
 8002c30:	f443 7380 	orr.w	r3, r3, #256	; 0x100
 8002c34:	f8c2 3080 	str.w	r3, [r2, #128]	; 0x80
 8002c38:	e007      	b.n	8002c4a <HAL_PWREx_ControlVoltageScaling+0x12e>
 8002c3a:	4b07      	ldr	r3, [pc, #28]	; (8002c58 <HAL_PWREx_ControlVoltageScaling+0x13c>)
 8002c3c:	681b      	ldr	r3, [r3, #0]
 8002c3e:	f423 63c0 	bic.w	r3, r3, #1536	; 0x600
 8002c42:	4a05      	ldr	r2, [pc, #20]	; (8002c58 <HAL_PWREx_ControlVoltageScaling+0x13c>)
 8002c44:	f443 6380 	orr.w	r3, r3, #1024	; 0x400
 8002c48:	6013      	str	r3, [r2, #0]
 8002c4a:	2300      	movs	r3, #0
 8002c4c:	4618      	mov	r0, r3
 8002c4e:	3714      	adds	r7, #20
 8002c50:	46bd      	mov	sp, r7
 8002c52:	f85d 7b04 	ldr.w	r7, [sp], #4
 8002c56:	4770      	bx	lr
 8002c58:	40007000 	.word	0x40007000
 8002c5c:	20001048 	.word	0x20001048
 8002c60:	431bde83 	.word	0x431bde83

08002c64 <HAL_RCC_OscConfig>:
 8002c64:	b580      	push	{r7, lr}
 8002c66:	b088      	sub	sp, #32
 8002c68:	af00      	add	r7, sp, #0
 8002c6a:	6078      	str	r0, [r7, #4]
 8002c6c:	687b      	ldr	r3, [r7, #4]
 8002c6e:	2b00      	cmp	r3, #0
 8002c70:	d102      	bne.n	8002c78 <HAL_RCC_OscConfig+0x14>
 8002c72:	2301      	movs	r3, #1
 8002c74:	f000 bc08 	b.w	8003488 <HAL_RCC_OscConfig+0x824>
 8002c78:	4b96      	ldr	r3, [pc, #600]	; (8002ed4 <HAL_RCC_OscConfig+0x270>)
 8002c7a:	689b      	ldr	r3, [r3, #8]
 8002c7c:	f003 030c 	and.w	r3, r3, #12
 8002c80:	61bb      	str	r3, [r7, #24]
 8002c82:	4b94      	ldr	r3, [pc, #592]	; (8002ed4 <HAL_RCC_OscConfig+0x270>)
 8002c84:	68db      	ldr	r3, [r3, #12]
 8002c86:	f003 0303 	and.w	r3, r3, #3
 8002c8a:	617b      	str	r3, [r7, #20]
 8002c8c:	687b      	ldr	r3, [r7, #4]
 8002c8e:	681b      	ldr	r3, [r3, #0]
 8002c90:	f003 0310 	and.w	r3, r3, #16
 8002c94:	2b00      	cmp	r3, #0
 8002c96:	f000 80e4 	beq.w	8002e62 <HAL_RCC_OscConfig+0x1fe>
 8002c9a:	69bb      	ldr	r3, [r7, #24]
 8002c9c:	2b00      	cmp	r3, #0
 8002c9e:	d007      	beq.n	8002cb0 <HAL_RCC_OscConfig+0x4c>
 8002ca0:	69bb      	ldr	r3, [r7, #24]
 8002ca2:	2b0c      	cmp	r3, #12
 8002ca4:	f040 808b 	bne.w	8002dbe <HAL_RCC_OscConfig+0x15a>
 8002ca8:	697b      	ldr	r3, [r7, #20]
 8002caa:	2b01      	cmp	r3, #1
 8002cac:	f040 8087 	bne.w	8002dbe <HAL_RCC_OscConfig+0x15a>
 8002cb0:	4b88      	ldr	r3, [pc, #544]	; (8002ed4 <HAL_RCC_OscConfig+0x270>)
 8002cb2:	681b      	ldr	r3, [r3, #0]
 8002cb4:	f003 0302 	and.w	r3, r3, #2
 8002cb8:	2b00      	cmp	r3, #0
 8002cba:	d005      	beq.n	8002cc8 <HAL_RCC_OscConfig+0x64>
 8002cbc:	687b      	ldr	r3, [r7, #4]
 8002cbe:	699b      	ldr	r3, [r3, #24]
 8002cc0:	2b00      	cmp	r3, #0
 8002cc2:	d101      	bne.n	8002cc8 <HAL_RCC_OscConfig+0x64>
 8002cc4:	2301      	movs	r3, #1
 8002cc6:	e3df      	b.n	8003488 <HAL_RCC_OscConfig+0x824>
 8002cc8:	687b      	ldr	r3, [r7, #4]
 8002cca:	6a1a      	ldr	r2, [r3, #32]
 8002ccc:	4b81      	ldr	r3, [pc, #516]	; (8002ed4 <HAL_RCC_OscConfig+0x270>)
 8002cce:	681b      	ldr	r3, [r3, #0]
 8002cd0:	f003 0308 	and.w	r3, r3, #8
 8002cd4:	2b00      	cmp	r3, #0
 8002cd6:	d004      	beq.n	8002ce2 <HAL_RCC_OscConfig+0x7e>
 8002cd8:	4b7e      	ldr	r3, [pc, #504]	; (8002ed4 <HAL_RCC_OscConfig+0x270>)
 8002cda:	681b      	ldr	r3, [r3, #0]
 8002cdc:	f003 03f0 	and.w	r3, r3, #240	; 0xf0
 8002ce0:	e005      	b.n	8002cee <HAL_RCC_OscConfig+0x8a>
 8002ce2:	4b7c      	ldr	r3, [pc, #496]	; (8002ed4 <HAL_RCC_OscConfig+0x270>)
 8002ce4:	f8d3 3094 	ldr.w	r3, [r3, #148]	; 0x94
 8002ce8:	091b      	lsrs	r3, r3, #4
 8002cea:	f003 03f0 	and.w	r3, r3, #240	; 0xf0
 8002cee:	4293      	cmp	r3, r2
 8002cf0:	d223      	bcs.n	8002d3a <HAL_RCC_OscConfig+0xd6>
 8002cf2:	687b      	ldr	r3, [r7, #4]
 8002cf4:	6a1b      	ldr	r3, [r3, #32]
 8002cf6:	4618      	mov	r0, r3
 8002cf8:	f000 fda0 	bl	800383c <RCC_SetFlashLatencyFromMSIRange>
 8002cfc:	4603      	mov	r3, r0
 8002cfe:	2b00      	cmp	r3, #0
 8002d00:	d001      	beq.n	8002d06 <HAL_RCC_OscConfig+0xa2>
 8002d02:	2301      	movs	r3, #1
 8002d04:	e3c0      	b.n	8003488 <HAL_RCC_OscConfig+0x824>
 8002d06:	4b73      	ldr	r3, [pc, #460]	; (8002ed4 <HAL_RCC_OscConfig+0x270>)
 8002d08:	681b      	ldr	r3, [r3, #0]
 8002d0a:	4a72      	ldr	r2, [pc, #456]	; (8002ed4 <HAL_RCC_OscConfig+0x270>)
 8002d0c:	f043 0308 	orr.w	r3, r3, #8
 8002d10:	6013      	str	r3, [r2, #0]
 8002d12:	4b70      	ldr	r3, [pc, #448]	; (8002ed4 <HAL_RCC_OscConfig+0x270>)
 8002d14:	681b      	ldr	r3, [r3, #0]
 8002d16:	f023 02f0 	bic.w	r2, r3, #240	; 0xf0
 8002d1a:	687b      	ldr	r3, [r7, #4]
 8002d1c:	6a1b      	ldr	r3, [r3, #32]
 8002d1e:	496d      	ldr	r1, [pc, #436]	; (8002ed4 <HAL_RCC_OscConfig+0x270>)
 8002d20:	4313      	orrs	r3, r2
 8002d22:	600b      	str	r3, [r1, #0]
 8002d24:	4b6b      	ldr	r3, [pc, #428]	; (8002ed4 <HAL_RCC_OscConfig+0x270>)
 8002d26:	685b      	ldr	r3, [r3, #4]
 8002d28:	f423 427f 	bic.w	r2, r3, #65280	; 0xff00
 8002d2c:	687b      	ldr	r3, [r7, #4]
 8002d2e:	69db      	ldr	r3, [r3, #28]
 8002d30:	021b      	lsls	r3, r3, #8
 8002d32:	4968      	ldr	r1, [pc, #416]	; (8002ed4 <HAL_RCC_OscConfig+0x270>)
 8002d34:	4313      	orrs	r3, r2
 8002d36:	604b      	str	r3, [r1, #4]
 8002d38:	e025      	b.n	8002d86 <HAL_RCC_OscConfig+0x122>
 8002d3a:	4b66      	ldr	r3, [pc, #408]	; (8002ed4 <HAL_RCC_OscConfig+0x270>)
 8002d3c:	681b      	ldr	r3, [r3, #0]
 8002d3e:	4a65      	ldr	r2, [pc, #404]	; (8002ed4 <HAL_RCC_OscConfig+0x270>)
 8002d40:	f043 0308 	orr.w	r3, r3, #8
 8002d44:	6013      	str	r3, [r2, #0]
 8002d46:	4b63      	ldr	r3, [pc, #396]	; (8002ed4 <HAL_RCC_OscConfig+0x270>)
 8002d48:	681b      	ldr	r3, [r3, #0]
 8002d4a:	f023 02f0 	bic.w	r2, r3, #240	; 0xf0
 8002d4e:	687b      	ldr	r3, [r7, #4]
 8002d50:	6a1b      	ldr	r3, [r3, #32]
 8002d52:	4960      	ldr	r1, [pc, #384]	; (8002ed4 <HAL_RCC_OscConfig+0x270>)
 8002d54:	4313      	orrs	r3, r2
 8002d56:	600b      	str	r3, [r1, #0]
 8002d58:	4b5e      	ldr	r3, [pc, #376]	; (8002ed4 <HAL_RCC_OscConfig+0x270>)
 8002d5a:	685b      	ldr	r3, [r3, #4]
 8002d5c:	f423 427f 	bic.w	r2, r3, #65280	; 0xff00
 8002d60:	687b      	ldr	r3, [r7, #4]
 8002d62:	69db      	ldr	r3, [r3, #28]
 8002d64:	021b      	lsls	r3, r3, #8
 8002d66:	495b      	ldr	r1, [pc, #364]	; (8002ed4 <HAL_RCC_OscConfig+0x270>)
 8002d68:	4313      	orrs	r3, r2
 8002d6a:	604b      	str	r3, [r1, #4]
 8002d6c:	69bb      	ldr	r3, [r7, #24]
 8002d6e:	2b00      	cmp	r3, #0
 8002d70:	d109      	bne.n	8002d86 <HAL_RCC_OscConfig+0x122>
 8002d72:	687b      	ldr	r3, [r7, #4]
 8002d74:	6a1b      	ldr	r3, [r3, #32]
 8002d76:	4618      	mov	r0, r3
 8002d78:	f000 fd60 	bl	800383c <RCC_SetFlashLatencyFromMSIRange>
 8002d7c:	4603      	mov	r3, r0
 8002d7e:	2b00      	cmp	r3, #0
 8002d80:	d001      	beq.n	8002d86 <HAL_RCC_OscConfig+0x122>
 8002d82:	2301      	movs	r3, #1
 8002d84:	e380      	b.n	8003488 <HAL_RCC_OscConfig+0x824>
 8002d86:	f000 fcc1 	bl	800370c <HAL_RCC_GetSysClockFreq>
 8002d8a:	4602      	mov	r2, r0
 8002d8c:	4b51      	ldr	r3, [pc, #324]	; (8002ed4 <HAL_RCC_OscConfig+0x270>)
 8002d8e:	689b      	ldr	r3, [r3, #8]
 8002d90:	091b      	lsrs	r3, r3, #4
 8002d92:	f003 030f 	and.w	r3, r3, #15
 8002d96:	4950      	ldr	r1, [pc, #320]	; (8002ed8 <HAL_RCC_OscConfig+0x274>)
 8002d98:	5ccb      	ldrb	r3, [r1, r3]
 8002d9a:	f003 031f 	and.w	r3, r3, #31
 8002d9e:	fa22 f303 	lsr.w	r3, r2, r3
 8002da2:	4a4e      	ldr	r2, [pc, #312]	; (8002edc <HAL_RCC_OscConfig+0x278>)
 8002da4:	6013      	str	r3, [r2, #0]
 8002da6:	4b4e      	ldr	r3, [pc, #312]	; (8002ee0 <HAL_RCC_OscConfig+0x27c>)
 8002da8:	681b      	ldr	r3, [r3, #0]
 8002daa:	4618      	mov	r0, r3
 8002dac:	f7fd ff4c 	bl	8000c48 <HAL_InitTick>
 8002db0:	4603      	mov	r3, r0
 8002db2:	73fb      	strb	r3, [r7, #15]
 8002db4:	7bfb      	ldrb	r3, [r7, #15]
 8002db6:	2b00      	cmp	r3, #0
 8002db8:	d052      	beq.n	8002e60 <HAL_RCC_OscConfig+0x1fc>
 8002dba:	7bfb      	ldrb	r3, [r7, #15]
 8002dbc:	e364      	b.n	8003488 <HAL_RCC_OscConfig+0x824>
 8002dbe:	687b      	ldr	r3, [r7, #4]
 8002dc0:	699b      	ldr	r3, [r3, #24]
 8002dc2:	2b00      	cmp	r3, #0
 8002dc4:	d032      	beq.n	8002e2c <HAL_RCC_OscConfig+0x1c8>
 8002dc6:	4b43      	ldr	r3, [pc, #268]	; (8002ed4 <HAL_RCC_OscConfig+0x270>)
 8002dc8:	681b      	ldr	r3, [r3, #0]
 8002dca:	4a42      	ldr	r2, [pc, #264]	; (8002ed4 <HAL_RCC_OscConfig+0x270>)
 8002dcc:	f043 0301 	orr.w	r3, r3, #1
 8002dd0:	6013      	str	r3, [r2, #0]
 8002dd2:	f7fd ff89 	bl	8000ce8 <HAL_GetTick>
 8002dd6:	6138      	str	r0, [r7, #16]
 8002dd8:	e008      	b.n	8002dec <HAL_RCC_OscConfig+0x188>
 8002dda:	f7fd ff85 	bl	8000ce8 <HAL_GetTick>
 8002dde:	4602      	mov	r2, r0
 8002de0:	693b      	ldr	r3, [r7, #16]
 8002de2:	1ad3      	subs	r3, r2, r3
 8002de4:	2b02      	cmp	r3, #2
 8002de6:	d901      	bls.n	8002dec <HAL_RCC_OscConfig+0x188>
 8002de8:	2303      	movs	r3, #3
 8002dea:	e34d      	b.n	8003488 <HAL_RCC_OscConfig+0x824>
 8002dec:	4b39      	ldr	r3, [pc, #228]	; (8002ed4 <HAL_RCC_OscConfig+0x270>)
 8002dee:	681b      	ldr	r3, [r3, #0]
 8002df0:	f003 0302 	and.w	r3, r3, #2
 8002df4:	2b00      	cmp	r3, #0
 8002df6:	d0f0      	beq.n	8002dda <HAL_RCC_OscConfig+0x176>
 8002df8:	4b36      	ldr	r3, [pc, #216]	; (8002ed4 <HAL_RCC_OscConfig+0x270>)
 8002dfa:	681b      	ldr	r3, [r3, #0]
 8002dfc:	4a35      	ldr	r2, [pc, #212]	; (8002ed4 <HAL_RCC_OscConfig+0x270>)
 8002dfe:	f043 0308 	orr.w	r3, r3, #8
 8002e02:	6013      	str	r3, [r2, #0]
 8002e04:	4b33      	ldr	r3, [pc, #204]	; (8002ed4 <HAL_RCC_OscConfig+0x270>)
 8002e06:	681b      	ldr	r3, [r3, #0]
 8002e08:	f023 02f0 	bic.w	r2, r3, #240	; 0xf0
 8002e0c:	687b      	ldr	r3, [r7, #4]
 8002e0e:	6a1b      	ldr	r3, [r3, #32]
 8002e10:	4930      	ldr	r1, [pc, #192]	; (8002ed4 <HAL_RCC_OscConfig+0x270>)
 8002e12:	4313      	orrs	r3, r2
 8002e14:	600b      	str	r3, [r1, #0]
 8002e16:	4b2f      	ldr	r3, [pc, #188]	; (8002ed4 <HAL_RCC_OscConfig+0x270>)
 8002e18:	685b      	ldr	r3, [r3, #4]
 8002e1a:	f423 427f 	bic.w	r2, r3, #65280	; 0xff00
 8002e1e:	687b      	ldr	r3, [r7, #4]
 8002e20:	69db      	ldr	r3, [r3, #28]
 8002e22:	021b      	lsls	r3, r3, #8
 8002e24:	492b      	ldr	r1, [pc, #172]	; (8002ed4 <HAL_RCC_OscConfig+0x270>)
 8002e26:	4313      	orrs	r3, r2
 8002e28:	604b      	str	r3, [r1, #4]
 8002e2a:	e01a      	b.n	8002e62 <HAL_RCC_OscConfig+0x1fe>
 8002e2c:	4b29      	ldr	r3, [pc, #164]	; (8002ed4 <HAL_RCC_OscConfig+0x270>)
 8002e2e:	681b      	ldr	r3, [r3, #0]
 8002e30:	4a28      	ldr	r2, [pc, #160]	; (8002ed4 <HAL_RCC_OscConfig+0x270>)
 8002e32:	f023 0301 	bic.w	r3, r3, #1
 8002e36:	6013      	str	r3, [r2, #0]
 8002e38:	f7fd ff56 	bl	8000ce8 <HAL_GetTick>
 8002e3c:	6138      	str	r0, [r7, #16]
 8002e3e:	e008      	b.n	8002e52 <HAL_RCC_OscConfig+0x1ee>
 8002e40:	f7fd ff52 	bl	8000ce8 <HAL_GetTick>
 8002e44:	4602      	mov	r2, r0
 8002e46:	693b      	ldr	r3, [r7, #16]
 8002e48:	1ad3      	subs	r3, r2, r3
 8002e4a:	2b02      	cmp	r3, #2
 8002e4c:	d901      	bls.n	8002e52 <HAL_RCC_OscConfig+0x1ee>
 8002e4e:	2303      	movs	r3, #3
 8002e50:	e31a      	b.n	8003488 <HAL_RCC_OscConfig+0x824>
 8002e52:	4b20      	ldr	r3, [pc, #128]	; (8002ed4 <HAL_RCC_OscConfig+0x270>)
 8002e54:	681b      	ldr	r3, [r3, #0]
 8002e56:	f003 0302 	and.w	r3, r3, #2
 8002e5a:	2b00      	cmp	r3, #0
 8002e5c:	d1f0      	bne.n	8002e40 <HAL_RCC_OscConfig+0x1dc>
 8002e5e:	e000      	b.n	8002e62 <HAL_RCC_OscConfig+0x1fe>
 8002e60:	bf00      	nop
 8002e62:	687b      	ldr	r3, [r7, #4]
 8002e64:	681b      	ldr	r3, [r3, #0]
 8002e66:	f003 0301 	and.w	r3, r3, #1
 8002e6a:	2b00      	cmp	r3, #0
 8002e6c:	d073      	beq.n	8002f56 <HAL_RCC_OscConfig+0x2f2>
 8002e6e:	69bb      	ldr	r3, [r7, #24]
 8002e70:	2b08      	cmp	r3, #8
 8002e72:	d005      	beq.n	8002e80 <HAL_RCC_OscConfig+0x21c>
 8002e74:	69bb      	ldr	r3, [r7, #24]
 8002e76:	2b0c      	cmp	r3, #12
 8002e78:	d10e      	bne.n	8002e98 <HAL_RCC_OscConfig+0x234>
 8002e7a:	697b      	ldr	r3, [r7, #20]
 8002e7c:	2b03      	cmp	r3, #3
 8002e7e:	d10b      	bne.n	8002e98 <HAL_RCC_OscConfig+0x234>
 8002e80:	4b14      	ldr	r3, [pc, #80]	; (8002ed4 <HAL_RCC_OscConfig+0x270>)
 8002e82:	681b      	ldr	r3, [r3, #0]
 8002e84:	f403 3300 	and.w	r3, r3, #131072	; 0x20000
 8002e88:	2b00      	cmp	r3, #0
 8002e8a:	d063      	beq.n	8002f54 <HAL_RCC_OscConfig+0x2f0>
 8002e8c:	687b      	ldr	r3, [r7, #4]
 8002e8e:	685b      	ldr	r3, [r3, #4]
 8002e90:	2b00      	cmp	r3, #0
 8002e92:	d15f      	bne.n	8002f54 <HAL_RCC_OscConfig+0x2f0>
 8002e94:	2301      	movs	r3, #1
 8002e96:	e2f7      	b.n	8003488 <HAL_RCC_OscConfig+0x824>
 8002e98:	687b      	ldr	r3, [r7, #4]
 8002e9a:	685b      	ldr	r3, [r3, #4]
 8002e9c:	f5b3 3f80 	cmp.w	r3, #65536	; 0x10000
 8002ea0:	d106      	bne.n	8002eb0 <HAL_RCC_OscConfig+0x24c>
 8002ea2:	4b0c      	ldr	r3, [pc, #48]	; (8002ed4 <HAL_RCC_OscConfig+0x270>)
 8002ea4:	681b      	ldr	r3, [r3, #0]
 8002ea6:	4a0b      	ldr	r2, [pc, #44]	; (8002ed4 <HAL_RCC_OscConfig+0x270>)
 8002ea8:	f443 3380 	orr.w	r3, r3, #65536	; 0x10000
 8002eac:	6013      	str	r3, [r2, #0]
 8002eae:	e025      	b.n	8002efc <HAL_RCC_OscConfig+0x298>
 8002eb0:	687b      	ldr	r3, [r7, #4]
 8002eb2:	685b      	ldr	r3, [r3, #4]
 8002eb4:	f5b3 2fa0 	cmp.w	r3, #327680	; 0x50000
 8002eb8:	d114      	bne.n	8002ee4 <HAL_RCC_OscConfig+0x280>
 8002eba:	4b06      	ldr	r3, [pc, #24]	; (8002ed4 <HAL_RCC_OscConfig+0x270>)
 8002ebc:	681b      	ldr	r3, [r3, #0]
 8002ebe:	4a05      	ldr	r2, [pc, #20]	; (8002ed4 <HAL_RCC_OscConfig+0x270>)
 8002ec0:	f443 2380 	orr.w	r3, r3, #262144	; 0x40000
 8002ec4:	6013      	str	r3, [r2, #0]
 8002ec6:	4b03      	ldr	r3, [pc, #12]	; (8002ed4 <HAL_RCC_OscConfig+0x270>)
 8002ec8:	681b      	ldr	r3, [r3, #0]
 8002eca:	4a02      	ldr	r2, [pc, #8]	; (8002ed4 <HAL_RCC_OscConfig+0x270>)
 8002ecc:	f443 3380 	orr.w	r3, r3, #65536	; 0x10000
 8002ed0:	6013      	str	r3, [r2, #0]
 8002ed2:	e013      	b.n	8002efc <HAL_RCC_OscConfig+0x298>
 8002ed4:	40021000 	.word	0x40021000
 8002ed8:	080085f0 	.word	0x080085f0
 8002edc:	20001048 	.word	0x20001048
 8002ee0:	20000000 	.word	0x20000000
 8002ee4:	4ba0      	ldr	r3, [pc, #640]	; (8003168 <HAL_RCC_OscConfig+0x504>)
 8002ee6:	681b      	ldr	r3, [r3, #0]
 8002ee8:	4a9f      	ldr	r2, [pc, #636]	; (8003168 <HAL_RCC_OscConfig+0x504>)
 8002eea:	f423 3380 	bic.w	r3, r3, #65536	; 0x10000
 8002eee:	6013      	str	r3, [r2, #0]
 8002ef0:	4b9d      	ldr	r3, [pc, #628]	; (8003168 <HAL_RCC_OscConfig+0x504>)
 8002ef2:	681b      	ldr	r3, [r3, #0]
 8002ef4:	4a9c      	ldr	r2, [pc, #624]	; (8003168 <HAL_RCC_OscConfig+0x504>)
 8002ef6:	f423 2380 	bic.w	r3, r3, #262144	; 0x40000
 8002efa:	6013      	str	r3, [r2, #0]
 8002efc:	687b      	ldr	r3, [r7, #4]
 8002efe:	685b      	ldr	r3, [r3, #4]
 8002f00:	2b00      	cmp	r3, #0
 8002f02:	d013      	beq.n	8002f2c <HAL_RCC_OscConfig+0x2c8>
 8002f04:	f7fd fef0 	bl	8000ce8 <HAL_GetTick>
 8002f08:	6138      	str	r0, [r7, #16]
 8002f0a:	e008      	b.n	8002f1e <HAL_RCC_OscConfig+0x2ba>
 8002f0c:	f7fd feec 	bl	8000ce8 <HAL_GetTick>
 8002f10:	4602      	mov	r2, r0
 8002f12:	693b      	ldr	r3, [r7, #16]
 8002f14:	1ad3      	subs	r3, r2, r3
 8002f16:	2b64      	cmp	r3, #100	; 0x64
 8002f18:	d901      	bls.n	8002f1e <HAL_RCC_OscConfig+0x2ba>
 8002f1a:	2303      	movs	r3, #3
 8002f1c:	e2b4      	b.n	8003488 <HAL_RCC_OscConfig+0x824>
 8002f1e:	4b92      	ldr	r3, [pc, #584]	; (8003168 <HAL_RCC_OscConfig+0x504>)
 8002f20:	681b      	ldr	r3, [r3, #0]
 8002f22:	f403 3300 	and.w	r3, r3, #131072	; 0x20000
 8002f26:	2b00      	cmp	r3, #0
 8002f28:	d0f0      	beq.n	8002f0c <HAL_RCC_OscConfig+0x2a8>
 8002f2a:	e014      	b.n	8002f56 <HAL_RCC_OscConfig+0x2f2>
 8002f2c:	f7fd fedc 	bl	8000ce8 <HAL_GetTick>
 8002f30:	6138      	str	r0, [r7, #16]
 8002f32:	e008      	b.n	8002f46 <HAL_RCC_OscConfig+0x2e2>
 8002f34:	f7fd fed8 	bl	8000ce8 <HAL_GetTick>
 8002f38:	4602      	mov	r2, r0
 8002f3a:	693b      	ldr	r3, [r7, #16]
 8002f3c:	1ad3      	subs	r3, r2, r3
 8002f3e:	2b64      	cmp	r3, #100	; 0x64
 8002f40:	d901      	bls.n	8002f46 <HAL_RCC_OscConfig+0x2e2>
 8002f42:	2303      	movs	r3, #3
 8002f44:	e2a0      	b.n	8003488 <HAL_RCC_OscConfig+0x824>
 8002f46:	4b88      	ldr	r3, [pc, #544]	; (8003168 <HAL_RCC_OscConfig+0x504>)
 8002f48:	681b      	ldr	r3, [r3, #0]
 8002f4a:	f403 3300 	and.w	r3, r3, #131072	; 0x20000
 8002f4e:	2b00      	cmp	r3, #0
 8002f50:	d1f0      	bne.n	8002f34 <HAL_RCC_OscConfig+0x2d0>
 8002f52:	e000      	b.n	8002f56 <HAL_RCC_OscConfig+0x2f2>
 8002f54:	bf00      	nop
 8002f56:	687b      	ldr	r3, [r7, #4]
 8002f58:	681b      	ldr	r3, [r3, #0]
 8002f5a:	f003 0302 	and.w	r3, r3, #2
 8002f5e:	2b00      	cmp	r3, #0
 8002f60:	d060      	beq.n	8003024 <HAL_RCC_OscConfig+0x3c0>
 8002f62:	69bb      	ldr	r3, [r7, #24]
 8002f64:	2b04      	cmp	r3, #4
 8002f66:	d005      	beq.n	8002f74 <HAL_RCC_OscConfig+0x310>
 8002f68:	69bb      	ldr	r3, [r7, #24]
 8002f6a:	2b0c      	cmp	r3, #12
 8002f6c:	d119      	bne.n	8002fa2 <HAL_RCC_OscConfig+0x33e>
 8002f6e:	697b      	ldr	r3, [r7, #20]
 8002f70:	2b02      	cmp	r3, #2
 8002f72:	d116      	bne.n	8002fa2 <HAL_RCC_OscConfig+0x33e>
 8002f74:	4b7c      	ldr	r3, [pc, #496]	; (8003168 <HAL_RCC_OscConfig+0x504>)
 8002f76:	681b      	ldr	r3, [r3, #0]
 8002f78:	f403 6380 	and.w	r3, r3, #1024	; 0x400
 8002f7c:	2b00      	cmp	r3, #0
 8002f7e:	d005      	beq.n	8002f8c <HAL_RCC_OscConfig+0x328>
 8002f80:	687b      	ldr	r3, [r7, #4]
 8002f82:	68db      	ldr	r3, [r3, #12]
 8002f84:	2b00      	cmp	r3, #0
 8002f86:	d101      	bne.n	8002f8c <HAL_RCC_OscConfig+0x328>
 8002f88:	2301      	movs	r3, #1
 8002f8a:	e27d      	b.n	8003488 <HAL_RCC_OscConfig+0x824>
 8002f8c:	4b76      	ldr	r3, [pc, #472]	; (8003168 <HAL_RCC_OscConfig+0x504>)
 8002f8e:	685b      	ldr	r3, [r3, #4]
 8002f90:	f023 42fe 	bic.w	r2, r3, #2130706432	; 0x7f000000
 8002f94:	687b      	ldr	r3, [r7, #4]
 8002f96:	691b      	ldr	r3, [r3, #16]
 8002f98:	061b      	lsls	r3, r3, #24
 8002f9a:	4973      	ldr	r1, [pc, #460]	; (8003168 <HAL_RCC_OscConfig+0x504>)
 8002f9c:	4313      	orrs	r3, r2
 8002f9e:	604b      	str	r3, [r1, #4]
 8002fa0:	e040      	b.n	8003024 <HAL_RCC_OscConfig+0x3c0>
 8002fa2:	687b      	ldr	r3, [r7, #4]
 8002fa4:	68db      	ldr	r3, [r3, #12]
 8002fa6:	2b00      	cmp	r3, #0
 8002fa8:	d023      	beq.n	8002ff2 <HAL_RCC_OscConfig+0x38e>
 8002faa:	4b6f      	ldr	r3, [pc, #444]	; (8003168 <HAL_RCC_OscConfig+0x504>)
 8002fac:	681b      	ldr	r3, [r3, #0]
 8002fae:	4a6e      	ldr	r2, [pc, #440]	; (8003168 <HAL_RCC_OscConfig+0x504>)
 8002fb0:	f443 7380 	orr.w	r3, r3, #256	; 0x100
 8002fb4:	6013      	str	r3, [r2, #0]
 8002fb6:	f7fd fe97 	bl	8000ce8 <HAL_GetTick>
 8002fba:	6138      	str	r0, [r7, #16]
 8002fbc:	e008      	b.n	8002fd0 <HAL_RCC_OscConfig+0x36c>
 8002fbe:	f7fd fe93 	bl	8000ce8 <HAL_GetTick>
 8002fc2:	4602      	mov	r2, r0
 8002fc4:	693b      	ldr	r3, [r7, #16]
 8002fc6:	1ad3      	subs	r3, r2, r3
 8002fc8:	2b02      	cmp	r3, #2
 8002fca:	d901      	bls.n	8002fd0 <HAL_RCC_OscConfig+0x36c>
 8002fcc:	2303      	movs	r3, #3
 8002fce:	e25b      	b.n	8003488 <HAL_RCC_OscConfig+0x824>
 8002fd0:	4b65      	ldr	r3, [pc, #404]	; (8003168 <HAL_RCC_OscConfig+0x504>)
 8002fd2:	681b      	ldr	r3, [r3, #0]
 8002fd4:	f403 6380 	and.w	r3, r3, #1024	; 0x400
 8002fd8:	2b00      	cmp	r3, #0
 8002fda:	d0f0      	beq.n	8002fbe <HAL_RCC_OscConfig+0x35a>
 8002fdc:	4b62      	ldr	r3, [pc, #392]	; (8003168 <HAL_RCC_OscConfig+0x504>)
 8002fde:	685b      	ldr	r3, [r3, #4]
 8002fe0:	f023 42fe 	bic.w	r2, r3, #2130706432	; 0x7f000000
 8002fe4:	687b      	ldr	r3, [r7, #4]
 8002fe6:	691b      	ldr	r3, [r3, #16]
 8002fe8:	061b      	lsls	r3, r3, #24
 8002fea:	495f      	ldr	r1, [pc, #380]	; (8003168 <HAL_RCC_OscConfig+0x504>)
 8002fec:	4313      	orrs	r3, r2
 8002fee:	604b      	str	r3, [r1, #4]
 8002ff0:	e018      	b.n	8003024 <HAL_RCC_OscConfig+0x3c0>
 8002ff2:	4b5d      	ldr	r3, [pc, #372]	; (8003168 <HAL_RCC_OscConfig+0x504>)
 8002ff4:	681b      	ldr	r3, [r3, #0]
 8002ff6:	4a5c      	ldr	r2, [pc, #368]	; (8003168 <HAL_RCC_OscConfig+0x504>)
 8002ff8:	f423 7380 	bic.w	r3, r3, #256	; 0x100
 8002ffc:	6013      	str	r3, [r2, #0]
 8002ffe:	f7fd fe73 	bl	8000ce8 <HAL_GetTick>
 8003002:	6138      	str	r0, [r7, #16]
 8003004:	e008      	b.n	8003018 <HAL_RCC_OscConfig+0x3b4>
 8003006:	f7fd fe6f 	bl	8000ce8 <HAL_GetTick>
 800300a:	4602      	mov	r2, r0
 800300c:	693b      	ldr	r3, [r7, #16]
 800300e:	1ad3      	subs	r3, r2, r3
 8003010:	2b02      	cmp	r3, #2
 8003012:	d901      	bls.n	8003018 <HAL_RCC_OscConfig+0x3b4>
 8003014:	2303      	movs	r3, #3
 8003016:	e237      	b.n	8003488 <HAL_RCC_OscConfig+0x824>
 8003018:	4b53      	ldr	r3, [pc, #332]	; (8003168 <HAL_RCC_OscConfig+0x504>)
 800301a:	681b      	ldr	r3, [r3, #0]
 800301c:	f403 6380 	and.w	r3, r3, #1024	; 0x400
 8003020:	2b00      	cmp	r3, #0
 8003022:	d1f0      	bne.n	8003006 <HAL_RCC_OscConfig+0x3a2>
 8003024:	687b      	ldr	r3, [r7, #4]
 8003026:	681b      	ldr	r3, [r3, #0]
 8003028:	f003 0308 	and.w	r3, r3, #8
 800302c:	2b00      	cmp	r3, #0
 800302e:	d03c      	beq.n	80030aa <HAL_RCC_OscConfig+0x446>
 8003030:	687b      	ldr	r3, [r7, #4]
 8003032:	695b      	ldr	r3, [r3, #20]
 8003034:	2b00      	cmp	r3, #0
 8003036:	d01c      	beq.n	8003072 <HAL_RCC_OscConfig+0x40e>
 8003038:	4b4b      	ldr	r3, [pc, #300]	; (8003168 <HAL_RCC_OscConfig+0x504>)
 800303a:	f8d3 3094 	ldr.w	r3, [r3, #148]	; 0x94
 800303e:	4a4a      	ldr	r2, [pc, #296]	; (8003168 <HAL_RCC_OscConfig+0x504>)
 8003040:	f043 0301 	orr.w	r3, r3, #1
 8003044:	f8c2 3094 	str.w	r3, [r2, #148]	; 0x94
 8003048:	f7fd fe4e 	bl	8000ce8 <HAL_GetTick>
 800304c:	6138      	str	r0, [r7, #16]
 800304e:	e008      	b.n	8003062 <HAL_RCC_OscConfig+0x3fe>
 8003050:	f7fd fe4a 	bl	8000ce8 <HAL_GetTick>
 8003054:	4602      	mov	r2, r0
 8003056:	693b      	ldr	r3, [r7, #16]
 8003058:	1ad3      	subs	r3, r2, r3
 800305a:	2b02      	cmp	r3, #2
 800305c:	d901      	bls.n	8003062 <HAL_RCC_OscConfig+0x3fe>
 800305e:	2303      	movs	r3, #3
 8003060:	e212      	b.n	8003488 <HAL_RCC_OscConfig+0x824>
 8003062:	4b41      	ldr	r3, [pc, #260]	; (8003168 <HAL_RCC_OscConfig+0x504>)
 8003064:	f8d3 3094 	ldr.w	r3, [r3, #148]	; 0x94
 8003068:	f003 0302 	and.w	r3, r3, #2
 800306c:	2b00      	cmp	r3, #0
 800306e:	d0ef      	beq.n	8003050 <HAL_RCC_OscConfig+0x3ec>
 8003070:	e01b      	b.n	80030aa <HAL_RCC_OscConfig+0x446>
 8003072:	4b3d      	ldr	r3, [pc, #244]	; (8003168 <HAL_RCC_OscConfig+0x504>)
 8003074:	f8d3 3094 	ldr.w	r3, [r3, #148]	; 0x94
 8003078:	4a3b      	ldr	r2, [pc, #236]	; (8003168 <HAL_RCC_OscConfig+0x504>)
 800307a:	f023 0301 	bic.w	r3, r3, #1
 800307e:	f8c2 3094 	str.w	r3, [r2, #148]	; 0x94
 8003082:	f7fd fe31 	bl	8000ce8 <HAL_GetTick>
 8003086:	6138      	str	r0, [r7, #16]
 8003088:	e008      	b.n	800309c <HAL_RCC_OscConfig+0x438>
 800308a:	f7fd fe2d 	bl	8000ce8 <HAL_GetTick>
 800308e:	4602      	mov	r2, r0
 8003090:	693b      	ldr	r3, [r7, #16]
 8003092:	1ad3      	subs	r3, r2, r3
 8003094:	2b02      	cmp	r3, #2
 8003096:	d901      	bls.n	800309c <HAL_RCC_OscConfig+0x438>
 8003098:	2303      	movs	r3, #3
 800309a:	e1f5      	b.n	8003488 <HAL_RCC_OscConfig+0x824>
 800309c:	4b32      	ldr	r3, [pc, #200]	; (8003168 <HAL_RCC_OscConfig+0x504>)
 800309e:	f8d3 3094 	ldr.w	r3, [r3, #148]	; 0x94
 80030a2:	f003 0302 	and.w	r3, r3, #2
 80030a6:	2b00      	cmp	r3, #0
 80030a8:	d1ef      	bne.n	800308a <HAL_RCC_OscConfig+0x426>
 80030aa:	687b      	ldr	r3, [r7, #4]
 80030ac:	681b      	ldr	r3, [r3, #0]
 80030ae:	f003 0304 	and.w	r3, r3, #4
 80030b2:	2b00      	cmp	r3, #0
 80030b4:	f000 80a6 	beq.w	8003204 <HAL_RCC_OscConfig+0x5a0>
 80030b8:	2300      	movs	r3, #0
 80030ba:	77fb      	strb	r3, [r7, #31]
 80030bc:	4b2a      	ldr	r3, [pc, #168]	; (8003168 <HAL_RCC_OscConfig+0x504>)
 80030be:	6d9b      	ldr	r3, [r3, #88]	; 0x58
 80030c0:	f003 5380 	and.w	r3, r3, #268435456	; 0x10000000
 80030c4:	2b00      	cmp	r3, #0
 80030c6:	d10d      	bne.n	80030e4 <HAL_RCC_OscConfig+0x480>
 80030c8:	4b27      	ldr	r3, [pc, #156]	; (8003168 <HAL_RCC_OscConfig+0x504>)
 80030ca:	6d9b      	ldr	r3, [r3, #88]	; 0x58
 80030cc:	4a26      	ldr	r2, [pc, #152]	; (8003168 <HAL_RCC_OscConfig+0x504>)
 80030ce:	f043 5380 	orr.w	r3, r3, #268435456	; 0x10000000
 80030d2:	6593      	str	r3, [r2, #88]	; 0x58
 80030d4:	4b24      	ldr	r3, [pc, #144]	; (8003168 <HAL_RCC_OscConfig+0x504>)
 80030d6:	6d9b      	ldr	r3, [r3, #88]	; 0x58
 80030d8:	f003 5380 	and.w	r3, r3, #268435456	; 0x10000000
 80030dc:	60bb      	str	r3, [r7, #8]
 80030de:	68bb      	ldr	r3, [r7, #8]
 80030e0:	2301      	movs	r3, #1
 80030e2:	77fb      	strb	r3, [r7, #31]
 80030e4:	4b21      	ldr	r3, [pc, #132]	; (800316c <HAL_RCC_OscConfig+0x508>)
 80030e6:	681b      	ldr	r3, [r3, #0]
 80030e8:	f403 7380 	and.w	r3, r3, #256	; 0x100
 80030ec:	2b00      	cmp	r3, #0
 80030ee:	d118      	bne.n	8003122 <HAL_RCC_OscConfig+0x4be>
 80030f0:	4b1e      	ldr	r3, [pc, #120]	; (800316c <HAL_RCC_OscConfig+0x508>)
 80030f2:	681b      	ldr	r3, [r3, #0]
 80030f4:	4a1d      	ldr	r2, [pc, #116]	; (800316c <HAL_RCC_OscConfig+0x508>)
 80030f6:	f443 7380 	orr.w	r3, r3, #256	; 0x100
 80030fa:	6013      	str	r3, [r2, #0]
 80030fc:	f7fd fdf4 	bl	8000ce8 <HAL_GetTick>
 8003100:	6138      	str	r0, [r7, #16]
 8003102:	e008      	b.n	8003116 <HAL_RCC_OscConfig+0x4b2>
 8003104:	f7fd fdf0 	bl	8000ce8 <HAL_GetTick>
 8003108:	4602      	mov	r2, r0
 800310a:	693b      	ldr	r3, [r7, #16]
 800310c:	1ad3      	subs	r3, r2, r3
 800310e:	2b02      	cmp	r3, #2
 8003110:	d901      	bls.n	8003116 <HAL_RCC_OscConfig+0x4b2>
 8003112:	2303      	movs	r3, #3
 8003114:	e1b8      	b.n	8003488 <HAL_RCC_OscConfig+0x824>
 8003116:	4b15      	ldr	r3, [pc, #84]	; (800316c <HAL_RCC_OscConfig+0x508>)
 8003118:	681b      	ldr	r3, [r3, #0]
 800311a:	f403 7380 	and.w	r3, r3, #256	; 0x100
 800311e:	2b00      	cmp	r3, #0
 8003120:	d0f0      	beq.n	8003104 <HAL_RCC_OscConfig+0x4a0>
 8003122:	687b      	ldr	r3, [r7, #4]
 8003124:	689b      	ldr	r3, [r3, #8]
 8003126:	2b01      	cmp	r3, #1
 8003128:	d108      	bne.n	800313c <HAL_RCC_OscConfig+0x4d8>
 800312a:	4b0f      	ldr	r3, [pc, #60]	; (8003168 <HAL_RCC_OscConfig+0x504>)
 800312c:	f8d3 3090 	ldr.w	r3, [r3, #144]	; 0x90
 8003130:	4a0d      	ldr	r2, [pc, #52]	; (8003168 <HAL_RCC_OscConfig+0x504>)
 8003132:	f043 0301 	orr.w	r3, r3, #1
 8003136:	f8c2 3090 	str.w	r3, [r2, #144]	; 0x90
 800313a:	e029      	b.n	8003190 <HAL_RCC_OscConfig+0x52c>
 800313c:	687b      	ldr	r3, [r7, #4]
 800313e:	689b      	ldr	r3, [r3, #8]
 8003140:	2b05      	cmp	r3, #5
 8003142:	d115      	bne.n	8003170 <HAL_RCC_OscConfig+0x50c>
 8003144:	4b08      	ldr	r3, [pc, #32]	; (8003168 <HAL_RCC_OscConfig+0x504>)
 8003146:	f8d3 3090 	ldr.w	r3, [r3, #144]	; 0x90
 800314a:	4a07      	ldr	r2, [pc, #28]	; (8003168 <HAL_RCC_OscConfig+0x504>)
 800314c:	f043 0304 	orr.w	r3, r3, #4
 8003150:	f8c2 3090 	str.w	r3, [r2, #144]	; 0x90
 8003154:	4b04      	ldr	r3, [pc, #16]	; (8003168 <HAL_RCC_OscConfig+0x504>)
 8003156:	f8d3 3090 	ldr.w	r3, [r3, #144]	; 0x90
 800315a:	4a03      	ldr	r2, [pc, #12]	; (8003168 <HAL_RCC_OscConfig+0x504>)
 800315c:	f043 0301 	orr.w	r3, r3, #1
 8003160:	f8c2 3090 	str.w	r3, [r2, #144]	; 0x90
 8003164:	e014      	b.n	8003190 <HAL_RCC_OscConfig+0x52c>
 8003166:	bf00      	nop
 8003168:	40021000 	.word	0x40021000
 800316c:	40007000 	.word	0x40007000
 8003170:	4b9d      	ldr	r3, [pc, #628]	; (80033e8 <HAL_RCC_OscConfig+0x784>)
 8003172:	f8d3 3090 	ldr.w	r3, [r3, #144]	; 0x90
 8003176:	4a9c      	ldr	r2, [pc, #624]	; (80033e8 <HAL_RCC_OscConfig+0x784>)
 8003178:	f023 0301 	bic.w	r3, r3, #1
 800317c:	f8c2 3090 	str.w	r3, [r2, #144]	; 0x90
 8003180:	4b99      	ldr	r3, [pc, #612]	; (80033e8 <HAL_RCC_OscConfig+0x784>)
 8003182:	f8d3 3090 	ldr.w	r3, [r3, #144]	; 0x90
 8003186:	4a98      	ldr	r2, [pc, #608]	; (80033e8 <HAL_RCC_OscConfig+0x784>)
 8003188:	f023 0304 	bic.w	r3, r3, #4
 800318c:	f8c2 3090 	str.w	r3, [r2, #144]	; 0x90
 8003190:	687b      	ldr	r3, [r7, #4]
 8003192:	689b      	ldr	r3, [r3, #8]
 8003194:	2b00      	cmp	r3, #0
 8003196:	d016      	beq.n	80031c6 <HAL_RCC_OscConfig+0x562>
 8003198:	f7fd fda6 	bl	8000ce8 <HAL_GetTick>
 800319c:	6138      	str	r0, [r7, #16]
 800319e:	e00a      	b.n	80031b6 <HAL_RCC_OscConfig+0x552>
 80031a0:	f7fd fda2 	bl	8000ce8 <HAL_GetTick>
 80031a4:	4602      	mov	r2, r0
 80031a6:	693b      	ldr	r3, [r7, #16]
 80031a8:	1ad3      	subs	r3, r2, r3
 80031aa:	f241 3288 	movw	r2, #5000	; 0x1388
 80031ae:	4293      	cmp	r3, r2
 80031b0:	d901      	bls.n	80031b6 <HAL_RCC_OscConfig+0x552>
 80031b2:	2303      	movs	r3, #3
 80031b4:	e168      	b.n	8003488 <HAL_RCC_OscConfig+0x824>
 80031b6:	4b8c      	ldr	r3, [pc, #560]	; (80033e8 <HAL_RCC_OscConfig+0x784>)
 80031b8:	f8d3 3090 	ldr.w	r3, [r3, #144]	; 0x90
 80031bc:	f003 0302 	and.w	r3, r3, #2
 80031c0:	2b00      	cmp	r3, #0
 80031c2:	d0ed      	beq.n	80031a0 <HAL_RCC_OscConfig+0x53c>
 80031c4:	e015      	b.n	80031f2 <HAL_RCC_OscConfig+0x58e>
 80031c6:	f7fd fd8f 	bl	8000ce8 <HAL_GetTick>
 80031ca:	6138      	str	r0, [r7, #16]
 80031cc:	e00a      	b.n	80031e4 <HAL_RCC_OscConfig+0x580>
 80031ce:	f7fd fd8b 	bl	8000ce8 <HAL_GetTick>
 80031d2:	4602      	mov	r2, r0
 80031d4:	693b      	ldr	r3, [r7, #16]
 80031d6:	1ad3      	subs	r3, r2, r3
 80031d8:	f241 3288 	movw	r2, #5000	; 0x1388
 80031dc:	4293      	cmp	r3, r2
 80031de:	d901      	bls.n	80031e4 <HAL_RCC_OscConfig+0x580>
 80031e0:	2303      	movs	r3, #3
 80031e2:	e151      	b.n	8003488 <HAL_RCC_OscConfig+0x824>
 80031e4:	4b80      	ldr	r3, [pc, #512]	; (80033e8 <HAL_RCC_OscConfig+0x784>)
 80031e6:	f8d3 3090 	ldr.w	r3, [r3, #144]	; 0x90
 80031ea:	f003 0302 	and.w	r3, r3, #2
 80031ee:	2b00      	cmp	r3, #0
 80031f0:	d1ed      	bne.n	80031ce <HAL_RCC_OscConfig+0x56a>
 80031f2:	7ffb      	ldrb	r3, [r7, #31]
 80031f4:	2b01      	cmp	r3, #1
 80031f6:	d105      	bne.n	8003204 <HAL_RCC_OscConfig+0x5a0>
 80031f8:	4b7b      	ldr	r3, [pc, #492]	; (80033e8 <HAL_RCC_OscConfig+0x784>)
 80031fa:	6d9b      	ldr	r3, [r3, #88]	; 0x58
 80031fc:	4a7a      	ldr	r2, [pc, #488]	; (80033e8 <HAL_RCC_OscConfig+0x784>)
 80031fe:	f023 5380 	bic.w	r3, r3, #268435456	; 0x10000000
 8003202:	6593      	str	r3, [r2, #88]	; 0x58
 8003204:	687b      	ldr	r3, [r7, #4]
 8003206:	681b      	ldr	r3, [r3, #0]
 8003208:	f003 0320 	and.w	r3, r3, #32
 800320c:	2b00      	cmp	r3, #0
 800320e:	d03c      	beq.n	800328a <HAL_RCC_OscConfig+0x626>
 8003210:	687b      	ldr	r3, [r7, #4]
 8003212:	6a5b      	ldr	r3, [r3, #36]	; 0x24
 8003214:	2b00      	cmp	r3, #0
 8003216:	d01c      	beq.n	8003252 <HAL_RCC_OscConfig+0x5ee>
 8003218:	4b73      	ldr	r3, [pc, #460]	; (80033e8 <HAL_RCC_OscConfig+0x784>)
 800321a:	f8d3 3098 	ldr.w	r3, [r3, #152]	; 0x98
 800321e:	4a72      	ldr	r2, [pc, #456]	; (80033e8 <HAL_RCC_OscConfig+0x784>)
 8003220:	f043 0301 	orr.w	r3, r3, #1
 8003224:	f8c2 3098 	str.w	r3, [r2, #152]	; 0x98
 8003228:	f7fd fd5e 	bl	8000ce8 <HAL_GetTick>
 800322c:	6138      	str	r0, [r7, #16]
 800322e:	e008      	b.n	8003242 <HAL_RCC_OscConfig+0x5de>
 8003230:	f7fd fd5a 	bl	8000ce8 <HAL_GetTick>
 8003234:	4602      	mov	r2, r0
 8003236:	693b      	ldr	r3, [r7, #16]
 8003238:	1ad3      	subs	r3, r2, r3
 800323a:	2b02      	cmp	r3, #2
 800323c:	d901      	bls.n	8003242 <HAL_RCC_OscConfig+0x5de>
 800323e:	2303      	movs	r3, #3
 8003240:	e122      	b.n	8003488 <HAL_RCC_OscConfig+0x824>
 8003242:	4b69      	ldr	r3, [pc, #420]	; (80033e8 <HAL_RCC_OscConfig+0x784>)
 8003244:	f8d3 3098 	ldr.w	r3, [r3, #152]	; 0x98
 8003248:	f003 0302 	and.w	r3, r3, #2
 800324c:	2b00      	cmp	r3, #0
 800324e:	d0ef      	beq.n	8003230 <HAL_RCC_OscConfig+0x5cc>
 8003250:	e01b      	b.n	800328a <HAL_RCC_OscConfig+0x626>
 8003252:	4b65      	ldr	r3, [pc, #404]	; (80033e8 <HAL_RCC_OscConfig+0x784>)
 8003254:	f8d3 3098 	ldr.w	r3, [r3, #152]	; 0x98
 8003258:	4a63      	ldr	r2, [pc, #396]	; (80033e8 <HAL_RCC_OscConfig+0x784>)
 800325a:	f023 0301 	bic.w	r3, r3, #1
 800325e:	f8c2 3098 	str.w	r3, [r2, #152]	; 0x98
 8003262:	f7fd fd41 	bl	8000ce8 <HAL_GetTick>
 8003266:	6138      	str	r0, [r7, #16]
 8003268:	e008      	b.n	800327c <HAL_RCC_OscConfig+0x618>
 800326a:	f7fd fd3d 	bl	8000ce8 <HAL_GetTick>
 800326e:	4602      	mov	r2, r0
 8003270:	693b      	ldr	r3, [r7, #16]
 8003272:	1ad3      	subs	r3, r2, r3
 8003274:	2b02      	cmp	r3, #2
 8003276:	d901      	bls.n	800327c <HAL_RCC_OscConfig+0x618>
 8003278:	2303      	movs	r3, #3
 800327a:	e105      	b.n	8003488 <HAL_RCC_OscConfig+0x824>
 800327c:	4b5a      	ldr	r3, [pc, #360]	; (80033e8 <HAL_RCC_OscConfig+0x784>)
 800327e:	f8d3 3098 	ldr.w	r3, [r3, #152]	; 0x98
 8003282:	f003 0302 	and.w	r3, r3, #2
 8003286:	2b00      	cmp	r3, #0
 8003288:	d1ef      	bne.n	800326a <HAL_RCC_OscConfig+0x606>
 800328a:	687b      	ldr	r3, [r7, #4]
 800328c:	6a9b      	ldr	r3, [r3, #40]	; 0x28
 800328e:	2b00      	cmp	r3, #0
 8003290:	f000 80f9 	beq.w	8003486 <HAL_RCC_OscConfig+0x822>
 8003294:	687b      	ldr	r3, [r7, #4]
 8003296:	6a9b      	ldr	r3, [r3, #40]	; 0x28
 8003298:	2b02      	cmp	r3, #2
 800329a:	f040 80cf 	bne.w	800343c <HAL_RCC_OscConfig+0x7d8>
 800329e:	4b52      	ldr	r3, [pc, #328]	; (80033e8 <HAL_RCC_OscConfig+0x784>)
 80032a0:	68db      	ldr	r3, [r3, #12]
 80032a2:	617b      	str	r3, [r7, #20]
 80032a4:	697b      	ldr	r3, [r7, #20]
 80032a6:	f003 0203 	and.w	r2, r3, #3
 80032aa:	687b      	ldr	r3, [r7, #4]
 80032ac:	6adb      	ldr	r3, [r3, #44]	; 0x2c
 80032ae:	429a      	cmp	r2, r3
 80032b0:	d12c      	bne.n	800330c <HAL_RCC_OscConfig+0x6a8>
 80032b2:	697b      	ldr	r3, [r7, #20]
 80032b4:	f003 02f0 	and.w	r2, r3, #240	; 0xf0
 80032b8:	687b      	ldr	r3, [r7, #4]
 80032ba:	6b1b      	ldr	r3, [r3, #48]	; 0x30
 80032bc:	3b01      	subs	r3, #1
 80032be:	011b      	lsls	r3, r3, #4
 80032c0:	429a      	cmp	r2, r3
 80032c2:	d123      	bne.n	800330c <HAL_RCC_OscConfig+0x6a8>
 80032c4:	697b      	ldr	r3, [r7, #20]
 80032c6:	f403 42fe 	and.w	r2, r3, #32512	; 0x7f00
 80032ca:	687b      	ldr	r3, [r7, #4]
 80032cc:	6b5b      	ldr	r3, [r3, #52]	; 0x34
 80032ce:	021b      	lsls	r3, r3, #8
 80032d0:	429a      	cmp	r2, r3
 80032d2:	d11b      	bne.n	800330c <HAL_RCC_OscConfig+0x6a8>
 80032d4:	697b      	ldr	r3, [r7, #20]
 80032d6:	f003 4278 	and.w	r2, r3, #4160749568	; 0xf8000000
 80032da:	687b      	ldr	r3, [r7, #4]
 80032dc:	6b9b      	ldr	r3, [r3, #56]	; 0x38
 80032de:	06db      	lsls	r3, r3, #27
 80032e0:	429a      	cmp	r2, r3
 80032e2:	d113      	bne.n	800330c <HAL_RCC_OscConfig+0x6a8>
 80032e4:	697b      	ldr	r3, [r7, #20]
 80032e6:	f403 02c0 	and.w	r2, r3, #6291456	; 0x600000
 80032ea:	687b      	ldr	r3, [r7, #4]
 80032ec:	6bdb      	ldr	r3, [r3, #60]	; 0x3c
 80032ee:	085b      	lsrs	r3, r3, #1
 80032f0:	3b01      	subs	r3, #1
 80032f2:	055b      	lsls	r3, r3, #21
 80032f4:	429a      	cmp	r2, r3
 80032f6:	d109      	bne.n	800330c <HAL_RCC_OscConfig+0x6a8>
 80032f8:	697b      	ldr	r3, [r7, #20]
 80032fa:	f003 62c0 	and.w	r2, r3, #100663296	; 0x6000000
 80032fe:	687b      	ldr	r3, [r7, #4]
 8003300:	6c1b      	ldr	r3, [r3, #64]	; 0x40
 8003302:	085b      	lsrs	r3, r3, #1
 8003304:	3b01      	subs	r3, #1
 8003306:	065b      	lsls	r3, r3, #25
 8003308:	429a      	cmp	r2, r3
 800330a:	d071      	beq.n	80033f0 <HAL_RCC_OscConfig+0x78c>
 800330c:	69bb      	ldr	r3, [r7, #24]
 800330e:	2b0c      	cmp	r3, #12
 8003310:	d068      	beq.n	80033e4 <HAL_RCC_OscConfig+0x780>
 8003312:	4b35      	ldr	r3, [pc, #212]	; (80033e8 <HAL_RCC_OscConfig+0x784>)
 8003314:	681b      	ldr	r3, [r3, #0]
 8003316:	f003 6380 	and.w	r3, r3, #67108864	; 0x4000000
 800331a:	2b00      	cmp	r3, #0
 800331c:	d105      	bne.n	800332a <HAL_RCC_OscConfig+0x6c6>
 800331e:	4b32      	ldr	r3, [pc, #200]	; (80033e8 <HAL_RCC_OscConfig+0x784>)
 8003320:	681b      	ldr	r3, [r3, #0]
 8003322:	f003 5380 	and.w	r3, r3, #268435456	; 0x10000000
 8003326:	2b00      	cmp	r3, #0
 8003328:	d001      	beq.n	800332e <HAL_RCC_OscConfig+0x6ca>
 800332a:	2301      	movs	r3, #1
 800332c:	e0ac      	b.n	8003488 <HAL_RCC_OscConfig+0x824>
 800332e:	4b2e      	ldr	r3, [pc, #184]	; (80033e8 <HAL_RCC_OscConfig+0x784>)
 8003330:	681b      	ldr	r3, [r3, #0]
 8003332:	4a2d      	ldr	r2, [pc, #180]	; (80033e8 <HAL_RCC_OscConfig+0x784>)
 8003334:	f023 7380 	bic.w	r3, r3, #16777216	; 0x1000000
 8003338:	6013      	str	r3, [r2, #0]
 800333a:	f7fd fcd5 	bl	8000ce8 <HAL_GetTick>
 800333e:	6138      	str	r0, [r7, #16]
 8003340:	e008      	b.n	8003354 <HAL_RCC_OscConfig+0x6f0>
 8003342:	f7fd fcd1 	bl	8000ce8 <HAL_GetTick>
 8003346:	4602      	mov	r2, r0
 8003348:	693b      	ldr	r3, [r7, #16]
 800334a:	1ad3      	subs	r3, r2, r3
 800334c:	2b02      	cmp	r3, #2
 800334e:	d901      	bls.n	8003354 <HAL_RCC_OscConfig+0x6f0>
 8003350:	2303      	movs	r3, #3
 8003352:	e099      	b.n	8003488 <HAL_RCC_OscConfig+0x824>
 8003354:	4b24      	ldr	r3, [pc, #144]	; (80033e8 <HAL_RCC_OscConfig+0x784>)
 8003356:	681b      	ldr	r3, [r3, #0]
 8003358:	f003 7300 	and.w	r3, r3, #33554432	; 0x2000000
 800335c:	2b00      	cmp	r3, #0
 800335e:	d1f0      	bne.n	8003342 <HAL_RCC_OscConfig+0x6de>
 8003360:	4b21      	ldr	r3, [pc, #132]	; (80033e8 <HAL_RCC_OscConfig+0x784>)
 8003362:	68da      	ldr	r2, [r3, #12]
 8003364:	4b21      	ldr	r3, [pc, #132]	; (80033ec <HAL_RCC_OscConfig+0x788>)
 8003366:	4013      	ands	r3, r2
 8003368:	687a      	ldr	r2, [r7, #4]
 800336a:	6ad1      	ldr	r1, [r2, #44]	; 0x2c
 800336c:	687a      	ldr	r2, [r7, #4]
 800336e:	6b12      	ldr	r2, [r2, #48]	; 0x30
 8003370:	3a01      	subs	r2, #1
 8003372:	0112      	lsls	r2, r2, #4
 8003374:	4311      	orrs	r1, r2
 8003376:	687a      	ldr	r2, [r7, #4]
 8003378:	6b52      	ldr	r2, [r2, #52]	; 0x34
 800337a:	0212      	lsls	r2, r2, #8
 800337c:	4311      	orrs	r1, r2
 800337e:	687a      	ldr	r2, [r7, #4]
 8003380:	6bd2      	ldr	r2, [r2, #60]	; 0x3c
 8003382:	0852      	lsrs	r2, r2, #1
 8003384:	3a01      	subs	r2, #1
 8003386:	0552      	lsls	r2, r2, #21
 8003388:	4311      	orrs	r1, r2
 800338a:	687a      	ldr	r2, [r7, #4]
 800338c:	6c12      	ldr	r2, [r2, #64]	; 0x40
 800338e:	0852      	lsrs	r2, r2, #1
 8003390:	3a01      	subs	r2, #1
 8003392:	0652      	lsls	r2, r2, #25
 8003394:	4311      	orrs	r1, r2
 8003396:	687a      	ldr	r2, [r7, #4]
 8003398:	6b92      	ldr	r2, [r2, #56]	; 0x38
 800339a:	06d2      	lsls	r2, r2, #27
 800339c:	430a      	orrs	r2, r1
 800339e:	4912      	ldr	r1, [pc, #72]	; (80033e8 <HAL_RCC_OscConfig+0x784>)
 80033a0:	4313      	orrs	r3, r2
 80033a2:	60cb      	str	r3, [r1, #12]
 80033a4:	4b10      	ldr	r3, [pc, #64]	; (80033e8 <HAL_RCC_OscConfig+0x784>)
 80033a6:	681b      	ldr	r3, [r3, #0]
 80033a8:	4a0f      	ldr	r2, [pc, #60]	; (80033e8 <HAL_RCC_OscConfig+0x784>)
 80033aa:	f043 7380 	orr.w	r3, r3, #16777216	; 0x1000000
 80033ae:	6013      	str	r3, [r2, #0]
 80033b0:	4b0d      	ldr	r3, [pc, #52]	; (80033e8 <HAL_RCC_OscConfig+0x784>)
 80033b2:	68db      	ldr	r3, [r3, #12]
 80033b4:	4a0c      	ldr	r2, [pc, #48]	; (80033e8 <HAL_RCC_OscConfig+0x784>)
 80033b6:	f043 7380 	orr.w	r3, r3, #16777216	; 0x1000000
 80033ba:	60d3      	str	r3, [r2, #12]
 80033bc:	f7fd fc94 	bl	8000ce8 <HAL_GetTick>
 80033c0:	6138      	str	r0, [r7, #16]
 80033c2:	e008      	b.n	80033d6 <HAL_RCC_OscConfig+0x772>
 80033c4:	f7fd fc90 	bl	8000ce8 <HAL_GetTick>
 80033c8:	4602      	mov	r2, r0
 80033ca:	693b      	ldr	r3, [r7, #16]
 80033cc:	1ad3      	subs	r3, r2, r3
 80033ce:	2b02      	cmp	r3, #2
 80033d0:	d901      	bls.n	80033d6 <HAL_RCC_OscConfig+0x772>
 80033d2:	2303      	movs	r3, #3
 80033d4:	e058      	b.n	8003488 <HAL_RCC_OscConfig+0x824>
 80033d6:	4b04      	ldr	r3, [pc, #16]	; (80033e8 <HAL_RCC_OscConfig+0x784>)
 80033d8:	681b      	ldr	r3, [r3, #0]
 80033da:	f003 7300 	and.w	r3, r3, #33554432	; 0x2000000
 80033de:	2b00      	cmp	r3, #0
 80033e0:	d0f0      	beq.n	80033c4 <HAL_RCC_OscConfig+0x760>
 80033e2:	e050      	b.n	8003486 <HAL_RCC_OscConfig+0x822>
 80033e4:	2301      	movs	r3, #1
 80033e6:	e04f      	b.n	8003488 <HAL_RCC_OscConfig+0x824>
 80033e8:	40021000 	.word	0x40021000
 80033ec:	019d800c 	.word	0x019d800c
 80033f0:	4b27      	ldr	r3, [pc, #156]	; (8003490 <HAL_RCC_OscConfig+0x82c>)
 80033f2:	681b      	ldr	r3, [r3, #0]
 80033f4:	f003 7300 	and.w	r3, r3, #33554432	; 0x2000000
 80033f8:	2b00      	cmp	r3, #0
 80033fa:	d144      	bne.n	8003486 <HAL_RCC_OscConfig+0x822>
 80033fc:	4b24      	ldr	r3, [pc, #144]	; (8003490 <HAL_RCC_OscConfig+0x82c>)
 80033fe:	681b      	ldr	r3, [r3, #0]
 8003400:	4a23      	ldr	r2, [pc, #140]	; (8003490 <HAL_RCC_OscConfig+0x82c>)
 8003402:	f043 7380 	orr.w	r3, r3, #16777216	; 0x1000000
 8003406:	6013      	str	r3, [r2, #0]
 8003408:	4b21      	ldr	r3, [pc, #132]	; (8003490 <HAL_RCC_OscConfig+0x82c>)
 800340a:	68db      	ldr	r3, [r3, #12]
 800340c:	4a20      	ldr	r2, [pc, #128]	; (8003490 <HAL_RCC_OscConfig+0x82c>)
 800340e:	f043 7380 	orr.w	r3, r3, #16777216	; 0x1000000
 8003412:	60d3      	str	r3, [r2, #12]
 8003414:	f7fd fc68 	bl	8000ce8 <HAL_GetTick>
 8003418:	6138      	str	r0, [r7, #16]
 800341a:	e008      	b.n	800342e <HAL_RCC_OscConfig+0x7ca>
 800341c:	f7fd fc64 	bl	8000ce8 <HAL_GetTick>
 8003420:	4602      	mov	r2, r0
 8003422:	693b      	ldr	r3, [r7, #16]
 8003424:	1ad3      	subs	r3, r2, r3
 8003426:	2b02      	cmp	r3, #2
 8003428:	d901      	bls.n	800342e <HAL_RCC_OscConfig+0x7ca>
 800342a:	2303      	movs	r3, #3
 800342c:	e02c      	b.n	8003488 <HAL_RCC_OscConfig+0x824>
 800342e:	4b18      	ldr	r3, [pc, #96]	; (8003490 <HAL_RCC_OscConfig+0x82c>)
 8003430:	681b      	ldr	r3, [r3, #0]
 8003432:	f003 7300 	and.w	r3, r3, #33554432	; 0x2000000
 8003436:	2b00      	cmp	r3, #0
 8003438:	d0f0      	beq.n	800341c <HAL_RCC_OscConfig+0x7b8>
 800343a:	e024      	b.n	8003486 <HAL_RCC_OscConfig+0x822>
 800343c:	69bb      	ldr	r3, [r7, #24]
 800343e:	2b0c      	cmp	r3, #12
 8003440:	d01f      	beq.n	8003482 <HAL_RCC_OscConfig+0x81e>
 8003442:	4b13      	ldr	r3, [pc, #76]	; (8003490 <HAL_RCC_OscConfig+0x82c>)
 8003444:	681b      	ldr	r3, [r3, #0]
 8003446:	4a12      	ldr	r2, [pc, #72]	; (8003490 <HAL_RCC_OscConfig+0x82c>)
 8003448:	f023 7380 	bic.w	r3, r3, #16777216	; 0x1000000
 800344c:	6013      	str	r3, [r2, #0]
 800344e:	f7fd fc4b 	bl	8000ce8 <HAL_GetTick>
 8003452:	6138      	str	r0, [r7, #16]
 8003454:	e008      	b.n	8003468 <HAL_RCC_OscConfig+0x804>
 8003456:	f7fd fc47 	bl	8000ce8 <HAL_GetTick>
 800345a:	4602      	mov	r2, r0
 800345c:	693b      	ldr	r3, [r7, #16]
 800345e:	1ad3      	subs	r3, r2, r3
 8003460:	2b02      	cmp	r3, #2
 8003462:	d901      	bls.n	8003468 <HAL_RCC_OscConfig+0x804>
 8003464:	2303      	movs	r3, #3
 8003466:	e00f      	b.n	8003488 <HAL_RCC_OscConfig+0x824>
 8003468:	4b09      	ldr	r3, [pc, #36]	; (8003490 <HAL_RCC_OscConfig+0x82c>)
 800346a:	681b      	ldr	r3, [r3, #0]
 800346c:	f003 7300 	and.w	r3, r3, #33554432	; 0x2000000
 8003470:	2b00      	cmp	r3, #0
 8003472:	d1f0      	bne.n	8003456 <HAL_RCC_OscConfig+0x7f2>
 8003474:	4b06      	ldr	r3, [pc, #24]	; (8003490 <HAL_RCC_OscConfig+0x82c>)
 8003476:	68da      	ldr	r2, [r3, #12]
 8003478:	4905      	ldr	r1, [pc, #20]	; (8003490 <HAL_RCC_OscConfig+0x82c>)
 800347a:	4b06      	ldr	r3, [pc, #24]	; (8003494 <HAL_RCC_OscConfig+0x830>)
 800347c:	4013      	ands	r3, r2
 800347e:	60cb      	str	r3, [r1, #12]
 8003480:	e001      	b.n	8003486 <HAL_RCC_OscConfig+0x822>
 8003482:	2301      	movs	r3, #1
 8003484:	e000      	b.n	8003488 <HAL_RCC_OscConfig+0x824>
 8003486:	2300      	movs	r3, #0
 8003488:	4618      	mov	r0, r3
 800348a:	3720      	adds	r7, #32
 800348c:	46bd      	mov	sp, r7
 800348e:	bd80      	pop	{r7, pc}
 8003490:	40021000 	.word	0x40021000
 8003494:	feeefffc 	.word	0xfeeefffc

08003498 <HAL_RCC_ClockConfig>:
 8003498:	b580      	push	{r7, lr}
 800349a:	b086      	sub	sp, #24
 800349c:	af00      	add	r7, sp, #0
 800349e:	6078      	str	r0, [r7, #4]
 80034a0:	6039      	str	r1, [r7, #0]
 80034a2:	2300      	movs	r3, #0
 80034a4:	617b      	str	r3, [r7, #20]
 80034a6:	687b      	ldr	r3, [r7, #4]
 80034a8:	2b00      	cmp	r3, #0
 80034aa:	d101      	bne.n	80034b0 <HAL_RCC_ClockConfig+0x18>
 80034ac:	2301      	movs	r3, #1
 80034ae:	e11d      	b.n	80036ec <HAL_RCC_ClockConfig+0x254>
 80034b0:	4b90      	ldr	r3, [pc, #576]	; (80036f4 <HAL_RCC_ClockConfig+0x25c>)
 80034b2:	681b      	ldr	r3, [r3, #0]
 80034b4:	f003 030f 	and.w	r3, r3, #15
 80034b8:	683a      	ldr	r2, [r7, #0]
 80034ba:	429a      	cmp	r2, r3
 80034bc:	d910      	bls.n	80034e0 <HAL_RCC_ClockConfig+0x48>
 80034be:	4b8d      	ldr	r3, [pc, #564]	; (80036f4 <HAL_RCC_ClockConfig+0x25c>)
 80034c0:	681b      	ldr	r3, [r3, #0]
 80034c2:	f023 020f 	bic.w	r2, r3, #15
 80034c6:	498b      	ldr	r1, [pc, #556]	; (80036f4 <HAL_RCC_ClockConfig+0x25c>)
 80034c8:	683b      	ldr	r3, [r7, #0]
 80034ca:	4313      	orrs	r3, r2
 80034cc:	600b      	str	r3, [r1, #0]
 80034ce:	4b89      	ldr	r3, [pc, #548]	; (80036f4 <HAL_RCC_ClockConfig+0x25c>)
 80034d0:	681b      	ldr	r3, [r3, #0]
 80034d2:	f003 030f 	and.w	r3, r3, #15
 80034d6:	683a      	ldr	r2, [r7, #0]
 80034d8:	429a      	cmp	r2, r3
 80034da:	d001      	beq.n	80034e0 <HAL_RCC_ClockConfig+0x48>
 80034dc:	2301      	movs	r3, #1
 80034de:	e105      	b.n	80036ec <HAL_RCC_ClockConfig+0x254>
 80034e0:	687b      	ldr	r3, [r7, #4]
 80034e2:	681b      	ldr	r3, [r3, #0]
 80034e4:	f003 0302 	and.w	r3, r3, #2
 80034e8:	2b00      	cmp	r3, #0
 80034ea:	d010      	beq.n	800350e <HAL_RCC_ClockConfig+0x76>
 80034ec:	687b      	ldr	r3, [r7, #4]
 80034ee:	689a      	ldr	r2, [r3, #8]
 80034f0:	4b81      	ldr	r3, [pc, #516]	; (80036f8 <HAL_RCC_ClockConfig+0x260>)
 80034f2:	689b      	ldr	r3, [r3, #8]
 80034f4:	f003 03f0 	and.w	r3, r3, #240	; 0xf0
 80034f8:	429a      	cmp	r2, r3
 80034fa:	d908      	bls.n	800350e <HAL_RCC_ClockConfig+0x76>
 80034fc:	4b7e      	ldr	r3, [pc, #504]	; (80036f8 <HAL_RCC_ClockConfig+0x260>)
 80034fe:	689b      	ldr	r3, [r3, #8]
 8003500:	f023 02f0 	bic.w	r2, r3, #240	; 0xf0
 8003504:	687b      	ldr	r3, [r7, #4]
 8003506:	689b      	ldr	r3, [r3, #8]
 8003508:	497b      	ldr	r1, [pc, #492]	; (80036f8 <HAL_RCC_ClockConfig+0x260>)
 800350a:	4313      	orrs	r3, r2
 800350c:	608b      	str	r3, [r1, #8]
 800350e:	687b      	ldr	r3, [r7, #4]
 8003510:	681b      	ldr	r3, [r3, #0]
 8003512:	f003 0301 	and.w	r3, r3, #1
 8003516:	2b00      	cmp	r3, #0
 8003518:	d079      	beq.n	800360e <HAL_RCC_ClockConfig+0x176>
 800351a:	687b      	ldr	r3, [r7, #4]
 800351c:	685b      	ldr	r3, [r3, #4]
 800351e:	2b03      	cmp	r3, #3
 8003520:	d11e      	bne.n	8003560 <HAL_RCC_ClockConfig+0xc8>
 8003522:	4b75      	ldr	r3, [pc, #468]	; (80036f8 <HAL_RCC_ClockConfig+0x260>)
 8003524:	681b      	ldr	r3, [r3, #0]
 8003526:	f003 7300 	and.w	r3, r3, #33554432	; 0x2000000
 800352a:	2b00      	cmp	r3, #0
 800352c:	d101      	bne.n	8003532 <HAL_RCC_ClockConfig+0x9a>
 800352e:	2301      	movs	r3, #1
 8003530:	e0dc      	b.n	80036ec <HAL_RCC_ClockConfig+0x254>
 8003532:	f000 f9dd 	bl	80038f0 <RCC_GetSysClockFreqFromPLLSource>
 8003536:	4603      	mov	r3, r0
 8003538:	4a70      	ldr	r2, [pc, #448]	; (80036fc <HAL_RCC_ClockConfig+0x264>)
 800353a:	4293      	cmp	r3, r2
 800353c:	d946      	bls.n	80035cc <HAL_RCC_ClockConfig+0x134>
 800353e:	4b6e      	ldr	r3, [pc, #440]	; (80036f8 <HAL_RCC_ClockConfig+0x260>)
 8003540:	689b      	ldr	r3, [r3, #8]
 8003542:	f003 03f0 	and.w	r3, r3, #240	; 0xf0
 8003546:	2b00      	cmp	r3, #0
 8003548:	d140      	bne.n	80035cc <HAL_RCC_ClockConfig+0x134>
 800354a:	4b6b      	ldr	r3, [pc, #428]	; (80036f8 <HAL_RCC_ClockConfig+0x260>)
 800354c:	689b      	ldr	r3, [r3, #8]
 800354e:	f023 03f0 	bic.w	r3, r3, #240	; 0xf0
 8003552:	4a69      	ldr	r2, [pc, #420]	; (80036f8 <HAL_RCC_ClockConfig+0x260>)
 8003554:	f043 0380 	orr.w	r3, r3, #128	; 0x80
 8003558:	6093      	str	r3, [r2, #8]
 800355a:	2380      	movs	r3, #128	; 0x80
 800355c:	617b      	str	r3, [r7, #20]
 800355e:	e035      	b.n	80035cc <HAL_RCC_ClockConfig+0x134>
 8003560:	687b      	ldr	r3, [r7, #4]
 8003562:	685b      	ldr	r3, [r3, #4]
 8003564:	2b02      	cmp	r3, #2
 8003566:	d107      	bne.n	8003578 <HAL_RCC_ClockConfig+0xe0>
 8003568:	4b63      	ldr	r3, [pc, #396]	; (80036f8 <HAL_RCC_ClockConfig+0x260>)
 800356a:	681b      	ldr	r3, [r3, #0]
 800356c:	f403 3300 	and.w	r3, r3, #131072	; 0x20000
 8003570:	2b00      	cmp	r3, #0
 8003572:	d115      	bne.n	80035a0 <HAL_RCC_ClockConfig+0x108>
 8003574:	2301      	movs	r3, #1
 8003576:	e0b9      	b.n	80036ec <HAL_RCC_ClockConfig+0x254>
 8003578:	687b      	ldr	r3, [r7, #4]
 800357a:	685b      	ldr	r3, [r3, #4]
 800357c:	2b00      	cmp	r3, #0
 800357e:	d107      	bne.n	8003590 <HAL_RCC_ClockConfig+0xf8>
 8003580:	4b5d      	ldr	r3, [pc, #372]	; (80036f8 <HAL_RCC_ClockConfig+0x260>)
 8003582:	681b      	ldr	r3, [r3, #0]
 8003584:	f003 0302 	and.w	r3, r3, #2
 8003588:	2b00      	cmp	r3, #0
 800358a:	d109      	bne.n	80035a0 <HAL_RCC_ClockConfig+0x108>
 800358c:	2301      	movs	r3, #1
 800358e:	e0ad      	b.n	80036ec <HAL_RCC_ClockConfig+0x254>
 8003590:	4b59      	ldr	r3, [pc, #356]	; (80036f8 <HAL_RCC_ClockConfig+0x260>)
 8003592:	681b      	ldr	r3, [r3, #0]
 8003594:	f403 6380 	and.w	r3, r3, #1024	; 0x400
 8003598:	2b00      	cmp	r3, #0
 800359a:	d101      	bne.n	80035a0 <HAL_RCC_ClockConfig+0x108>
 800359c:	2301      	movs	r3, #1
 800359e:	e0a5      	b.n	80036ec <HAL_RCC_ClockConfig+0x254>
 80035a0:	f000 f8b4 	bl	800370c <HAL_RCC_GetSysClockFreq>
 80035a4:	4603      	mov	r3, r0
 80035a6:	4a55      	ldr	r2, [pc, #340]	; (80036fc <HAL_RCC_ClockConfig+0x264>)
 80035a8:	4293      	cmp	r3, r2
 80035aa:	d90f      	bls.n	80035cc <HAL_RCC_ClockConfig+0x134>
 80035ac:	4b52      	ldr	r3, [pc, #328]	; (80036f8 <HAL_RCC_ClockConfig+0x260>)
 80035ae:	689b      	ldr	r3, [r3, #8]
 80035b0:	f003 03f0 	and.w	r3, r3, #240	; 0xf0
 80035b4:	2b00      	cmp	r3, #0
 80035b6:	d109      	bne.n	80035cc <HAL_RCC_ClockConfig+0x134>
 80035b8:	4b4f      	ldr	r3, [pc, #316]	; (80036f8 <HAL_RCC_ClockConfig+0x260>)
 80035ba:	689b      	ldr	r3, [r3, #8]
 80035bc:	f023 03f0 	bic.w	r3, r3, #240	; 0xf0
 80035c0:	4a4d      	ldr	r2, [pc, #308]	; (80036f8 <HAL_RCC_ClockConfig+0x260>)
 80035c2:	f043 0380 	orr.w	r3, r3, #128	; 0x80
 80035c6:	6093      	str	r3, [r2, #8]
 80035c8:	2380      	movs	r3, #128	; 0x80
 80035ca:	617b      	str	r3, [r7, #20]
 80035cc:	4b4a      	ldr	r3, [pc, #296]	; (80036f8 <HAL_RCC_ClockConfig+0x260>)
 80035ce:	689b      	ldr	r3, [r3, #8]
 80035d0:	f023 0203 	bic.w	r2, r3, #3
 80035d4:	687b      	ldr	r3, [r7, #4]
 80035d6:	685b      	ldr	r3, [r3, #4]
 80035d8:	4947      	ldr	r1, [pc, #284]	; (80036f8 <HAL_RCC_ClockConfig+0x260>)
 80035da:	4313      	orrs	r3, r2
 80035dc:	608b      	str	r3, [r1, #8]
 80035de:	f7fd fb83 	bl	8000ce8 <HAL_GetTick>
 80035e2:	6138      	str	r0, [r7, #16]
 80035e4:	e00a      	b.n	80035fc <HAL_RCC_ClockConfig+0x164>
 80035e6:	f7fd fb7f 	bl	8000ce8 <HAL_GetTick>
 80035ea:	4602      	mov	r2, r0
 80035ec:	693b      	ldr	r3, [r7, #16]
 80035ee:	1ad3      	subs	r3, r2, r3
 80035f0:	f241 3288 	movw	r2, #5000	; 0x1388
 80035f4:	4293      	cmp	r3, r2
 80035f6:	d901      	bls.n	80035fc <HAL_RCC_ClockConfig+0x164>
 80035f8:	2303      	movs	r3, #3
 80035fa:	e077      	b.n	80036ec <HAL_RCC_ClockConfig+0x254>
 80035fc:	4b3e      	ldr	r3, [pc, #248]	; (80036f8 <HAL_RCC_ClockConfig+0x260>)
 80035fe:	689b      	ldr	r3, [r3, #8]
 8003600:	f003 020c 	and.w	r2, r3, #12
 8003604:	687b      	ldr	r3, [r7, #4]
 8003606:	685b      	ldr	r3, [r3, #4]
 8003608:	009b      	lsls	r3, r3, #2
 800360a:	429a      	cmp	r2, r3
 800360c:	d1eb      	bne.n	80035e6 <HAL_RCC_ClockConfig+0x14e>
 800360e:	697b      	ldr	r3, [r7, #20]
 8003610:	2b80      	cmp	r3, #128	; 0x80
 8003612:	d105      	bne.n	8003620 <HAL_RCC_ClockConfig+0x188>
 8003614:	4b38      	ldr	r3, [pc, #224]	; (80036f8 <HAL_RCC_ClockConfig+0x260>)
 8003616:	689b      	ldr	r3, [r3, #8]
 8003618:	4a37      	ldr	r2, [pc, #220]	; (80036f8 <HAL_RCC_ClockConfig+0x260>)
 800361a:	f023 03f0 	bic.w	r3, r3, #240	; 0xf0
 800361e:	6093      	str	r3, [r2, #8]
 8003620:	687b      	ldr	r3, [r7, #4]
 8003622:	681b      	ldr	r3, [r3, #0]
 8003624:	f003 0302 	and.w	r3, r3, #2
 8003628:	2b00      	cmp	r3, #0
 800362a:	d010      	beq.n	800364e <HAL_RCC_ClockConfig+0x1b6>
 800362c:	687b      	ldr	r3, [r7, #4]
 800362e:	689a      	ldr	r2, [r3, #8]
 8003630:	4b31      	ldr	r3, [pc, #196]	; (80036f8 <HAL_RCC_ClockConfig+0x260>)
 8003632:	689b      	ldr	r3, [r3, #8]
 8003634:	f003 03f0 	and.w	r3, r3, #240	; 0xf0
 8003638:	429a      	cmp	r2, r3
 800363a:	d208      	bcs.n	800364e <HAL_RCC_ClockConfig+0x1b6>
 800363c:	4b2e      	ldr	r3, [pc, #184]	; (80036f8 <HAL_RCC_ClockConfig+0x260>)
 800363e:	689b      	ldr	r3, [r3, #8]
 8003640:	f023 02f0 	bic.w	r2, r3, #240	; 0xf0
 8003644:	687b      	ldr	r3, [r7, #4]
 8003646:	689b      	ldr	r3, [r3, #8]
 8003648:	492b      	ldr	r1, [pc, #172]	; (80036f8 <HAL_RCC_ClockConfig+0x260>)
 800364a:	4313      	orrs	r3, r2
 800364c:	608b      	str	r3, [r1, #8]
 800364e:	4b29      	ldr	r3, [pc, #164]	; (80036f4 <HAL_RCC_ClockConfig+0x25c>)
 8003650:	681b      	ldr	r3, [r3, #0]
 8003652:	f003 030f 	and.w	r3, r3, #15
 8003656:	683a      	ldr	r2, [r7, #0]
 8003658:	429a      	cmp	r2, r3
 800365a:	d210      	bcs.n	800367e <HAL_RCC_ClockConfig+0x1e6>
 800365c:	4b25      	ldr	r3, [pc, #148]	; (80036f4 <HAL_RCC_ClockConfig+0x25c>)
 800365e:	681b      	ldr	r3, [r3, #0]
 8003660:	f023 020f 	bic.w	r2, r3, #15
 8003664:	4923      	ldr	r1, [pc, #140]	; (80036f4 <HAL_RCC_ClockConfig+0x25c>)
 8003666:	683b      	ldr	r3, [r7, #0]
 8003668:	4313      	orrs	r3, r2
 800366a:	600b      	str	r3, [r1, #0]
 800366c:	4b21      	ldr	r3, [pc, #132]	; (80036f4 <HAL_RCC_ClockConfig+0x25c>)
 800366e:	681b      	ldr	r3, [r3, #0]
 8003670:	f003 030f 	and.w	r3, r3, #15
 8003674:	683a      	ldr	r2, [r7, #0]
 8003676:	429a      	cmp	r2, r3
 8003678:	d001      	beq.n	800367e <HAL_RCC_ClockConfig+0x1e6>
 800367a:	2301      	movs	r3, #1
 800367c:	e036      	b.n	80036ec <HAL_RCC_ClockConfig+0x254>
 800367e:	687b      	ldr	r3, [r7, #4]
 8003680:	681b      	ldr	r3, [r3, #0]
 8003682:	f003 0304 	and.w	r3, r3, #4
 8003686:	2b00      	cmp	r3, #0
 8003688:	d008      	beq.n	800369c <HAL_RCC_ClockConfig+0x204>
 800368a:	4b1b      	ldr	r3, [pc, #108]	; (80036f8 <HAL_RCC_ClockConfig+0x260>)
 800368c:	689b      	ldr	r3, [r3, #8]
 800368e:	f423 62e0 	bic.w	r2, r3, #1792	; 0x700
 8003692:	687b      	ldr	r3, [r7, #4]
 8003694:	68db      	ldr	r3, [r3, #12]
 8003696:	4918      	ldr	r1, [pc, #96]	; (80036f8 <HAL_RCC_ClockConfig+0x260>)
 8003698:	4313      	orrs	r3, r2
 800369a:	608b      	str	r3, [r1, #8]
 800369c:	687b      	ldr	r3, [r7, #4]
 800369e:	681b      	ldr	r3, [r3, #0]
 80036a0:	f003 0308 	and.w	r3, r3, #8
 80036a4:	2b00      	cmp	r3, #0
 80036a6:	d009      	beq.n	80036bc <HAL_RCC_ClockConfig+0x224>
 80036a8:	4b13      	ldr	r3, [pc, #76]	; (80036f8 <HAL_RCC_ClockConfig+0x260>)
 80036aa:	689b      	ldr	r3, [r3, #8]
 80036ac:	f423 5260 	bic.w	r2, r3, #14336	; 0x3800
 80036b0:	687b      	ldr	r3, [r7, #4]
 80036b2:	691b      	ldr	r3, [r3, #16]
 80036b4:	00db      	lsls	r3, r3, #3
 80036b6:	4910      	ldr	r1, [pc, #64]	; (80036f8 <HAL_RCC_ClockConfig+0x260>)
 80036b8:	4313      	orrs	r3, r2
 80036ba:	608b      	str	r3, [r1, #8]
 80036bc:	f000 f826 	bl	800370c <HAL_RCC_GetSysClockFreq>
 80036c0:	4602      	mov	r2, r0
 80036c2:	4b0d      	ldr	r3, [pc, #52]	; (80036f8 <HAL_RCC_ClockConfig+0x260>)
 80036c4:	689b      	ldr	r3, [r3, #8]
 80036c6:	091b      	lsrs	r3, r3, #4
 80036c8:	f003 030f 	and.w	r3, r3, #15
 80036cc:	490c      	ldr	r1, [pc, #48]	; (8003700 <HAL_RCC_ClockConfig+0x268>)
 80036ce:	5ccb      	ldrb	r3, [r1, r3]
 80036d0:	f003 031f 	and.w	r3, r3, #31
 80036d4:	fa22 f303 	lsr.w	r3, r2, r3
 80036d8:	4a0a      	ldr	r2, [pc, #40]	; (8003704 <HAL_RCC_ClockConfig+0x26c>)
 80036da:	6013      	str	r3, [r2, #0]
 80036dc:	4b0a      	ldr	r3, [pc, #40]	; (8003708 <HAL_RCC_ClockConfig+0x270>)
 80036de:	681b      	ldr	r3, [r3, #0]
 80036e0:	4618      	mov	r0, r3
 80036e2:	f7fd fab1 	bl	8000c48 <HAL_InitTick>
 80036e6:	4603      	mov	r3, r0
 80036e8:	73fb      	strb	r3, [r7, #15]
 80036ea:	7bfb      	ldrb	r3, [r7, #15]
 80036ec:	4618      	mov	r0, r3
 80036ee:	3718      	adds	r7, #24
 80036f0:	46bd      	mov	sp, r7
 80036f2:	bd80      	pop	{r7, pc}
 80036f4:	40022000 	.word	0x40022000
 80036f8:	40021000 	.word	0x40021000
 80036fc:	04c4b400 	.word	0x04c4b400
 8003700:	080085f0 	.word	0x080085f0
 8003704:	20001048 	.word	0x20001048
 8003708:	20000000 	.word	0x20000000

0800370c <HAL_RCC_GetSysClockFreq>:
 800370c:	b480      	push	{r7}
 800370e:	b089      	sub	sp, #36	; 0x24
 8003710:	af00      	add	r7, sp, #0
 8003712:	2300      	movs	r3, #0
 8003714:	61fb      	str	r3, [r7, #28]
 8003716:	2300      	movs	r3, #0
 8003718:	61bb      	str	r3, [r7, #24]
 800371a:	4b3e      	ldr	r3, [pc, #248]	; (8003814 <HAL_RCC_GetSysClockFreq+0x108>)
 800371c:	689b      	ldr	r3, [r3, #8]
 800371e:	f003 030c 	and.w	r3, r3, #12
 8003722:	613b      	str	r3, [r7, #16]
 8003724:	4b3b      	ldr	r3, [pc, #236]	; (8003814 <HAL_RCC_GetSysClockFreq+0x108>)
 8003726:	68db      	ldr	r3, [r3, #12]
 8003728:	f003 0303 	and.w	r3, r3, #3
 800372c:	60fb      	str	r3, [r7, #12]
 800372e:	693b      	ldr	r3, [r7, #16]
 8003730:	2b00      	cmp	r3, #0
 8003732:	d005      	beq.n	8003740 <HAL_RCC_GetSysClockFreq+0x34>
 8003734:	693b      	ldr	r3, [r7, #16]
 8003736:	2b0c      	cmp	r3, #12
 8003738:	d121      	bne.n	800377e <HAL_RCC_GetSysClockFreq+0x72>
 800373a:	68fb      	ldr	r3, [r7, #12]
 800373c:	2b01      	cmp	r3, #1
 800373e:	d11e      	bne.n	800377e <HAL_RCC_GetSysClockFreq+0x72>
 8003740:	4b34      	ldr	r3, [pc, #208]	; (8003814 <HAL_RCC_GetSysClockFreq+0x108>)
 8003742:	681b      	ldr	r3, [r3, #0]
 8003744:	f003 0308 	and.w	r3, r3, #8
 8003748:	2b00      	cmp	r3, #0
 800374a:	d107      	bne.n	800375c <HAL_RCC_GetSysClockFreq+0x50>
 800374c:	4b31      	ldr	r3, [pc, #196]	; (8003814 <HAL_RCC_GetSysClockFreq+0x108>)
 800374e:	f8d3 3094 	ldr.w	r3, [r3, #148]	; 0x94
 8003752:	0a1b      	lsrs	r3, r3, #8
 8003754:	f003 030f 	and.w	r3, r3, #15
 8003758:	61fb      	str	r3, [r7, #28]
 800375a:	e005      	b.n	8003768 <HAL_RCC_GetSysClockFreq+0x5c>
 800375c:	4b2d      	ldr	r3, [pc, #180]	; (8003814 <HAL_RCC_GetSysClockFreq+0x108>)
 800375e:	681b      	ldr	r3, [r3, #0]
 8003760:	091b      	lsrs	r3, r3, #4
 8003762:	f003 030f 	and.w	r3, r3, #15
 8003766:	61fb      	str	r3, [r7, #28]
 8003768:	4a2b      	ldr	r2, [pc, #172]	; (8003818 <HAL_RCC_GetSysClockFreq+0x10c>)
 800376a:	69fb      	ldr	r3, [r7, #28]
 800376c:	f852 3023 	ldr.w	r3, [r2, r3, lsl #2]
 8003770:	61fb      	str	r3, [r7, #28]
 8003772:	693b      	ldr	r3, [r7, #16]
 8003774:	2b00      	cmp	r3, #0
 8003776:	d10d      	bne.n	8003794 <HAL_RCC_GetSysClockFreq+0x88>
 8003778:	69fb      	ldr	r3, [r7, #28]
 800377a:	61bb      	str	r3, [r7, #24]
 800377c:	e00a      	b.n	8003794 <HAL_RCC_GetSysClockFreq+0x88>
 800377e:	693b      	ldr	r3, [r7, #16]
 8003780:	2b04      	cmp	r3, #4
 8003782:	d102      	bne.n	800378a <HAL_RCC_GetSysClockFreq+0x7e>
 8003784:	4b25      	ldr	r3, [pc, #148]	; (800381c <HAL_RCC_GetSysClockFreq+0x110>)
 8003786:	61bb      	str	r3, [r7, #24]
 8003788:	e004      	b.n	8003794 <HAL_RCC_GetSysClockFreq+0x88>
 800378a:	693b      	ldr	r3, [r7, #16]
 800378c:	2b08      	cmp	r3, #8
 800378e:	d101      	bne.n	8003794 <HAL_RCC_GetSysClockFreq+0x88>
 8003790:	4b23      	ldr	r3, [pc, #140]	; (8003820 <HAL_RCC_GetSysClockFreq+0x114>)
 8003792:	61bb      	str	r3, [r7, #24]
 8003794:	693b      	ldr	r3, [r7, #16]
 8003796:	2b0c      	cmp	r3, #12
 8003798:	d134      	bne.n	8003804 <HAL_RCC_GetSysClockFreq+0xf8>
 800379a:	4b1e      	ldr	r3, [pc, #120]	; (8003814 <HAL_RCC_GetSysClockFreq+0x108>)
 800379c:	68db      	ldr	r3, [r3, #12]
 800379e:	f003 0303 	and.w	r3, r3, #3
 80037a2:	60bb      	str	r3, [r7, #8]
 80037a4:	68bb      	ldr	r3, [r7, #8]
 80037a6:	2b02      	cmp	r3, #2
 80037a8:	d003      	beq.n	80037b2 <HAL_RCC_GetSysClockFreq+0xa6>
 80037aa:	68bb      	ldr	r3, [r7, #8]
 80037ac:	2b03      	cmp	r3, #3
 80037ae:	d003      	beq.n	80037b8 <HAL_RCC_GetSysClockFreq+0xac>
 80037b0:	e005      	b.n	80037be <HAL_RCC_GetSysClockFreq+0xb2>
 80037b2:	4b1a      	ldr	r3, [pc, #104]	; (800381c <HAL_RCC_GetSysClockFreq+0x110>)
 80037b4:	617b      	str	r3, [r7, #20]
 80037b6:	e005      	b.n	80037c4 <HAL_RCC_GetSysClockFreq+0xb8>
 80037b8:	4b19      	ldr	r3, [pc, #100]	; (8003820 <HAL_RCC_GetSysClockFreq+0x114>)
 80037ba:	617b      	str	r3, [r7, #20]
 80037bc:	e002      	b.n	80037c4 <HAL_RCC_GetSysClockFreq+0xb8>
 80037be:	69fb      	ldr	r3, [r7, #28]
 80037c0:	617b      	str	r3, [r7, #20]
 80037c2:	bf00      	nop
 80037c4:	4b13      	ldr	r3, [pc, #76]	; (8003814 <HAL_RCC_GetSysClockFreq+0x108>)
 80037c6:	68db      	ldr	r3, [r3, #12]
 80037c8:	091b      	lsrs	r3, r3, #4
 80037ca:	f003 030f 	and.w	r3, r3, #15
 80037ce:	3301      	adds	r3, #1
 80037d0:	607b      	str	r3, [r7, #4]
 80037d2:	4b10      	ldr	r3, [pc, #64]	; (8003814 <HAL_RCC_GetSysClockFreq+0x108>)
 80037d4:	68db      	ldr	r3, [r3, #12]
 80037d6:	0a1b      	lsrs	r3, r3, #8
 80037d8:	f003 037f 	and.w	r3, r3, #127	; 0x7f
 80037dc:	697a      	ldr	r2, [r7, #20]
 80037de:	fb03 f202 	mul.w	r2, r3, r2
 80037e2:	687b      	ldr	r3, [r7, #4]
 80037e4:	fbb2 f3f3 	udiv	r3, r2, r3
 80037e8:	617b      	str	r3, [r7, #20]
 80037ea:	4b0a      	ldr	r3, [pc, #40]	; (8003814 <HAL_RCC_GetSysClockFreq+0x108>)
 80037ec:	68db      	ldr	r3, [r3, #12]
 80037ee:	0e5b      	lsrs	r3, r3, #25
 80037f0:	f003 0303 	and.w	r3, r3, #3
 80037f4:	3301      	adds	r3, #1
 80037f6:	005b      	lsls	r3, r3, #1
 80037f8:	603b      	str	r3, [r7, #0]
 80037fa:	697a      	ldr	r2, [r7, #20]
 80037fc:	683b      	ldr	r3, [r7, #0]
 80037fe:	fbb2 f3f3 	udiv	r3, r2, r3
 8003802:	61bb      	str	r3, [r7, #24]
 8003804:	69bb      	ldr	r3, [r7, #24]
 8003806:	4618      	mov	r0, r3
 8003808:	3724      	adds	r7, #36	; 0x24
 800380a:	46bd      	mov	sp, r7
 800380c:	f85d 7b04 	ldr.w	r7, [sp], #4
 8003810:	4770      	bx	lr
 8003812:	bf00      	nop
 8003814:	40021000 	.word	0x40021000
 8003818:	08008600 	.word	0x08008600
 800381c:	00f42400 	.word	0x00f42400
 8003820:	007a1200 	.word	0x007a1200

08003824 <HAL_RCC_GetHCLKFreq>:
 8003824:	b480      	push	{r7}
 8003826:	af00      	add	r7, sp, #0
 8003828:	4b03      	ldr	r3, [pc, #12]	; (8003838 <HAL_RCC_GetHCLKFreq+0x14>)
 800382a:	681b      	ldr	r3, [r3, #0]
 800382c:	4618      	mov	r0, r3
 800382e:	46bd      	mov	sp, r7
 8003830:	f85d 7b04 	ldr.w	r7, [sp], #4
 8003834:	4770      	bx	lr
 8003836:	bf00      	nop
 8003838:	20001048 	.word	0x20001048

0800383c <RCC_SetFlashLatencyFromMSIRange>:
 800383c:	b580      	push	{r7, lr}
 800383e:	b086      	sub	sp, #24
 8003840:	af00      	add	r7, sp, #0
 8003842:	6078      	str	r0, [r7, #4]
 8003844:	2300      	movs	r3, #0
 8003846:	613b      	str	r3, [r7, #16]
 8003848:	4b27      	ldr	r3, [pc, #156]	; (80038e8 <RCC_SetFlashLatencyFromMSIRange+0xac>)
 800384a:	6d9b      	ldr	r3, [r3, #88]	; 0x58
 800384c:	f003 5380 	and.w	r3, r3, #268435456	; 0x10000000
 8003850:	2b00      	cmp	r3, #0
 8003852:	d003      	beq.n	800385c <RCC_SetFlashLatencyFromMSIRange+0x20>
 8003854:	f7ff f942 	bl	8002adc <HAL_PWREx_GetVoltageRange>
 8003858:	6178      	str	r0, [r7, #20]
 800385a:	e014      	b.n	8003886 <RCC_SetFlashLatencyFromMSIRange+0x4a>
 800385c:	4b22      	ldr	r3, [pc, #136]	; (80038e8 <RCC_SetFlashLatencyFromMSIRange+0xac>)
 800385e:	6d9b      	ldr	r3, [r3, #88]	; 0x58
 8003860:	4a21      	ldr	r2, [pc, #132]	; (80038e8 <RCC_SetFlashLatencyFromMSIRange+0xac>)
 8003862:	f043 5380 	orr.w	r3, r3, #268435456	; 0x10000000
 8003866:	6593      	str	r3, [r2, #88]	; 0x58
 8003868:	4b1f      	ldr	r3, [pc, #124]	; (80038e8 <RCC_SetFlashLatencyFromMSIRange+0xac>)
 800386a:	6d9b      	ldr	r3, [r3, #88]	; 0x58
 800386c:	f003 5380 	and.w	r3, r3, #268435456	; 0x10000000
 8003870:	60fb      	str	r3, [r7, #12]
 8003872:	68fb      	ldr	r3, [r7, #12]
 8003874:	f7ff f932 	bl	8002adc <HAL_PWREx_GetVoltageRange>
 8003878:	6178      	str	r0, [r7, #20]
 800387a:	4b1b      	ldr	r3, [pc, #108]	; (80038e8 <RCC_SetFlashLatencyFromMSIRange+0xac>)
 800387c:	6d9b      	ldr	r3, [r3, #88]	; 0x58
 800387e:	4a1a      	ldr	r2, [pc, #104]	; (80038e8 <RCC_SetFlashLatencyFromMSIRange+0xac>)
 8003880:	f023 5380 	bic.w	r3, r3, #268435456	; 0x10000000
 8003884:	6593      	str	r3, [r2, #88]	; 0x58
 8003886:	697b      	ldr	r3, [r7, #20]
 8003888:	f5b3 7f00 	cmp.w	r3, #512	; 0x200
 800388c:	d10b      	bne.n	80038a6 <RCC_SetFlashLatencyFromMSIRange+0x6a>
 800388e:	687b      	ldr	r3, [r7, #4]
 8003890:	2b80      	cmp	r3, #128	; 0x80
 8003892:	d913      	bls.n	80038bc <RCC_SetFlashLatencyFromMSIRange+0x80>
 8003894:	687b      	ldr	r3, [r7, #4]
 8003896:	2ba0      	cmp	r3, #160	; 0xa0
 8003898:	d902      	bls.n	80038a0 <RCC_SetFlashLatencyFromMSIRange+0x64>
 800389a:	2302      	movs	r3, #2
 800389c:	613b      	str	r3, [r7, #16]
 800389e:	e00d      	b.n	80038bc <RCC_SetFlashLatencyFromMSIRange+0x80>
 80038a0:	2301      	movs	r3, #1
 80038a2:	613b      	str	r3, [r7, #16]
 80038a4:	e00a      	b.n	80038bc <RCC_SetFlashLatencyFromMSIRange+0x80>
 80038a6:	687b      	ldr	r3, [r7, #4]
 80038a8:	2b7f      	cmp	r3, #127	; 0x7f
 80038aa:	d902      	bls.n	80038b2 <RCC_SetFlashLatencyFromMSIRange+0x76>
 80038ac:	2302      	movs	r3, #2
 80038ae:	613b      	str	r3, [r7, #16]
 80038b0:	e004      	b.n	80038bc <RCC_SetFlashLatencyFromMSIRange+0x80>
 80038b2:	687b      	ldr	r3, [r7, #4]
 80038b4:	2b70      	cmp	r3, #112	; 0x70
 80038b6:	d101      	bne.n	80038bc <RCC_SetFlashLatencyFromMSIRange+0x80>
 80038b8:	2301      	movs	r3, #1
 80038ba:	613b      	str	r3, [r7, #16]
 80038bc:	4b0b      	ldr	r3, [pc, #44]	; (80038ec <RCC_SetFlashLatencyFromMSIRange+0xb0>)
 80038be:	681b      	ldr	r3, [r3, #0]
 80038c0:	f023 020f 	bic.w	r2, r3, #15
 80038c4:	4909      	ldr	r1, [pc, #36]	; (80038ec <RCC_SetFlashLatencyFromMSIRange+0xb0>)
 80038c6:	693b      	ldr	r3, [r7, #16]
 80038c8:	4313      	orrs	r3, r2
 80038ca:	600b      	str	r3, [r1, #0]
 80038cc:	4b07      	ldr	r3, [pc, #28]	; (80038ec <RCC_SetFlashLatencyFromMSIRange+0xb0>)
 80038ce:	681b      	ldr	r3, [r3, #0]
 80038d0:	f003 030f 	and.w	r3, r3, #15
 80038d4:	693a      	ldr	r2, [r7, #16]
 80038d6:	429a      	cmp	r2, r3
 80038d8:	d001      	beq.n	80038de <RCC_SetFlashLatencyFromMSIRange+0xa2>
 80038da:	2301      	movs	r3, #1
 80038dc:	e000      	b.n	80038e0 <RCC_SetFlashLatencyFromMSIRange+0xa4>
 80038de:	2300      	movs	r3, #0
 80038e0:	4618      	mov	r0, r3
 80038e2:	3718      	adds	r7, #24
 80038e4:	46bd      	mov	sp, r7
 80038e6:	bd80      	pop	{r7, pc}
 80038e8:	40021000 	.word	0x40021000
 80038ec:	40022000 	.word	0x40022000

080038f0 <RCC_GetSysClockFreqFromPLLSource>:
 80038f0:	b480      	push	{r7}
 80038f2:	b087      	sub	sp, #28
 80038f4:	af00      	add	r7, sp, #0
 80038f6:	4b2d      	ldr	r3, [pc, #180]	; (80039ac <RCC_GetSysClockFreqFromPLLSource+0xbc>)
 80038f8:	68db      	ldr	r3, [r3, #12]
 80038fa:	f003 0303 	and.w	r3, r3, #3
 80038fe:	60fb      	str	r3, [r7, #12]
 8003900:	68fb      	ldr	r3, [r7, #12]
 8003902:	2b03      	cmp	r3, #3
 8003904:	d00b      	beq.n	800391e <RCC_GetSysClockFreqFromPLLSource+0x2e>
 8003906:	68fb      	ldr	r3, [r7, #12]
 8003908:	2b03      	cmp	r3, #3
 800390a:	d825      	bhi.n	8003958 <RCC_GetSysClockFreqFromPLLSource+0x68>
 800390c:	68fb      	ldr	r3, [r7, #12]
 800390e:	2b01      	cmp	r3, #1
 8003910:	d008      	beq.n	8003924 <RCC_GetSysClockFreqFromPLLSource+0x34>
 8003912:	68fb      	ldr	r3, [r7, #12]
 8003914:	2b02      	cmp	r3, #2
 8003916:	d11f      	bne.n	8003958 <RCC_GetSysClockFreqFromPLLSource+0x68>
 8003918:	4b25      	ldr	r3, [pc, #148]	; (80039b0 <RCC_GetSysClockFreqFromPLLSource+0xc0>)
 800391a:	613b      	str	r3, [r7, #16]
 800391c:	e01f      	b.n	800395e <RCC_GetSysClockFreqFromPLLSource+0x6e>
 800391e:	4b25      	ldr	r3, [pc, #148]	; (80039b4 <RCC_GetSysClockFreqFromPLLSource+0xc4>)
 8003920:	613b      	str	r3, [r7, #16]
 8003922:	e01c      	b.n	800395e <RCC_GetSysClockFreqFromPLLSource+0x6e>
 8003924:	4b21      	ldr	r3, [pc, #132]	; (80039ac <RCC_GetSysClockFreqFromPLLSource+0xbc>)
 8003926:	681b      	ldr	r3, [r3, #0]
 8003928:	f003 0308 	and.w	r3, r3, #8
 800392c:	2b00      	cmp	r3, #0
 800392e:	d107      	bne.n	8003940 <RCC_GetSysClockFreqFromPLLSource+0x50>
 8003930:	4b1e      	ldr	r3, [pc, #120]	; (80039ac <RCC_GetSysClockFreqFromPLLSource+0xbc>)
 8003932:	f8d3 3094 	ldr.w	r3, [r3, #148]	; 0x94
 8003936:	0a1b      	lsrs	r3, r3, #8
 8003938:	f003 030f 	and.w	r3, r3, #15
 800393c:	617b      	str	r3, [r7, #20]
 800393e:	e005      	b.n	800394c <RCC_GetSysClockFreqFromPLLSource+0x5c>
 8003940:	4b1a      	ldr	r3, [pc, #104]	; (80039ac <RCC_GetSysClockFreqFromPLLSource+0xbc>)
 8003942:	681b      	ldr	r3, [r3, #0]
 8003944:	091b      	lsrs	r3, r3, #4
 8003946:	f003 030f 	and.w	r3, r3, #15
 800394a:	617b      	str	r3, [r7, #20]
 800394c:	4a1a      	ldr	r2, [pc, #104]	; (80039b8 <RCC_GetSysClockFreqFromPLLSource+0xc8>)
 800394e:	697b      	ldr	r3, [r7, #20]
 8003950:	f852 3023 	ldr.w	r3, [r2, r3, lsl #2]
 8003954:	613b      	str	r3, [r7, #16]
 8003956:	e002      	b.n	800395e <RCC_GetSysClockFreqFromPLLSource+0x6e>
 8003958:	2300      	movs	r3, #0
 800395a:	613b      	str	r3, [r7, #16]
 800395c:	bf00      	nop
 800395e:	4b13      	ldr	r3, [pc, #76]	; (80039ac <RCC_GetSysClockFreqFromPLLSource+0xbc>)
 8003960:	68db      	ldr	r3, [r3, #12]
 8003962:	091b      	lsrs	r3, r3, #4
 8003964:	f003 030f 	and.w	r3, r3, #15
 8003968:	3301      	adds	r3, #1
 800396a:	60bb      	str	r3, [r7, #8]
 800396c:	4b0f      	ldr	r3, [pc, #60]	; (80039ac <RCC_GetSysClockFreqFromPLLSource+0xbc>)
 800396e:	68db      	ldr	r3, [r3, #12]
 8003970:	0a1b      	lsrs	r3, r3, #8
 8003972:	f003 037f 	and.w	r3, r3, #127	; 0x7f
 8003976:	693a      	ldr	r2, [r7, #16]
 8003978:	fb03 f202 	mul.w	r2, r3, r2
 800397c:	68bb      	ldr	r3, [r7, #8]
 800397e:	fbb2 f3f3 	udiv	r3, r2, r3
 8003982:	613b      	str	r3, [r7, #16]
 8003984:	4b09      	ldr	r3, [pc, #36]	; (80039ac <RCC_GetSysClockFreqFromPLLSource+0xbc>)
 8003986:	68db      	ldr	r3, [r3, #12]
 8003988:	0e5b      	lsrs	r3, r3, #25
 800398a:	f003 0303 	and.w	r3, r3, #3
 800398e:	3301      	adds	r3, #1
 8003990:	005b      	lsls	r3, r3, #1
 8003992:	607b      	str	r3, [r7, #4]
 8003994:	693a      	ldr	r2, [r7, #16]
 8003996:	687b      	ldr	r3, [r7, #4]
 8003998:	fbb2 f3f3 	udiv	r3, r2, r3
 800399c:	603b      	str	r3, [r7, #0]
 800399e:	683b      	ldr	r3, [r7, #0]
 80039a0:	4618      	mov	r0, r3
 80039a2:	371c      	adds	r7, #28
 80039a4:	46bd      	mov	sp, r7
 80039a6:	f85d 7b04 	ldr.w	r7, [sp], #4
 80039aa:	4770      	bx	lr
 80039ac:	40021000 	.word	0x40021000
 80039b0:	00f42400 	.word	0x00f42400
 80039b4:	007a1200 	.word	0x007a1200
 80039b8:	08008600 	.word	0x08008600

080039bc <HAL_RCCEx_PeriphCLKConfig>:
 80039bc:	b580      	push	{r7, lr}
 80039be:	b086      	sub	sp, #24
 80039c0:	af00      	add	r7, sp, #0
 80039c2:	6078      	str	r0, [r7, #4]
 80039c4:	2300      	movs	r3, #0
 80039c6:	74fb      	strb	r3, [r7, #19]
 80039c8:	2300      	movs	r3, #0
 80039ca:	74bb      	strb	r3, [r7, #18]
 80039cc:	687b      	ldr	r3, [r7, #4]
 80039ce:	681b      	ldr	r3, [r3, #0]
 80039d0:	f403 6300 	and.w	r3, r3, #2048	; 0x800
 80039d4:	2b00      	cmp	r3, #0
 80039d6:	d040      	beq.n	8003a5a <HAL_RCCEx_PeriphCLKConfig+0x9e>
 80039d8:	687b      	ldr	r3, [r7, #4]
 80039da:	6edb      	ldr	r3, [r3, #108]	; 0x6c
 80039dc:	2b80      	cmp	r3, #128	; 0x80
 80039de:	d02a      	beq.n	8003a36 <HAL_RCCEx_PeriphCLKConfig+0x7a>
 80039e0:	2b80      	cmp	r3, #128	; 0x80
 80039e2:	d825      	bhi.n	8003a30 <HAL_RCCEx_PeriphCLKConfig+0x74>
 80039e4:	2b60      	cmp	r3, #96	; 0x60
 80039e6:	d026      	beq.n	8003a36 <HAL_RCCEx_PeriphCLKConfig+0x7a>
 80039e8:	2b60      	cmp	r3, #96	; 0x60
 80039ea:	d821      	bhi.n	8003a30 <HAL_RCCEx_PeriphCLKConfig+0x74>
 80039ec:	2b40      	cmp	r3, #64	; 0x40
 80039ee:	d006      	beq.n	80039fe <HAL_RCCEx_PeriphCLKConfig+0x42>
 80039f0:	2b40      	cmp	r3, #64	; 0x40
 80039f2:	d81d      	bhi.n	8003a30 <HAL_RCCEx_PeriphCLKConfig+0x74>
 80039f4:	2b00      	cmp	r3, #0
 80039f6:	d009      	beq.n	8003a0c <HAL_RCCEx_PeriphCLKConfig+0x50>
 80039f8:	2b20      	cmp	r3, #32
 80039fa:	d010      	beq.n	8003a1e <HAL_RCCEx_PeriphCLKConfig+0x62>
 80039fc:	e018      	b.n	8003a30 <HAL_RCCEx_PeriphCLKConfig+0x74>
 80039fe:	4b89      	ldr	r3, [pc, #548]	; (8003c24 <HAL_RCCEx_PeriphCLKConfig+0x268>)
 8003a00:	68db      	ldr	r3, [r3, #12]
 8003a02:	4a88      	ldr	r2, [pc, #544]	; (8003c24 <HAL_RCCEx_PeriphCLKConfig+0x268>)
 8003a04:	f443 3380 	orr.w	r3, r3, #65536	; 0x10000
 8003a08:	60d3      	str	r3, [r2, #12]
 8003a0a:	e015      	b.n	8003a38 <HAL_RCCEx_PeriphCLKConfig+0x7c>
 8003a0c:	687b      	ldr	r3, [r7, #4]
 8003a0e:	3304      	adds	r3, #4
 8003a10:	2100      	movs	r1, #0
 8003a12:	4618      	mov	r0, r3
 8003a14:	f000 fb02 	bl	800401c <RCCEx_PLLSAI1_Config>
 8003a18:	4603      	mov	r3, r0
 8003a1a:	74fb      	strb	r3, [r7, #19]
 8003a1c:	e00c      	b.n	8003a38 <HAL_RCCEx_PeriphCLKConfig+0x7c>
 8003a1e:	687b      	ldr	r3, [r7, #4]
 8003a20:	3320      	adds	r3, #32
 8003a22:	2100      	movs	r1, #0
 8003a24:	4618      	mov	r0, r3
 8003a26:	f000 fbed 	bl	8004204 <RCCEx_PLLSAI2_Config>
 8003a2a:	4603      	mov	r3, r0
 8003a2c:	74fb      	strb	r3, [r7, #19]
 8003a2e:	e003      	b.n	8003a38 <HAL_RCCEx_PeriphCLKConfig+0x7c>
 8003a30:	2301      	movs	r3, #1
 8003a32:	74fb      	strb	r3, [r7, #19]
 8003a34:	e000      	b.n	8003a38 <HAL_RCCEx_PeriphCLKConfig+0x7c>
 8003a36:	bf00      	nop
 8003a38:	7cfb      	ldrb	r3, [r7, #19]
 8003a3a:	2b00      	cmp	r3, #0
 8003a3c:	d10b      	bne.n	8003a56 <HAL_RCCEx_PeriphCLKConfig+0x9a>
 8003a3e:	4b79      	ldr	r3, [pc, #484]	; (8003c24 <HAL_RCCEx_PeriphCLKConfig+0x268>)
 8003a40:	f8d3 309c 	ldr.w	r3, [r3, #156]	; 0x9c
 8003a44:	f023 02e0 	bic.w	r2, r3, #224	; 0xe0
 8003a48:	687b      	ldr	r3, [r7, #4]
 8003a4a:	6edb      	ldr	r3, [r3, #108]	; 0x6c
 8003a4c:	4975      	ldr	r1, [pc, #468]	; (8003c24 <HAL_RCCEx_PeriphCLKConfig+0x268>)
 8003a4e:	4313      	orrs	r3, r2
 8003a50:	f8c1 309c 	str.w	r3, [r1, #156]	; 0x9c
 8003a54:	e001      	b.n	8003a5a <HAL_RCCEx_PeriphCLKConfig+0x9e>
 8003a56:	7cfb      	ldrb	r3, [r7, #19]
 8003a58:	74bb      	strb	r3, [r7, #18]
 8003a5a:	687b      	ldr	r3, [r7, #4]
 8003a5c:	681b      	ldr	r3, [r3, #0]
 8003a5e:	f403 5380 	and.w	r3, r3, #4096	; 0x1000
 8003a62:	2b00      	cmp	r3, #0
 8003a64:	d047      	beq.n	8003af6 <HAL_RCCEx_PeriphCLKConfig+0x13a>
 8003a66:	687b      	ldr	r3, [r7, #4]
 8003a68:	6f1b      	ldr	r3, [r3, #112]	; 0x70
 8003a6a:	f5b3 6f80 	cmp.w	r3, #1024	; 0x400
 8003a6e:	d030      	beq.n	8003ad2 <HAL_RCCEx_PeriphCLKConfig+0x116>
 8003a70:	f5b3 6f80 	cmp.w	r3, #1024	; 0x400
 8003a74:	d82a      	bhi.n	8003acc <HAL_RCCEx_PeriphCLKConfig+0x110>
 8003a76:	f5b3 7f40 	cmp.w	r3, #768	; 0x300
 8003a7a:	d02a      	beq.n	8003ad2 <HAL_RCCEx_PeriphCLKConfig+0x116>
 8003a7c:	f5b3 7f40 	cmp.w	r3, #768	; 0x300
 8003a80:	d824      	bhi.n	8003acc <HAL_RCCEx_PeriphCLKConfig+0x110>
 8003a82:	f5b3 7f00 	cmp.w	r3, #512	; 0x200
 8003a86:	d008      	beq.n	8003a9a <HAL_RCCEx_PeriphCLKConfig+0xde>
 8003a88:	f5b3 7f00 	cmp.w	r3, #512	; 0x200
 8003a8c:	d81e      	bhi.n	8003acc <HAL_RCCEx_PeriphCLKConfig+0x110>
 8003a8e:	2b00      	cmp	r3, #0
 8003a90:	d00a      	beq.n	8003aa8 <HAL_RCCEx_PeriphCLKConfig+0xec>
 8003a92:	f5b3 7f80 	cmp.w	r3, #256	; 0x100
 8003a96:	d010      	beq.n	8003aba <HAL_RCCEx_PeriphCLKConfig+0xfe>
 8003a98:	e018      	b.n	8003acc <HAL_RCCEx_PeriphCLKConfig+0x110>
 8003a9a:	4b62      	ldr	r3, [pc, #392]	; (8003c24 <HAL_RCCEx_PeriphCLKConfig+0x268>)
 8003a9c:	68db      	ldr	r3, [r3, #12]
 8003a9e:	4a61      	ldr	r2, [pc, #388]	; (8003c24 <HAL_RCCEx_PeriphCLKConfig+0x268>)
 8003aa0:	f443 3380 	orr.w	r3, r3, #65536	; 0x10000
 8003aa4:	60d3      	str	r3, [r2, #12]
 8003aa6:	e015      	b.n	8003ad4 <HAL_RCCEx_PeriphCLKConfig+0x118>
 8003aa8:	687b      	ldr	r3, [r7, #4]
 8003aaa:	3304      	adds	r3, #4
 8003aac:	2100      	movs	r1, #0
 8003aae:	4618      	mov	r0, r3
 8003ab0:	f000 fab4 	bl	800401c <RCCEx_PLLSAI1_Config>
 8003ab4:	4603      	mov	r3, r0
 8003ab6:	74fb      	strb	r3, [r7, #19]
 8003ab8:	e00c      	b.n	8003ad4 <HAL_RCCEx_PeriphCLKConfig+0x118>
 8003aba:	687b      	ldr	r3, [r7, #4]
 8003abc:	3320      	adds	r3, #32
 8003abe:	2100      	movs	r1, #0
 8003ac0:	4618      	mov	r0, r3
 8003ac2:	f000 fb9f 	bl	8004204 <RCCEx_PLLSAI2_Config>
 8003ac6:	4603      	mov	r3, r0
 8003ac8:	74fb      	strb	r3, [r7, #19]
 8003aca:	e003      	b.n	8003ad4 <HAL_RCCEx_PeriphCLKConfig+0x118>
 8003acc:	2301      	movs	r3, #1
 8003ace:	74fb      	strb	r3, [r7, #19]
 8003ad0:	e000      	b.n	8003ad4 <HAL_RCCEx_PeriphCLKConfig+0x118>
 8003ad2:	bf00      	nop
 8003ad4:	7cfb      	ldrb	r3, [r7, #19]
 8003ad6:	2b00      	cmp	r3, #0
 8003ad8:	d10b      	bne.n	8003af2 <HAL_RCCEx_PeriphCLKConfig+0x136>
 8003ada:	4b52      	ldr	r3, [pc, #328]	; (8003c24 <HAL_RCCEx_PeriphCLKConfig+0x268>)
 8003adc:	f8d3 309c 	ldr.w	r3, [r3, #156]	; 0x9c
 8003ae0:	f423 62e0 	bic.w	r2, r3, #1792	; 0x700
 8003ae4:	687b      	ldr	r3, [r7, #4]
 8003ae6:	6f1b      	ldr	r3, [r3, #112]	; 0x70
 8003ae8:	494e      	ldr	r1, [pc, #312]	; (8003c24 <HAL_RCCEx_PeriphCLKConfig+0x268>)
 8003aea:	4313      	orrs	r3, r2
 8003aec:	f8c1 309c 	str.w	r3, [r1, #156]	; 0x9c
 8003af0:	e001      	b.n	8003af6 <HAL_RCCEx_PeriphCLKConfig+0x13a>
 8003af2:	7cfb      	ldrb	r3, [r7, #19]
 8003af4:	74bb      	strb	r3, [r7, #18]
 8003af6:	687b      	ldr	r3, [r7, #4]
 8003af8:	681b      	ldr	r3, [r3, #0]
 8003afa:	f403 3300 	and.w	r3, r3, #131072	; 0x20000
 8003afe:	2b00      	cmp	r3, #0
 8003b00:	f000 809f 	beq.w	8003c42 <HAL_RCCEx_PeriphCLKConfig+0x286>
 8003b04:	2300      	movs	r3, #0
 8003b06:	747b      	strb	r3, [r7, #17]
 8003b08:	4b46      	ldr	r3, [pc, #280]	; (8003c24 <HAL_RCCEx_PeriphCLKConfig+0x268>)
 8003b0a:	6d9b      	ldr	r3, [r3, #88]	; 0x58
 8003b0c:	f003 5380 	and.w	r3, r3, #268435456	; 0x10000000
 8003b10:	2b00      	cmp	r3, #0
 8003b12:	d101      	bne.n	8003b18 <HAL_RCCEx_PeriphCLKConfig+0x15c>
 8003b14:	2301      	movs	r3, #1
 8003b16:	e000      	b.n	8003b1a <HAL_RCCEx_PeriphCLKConfig+0x15e>
 8003b18:	2300      	movs	r3, #0
 8003b1a:	2b00      	cmp	r3, #0
 8003b1c:	d00d      	beq.n	8003b3a <HAL_RCCEx_PeriphCLKConfig+0x17e>
 8003b1e:	4b41      	ldr	r3, [pc, #260]	; (8003c24 <HAL_RCCEx_PeriphCLKConfig+0x268>)
 8003b20:	6d9b      	ldr	r3, [r3, #88]	; 0x58
 8003b22:	4a40      	ldr	r2, [pc, #256]	; (8003c24 <HAL_RCCEx_PeriphCLKConfig+0x268>)
 8003b24:	f043 5380 	orr.w	r3, r3, #268435456	; 0x10000000
 8003b28:	6593      	str	r3, [r2, #88]	; 0x58
 8003b2a:	4b3e      	ldr	r3, [pc, #248]	; (8003c24 <HAL_RCCEx_PeriphCLKConfig+0x268>)
 8003b2c:	6d9b      	ldr	r3, [r3, #88]	; 0x58
 8003b2e:	f003 5380 	and.w	r3, r3, #268435456	; 0x10000000
 8003b32:	60bb      	str	r3, [r7, #8]
 8003b34:	68bb      	ldr	r3, [r7, #8]
 8003b36:	2301      	movs	r3, #1
 8003b38:	747b      	strb	r3, [r7, #17]
 8003b3a:	4b3b      	ldr	r3, [pc, #236]	; (8003c28 <HAL_RCCEx_PeriphCLKConfig+0x26c>)
 8003b3c:	681b      	ldr	r3, [r3, #0]
 8003b3e:	4a3a      	ldr	r2, [pc, #232]	; (8003c28 <HAL_RCCEx_PeriphCLKConfig+0x26c>)
 8003b40:	f443 7380 	orr.w	r3, r3, #256	; 0x100
 8003b44:	6013      	str	r3, [r2, #0]
 8003b46:	f7fd f8cf 	bl	8000ce8 <HAL_GetTick>
 8003b4a:	60f8      	str	r0, [r7, #12]
 8003b4c:	e009      	b.n	8003b62 <HAL_RCCEx_PeriphCLKConfig+0x1a6>
 8003b4e:	f7fd f8cb 	bl	8000ce8 <HAL_GetTick>
 8003b52:	4602      	mov	r2, r0
 8003b54:	68fb      	ldr	r3, [r7, #12]
 8003b56:	1ad3      	subs	r3, r2, r3
 8003b58:	2b02      	cmp	r3, #2
 8003b5a:	d902      	bls.n	8003b62 <HAL_RCCEx_PeriphCLKConfig+0x1a6>
 8003b5c:	2303      	movs	r3, #3
 8003b5e:	74fb      	strb	r3, [r7, #19]
 8003b60:	e005      	b.n	8003b6e <HAL_RCCEx_PeriphCLKConfig+0x1b2>
 8003b62:	4b31      	ldr	r3, [pc, #196]	; (8003c28 <HAL_RCCEx_PeriphCLKConfig+0x26c>)
 8003b64:	681b      	ldr	r3, [r3, #0]
 8003b66:	f403 7380 	and.w	r3, r3, #256	; 0x100
 8003b6a:	2b00      	cmp	r3, #0
 8003b6c:	d0ef      	beq.n	8003b4e <HAL_RCCEx_PeriphCLKConfig+0x192>
 8003b6e:	7cfb      	ldrb	r3, [r7, #19]
 8003b70:	2b00      	cmp	r3, #0
 8003b72:	d15b      	bne.n	8003c2c <HAL_RCCEx_PeriphCLKConfig+0x270>
 8003b74:	4b2b      	ldr	r3, [pc, #172]	; (8003c24 <HAL_RCCEx_PeriphCLKConfig+0x268>)
 8003b76:	f8d3 3090 	ldr.w	r3, [r3, #144]	; 0x90
 8003b7a:	f403 7340 	and.w	r3, r3, #768	; 0x300
 8003b7e:	617b      	str	r3, [r7, #20]
 8003b80:	697b      	ldr	r3, [r7, #20]
 8003b82:	2b00      	cmp	r3, #0
 8003b84:	d01f      	beq.n	8003bc6 <HAL_RCCEx_PeriphCLKConfig+0x20a>
 8003b86:	687b      	ldr	r3, [r7, #4]
 8003b88:	f8d3 3090 	ldr.w	r3, [r3, #144]	; 0x90
 8003b8c:	697a      	ldr	r2, [r7, #20]
 8003b8e:	429a      	cmp	r2, r3
 8003b90:	d019      	beq.n	8003bc6 <HAL_RCCEx_PeriphCLKConfig+0x20a>
 8003b92:	4b24      	ldr	r3, [pc, #144]	; (8003c24 <HAL_RCCEx_PeriphCLKConfig+0x268>)
 8003b94:	f8d3 3090 	ldr.w	r3, [r3, #144]	; 0x90
 8003b98:	f423 7340 	bic.w	r3, r3, #768	; 0x300
 8003b9c:	617b      	str	r3, [r7, #20]
 8003b9e:	4b21      	ldr	r3, [pc, #132]	; (8003c24 <HAL_RCCEx_PeriphCLKConfig+0x268>)
 8003ba0:	f8d3 3090 	ldr.w	r3, [r3, #144]	; 0x90
 8003ba4:	4a1f      	ldr	r2, [pc, #124]	; (8003c24 <HAL_RCCEx_PeriphCLKConfig+0x268>)
 8003ba6:	f443 3380 	orr.w	r3, r3, #65536	; 0x10000
 8003baa:	f8c2 3090 	str.w	r3, [r2, #144]	; 0x90
 8003bae:	4b1d      	ldr	r3, [pc, #116]	; (8003c24 <HAL_RCCEx_PeriphCLKConfig+0x268>)
 8003bb0:	f8d3 3090 	ldr.w	r3, [r3, #144]	; 0x90
 8003bb4:	4a1b      	ldr	r2, [pc, #108]	; (8003c24 <HAL_RCCEx_PeriphCLKConfig+0x268>)
 8003bb6:	f423 3380 	bic.w	r3, r3, #65536	; 0x10000
 8003bba:	f8c2 3090 	str.w	r3, [r2, #144]	; 0x90
 8003bbe:	4a19      	ldr	r2, [pc, #100]	; (8003c24 <HAL_RCCEx_PeriphCLKConfig+0x268>)
 8003bc0:	697b      	ldr	r3, [r7, #20]
 8003bc2:	f8c2 3090 	str.w	r3, [r2, #144]	; 0x90
 8003bc6:	697b      	ldr	r3, [r7, #20]
 8003bc8:	f003 0301 	and.w	r3, r3, #1
 8003bcc:	2b00      	cmp	r3, #0
 8003bce:	d016      	beq.n	8003bfe <HAL_RCCEx_PeriphCLKConfig+0x242>
 8003bd0:	f7fd f88a 	bl	8000ce8 <HAL_GetTick>
 8003bd4:	60f8      	str	r0, [r7, #12]
 8003bd6:	e00b      	b.n	8003bf0 <HAL_RCCEx_PeriphCLKConfig+0x234>
 8003bd8:	f7fd f886 	bl	8000ce8 <HAL_GetTick>
 8003bdc:	4602      	mov	r2, r0
 8003bde:	68fb      	ldr	r3, [r7, #12]
 8003be0:	1ad3      	subs	r3, r2, r3
 8003be2:	f241 3288 	movw	r2, #5000	; 0x1388
 8003be6:	4293      	cmp	r3, r2
 8003be8:	d902      	bls.n	8003bf0 <HAL_RCCEx_PeriphCLKConfig+0x234>
 8003bea:	2303      	movs	r3, #3
 8003bec:	74fb      	strb	r3, [r7, #19]
 8003bee:	e006      	b.n	8003bfe <HAL_RCCEx_PeriphCLKConfig+0x242>
 8003bf0:	4b0c      	ldr	r3, [pc, #48]	; (8003c24 <HAL_RCCEx_PeriphCLKConfig+0x268>)
 8003bf2:	f8d3 3090 	ldr.w	r3, [r3, #144]	; 0x90
 8003bf6:	f003 0302 	and.w	r3, r3, #2
 8003bfa:	2b00      	cmp	r3, #0
 8003bfc:	d0ec      	beq.n	8003bd8 <HAL_RCCEx_PeriphCLKConfig+0x21c>
 8003bfe:	7cfb      	ldrb	r3, [r7, #19]
 8003c00:	2b00      	cmp	r3, #0
 8003c02:	d10c      	bne.n	8003c1e <HAL_RCCEx_PeriphCLKConfig+0x262>
 8003c04:	4b07      	ldr	r3, [pc, #28]	; (8003c24 <HAL_RCCEx_PeriphCLKConfig+0x268>)
 8003c06:	f8d3 3090 	ldr.w	r3, [r3, #144]	; 0x90
 8003c0a:	f423 7240 	bic.w	r2, r3, #768	; 0x300
 8003c0e:	687b      	ldr	r3, [r7, #4]
 8003c10:	f8d3 3090 	ldr.w	r3, [r3, #144]	; 0x90
 8003c14:	4903      	ldr	r1, [pc, #12]	; (8003c24 <HAL_RCCEx_PeriphCLKConfig+0x268>)
 8003c16:	4313      	orrs	r3, r2
 8003c18:	f8c1 3090 	str.w	r3, [r1, #144]	; 0x90
 8003c1c:	e008      	b.n	8003c30 <HAL_RCCEx_PeriphCLKConfig+0x274>
 8003c1e:	7cfb      	ldrb	r3, [r7, #19]
 8003c20:	74bb      	strb	r3, [r7, #18]
 8003c22:	e005      	b.n	8003c30 <HAL_RCCEx_PeriphCLKConfig+0x274>
 8003c24:	40021000 	.word	0x40021000
 8003c28:	40007000 	.word	0x40007000
 8003c2c:	7cfb      	ldrb	r3, [r7, #19]
 8003c2e:	74bb      	strb	r3, [r7, #18]
 8003c30:	7c7b      	ldrb	r3, [r7, #17]
 8003c32:	2b01      	cmp	r3, #1
 8003c34:	d105      	bne.n	8003c42 <HAL_RCCEx_PeriphCLKConfig+0x286>
 8003c36:	4ba0      	ldr	r3, [pc, #640]	; (8003eb8 <HAL_RCCEx_PeriphCLKConfig+0x4fc>)
 8003c38:	6d9b      	ldr	r3, [r3, #88]	; 0x58
 8003c3a:	4a9f      	ldr	r2, [pc, #636]	; (8003eb8 <HAL_RCCEx_PeriphCLKConfig+0x4fc>)
 8003c3c:	f023 5380 	bic.w	r3, r3, #268435456	; 0x10000000
 8003c40:	6593      	str	r3, [r2, #88]	; 0x58
 8003c42:	687b      	ldr	r3, [r7, #4]
 8003c44:	681b      	ldr	r3, [r3, #0]
 8003c46:	f003 0301 	and.w	r3, r3, #1
 8003c4a:	2b00      	cmp	r3, #0
 8003c4c:	d00a      	beq.n	8003c64 <HAL_RCCEx_PeriphCLKConfig+0x2a8>
 8003c4e:	4b9a      	ldr	r3, [pc, #616]	; (8003eb8 <HAL_RCCEx_PeriphCLKConfig+0x4fc>)
 8003c50:	f8d3 3088 	ldr.w	r3, [r3, #136]	; 0x88
 8003c54:	f023 0203 	bic.w	r2, r3, #3
 8003c58:	687b      	ldr	r3, [r7, #4]
 8003c5a:	6bdb      	ldr	r3, [r3, #60]	; 0x3c
 8003c5c:	4996      	ldr	r1, [pc, #600]	; (8003eb8 <HAL_RCCEx_PeriphCLKConfig+0x4fc>)
 8003c5e:	4313      	orrs	r3, r2
 8003c60:	f8c1 3088 	str.w	r3, [r1, #136]	; 0x88
 8003c64:	687b      	ldr	r3, [r7, #4]
 8003c66:	681b      	ldr	r3, [r3, #0]
 8003c68:	f003 0302 	and.w	r3, r3, #2
 8003c6c:	2b00      	cmp	r3, #0
 8003c6e:	d00a      	beq.n	8003c86 <HAL_RCCEx_PeriphCLKConfig+0x2ca>
 8003c70:	4b91      	ldr	r3, [pc, #580]	; (8003eb8 <HAL_RCCEx_PeriphCLKConfig+0x4fc>)
 8003c72:	f8d3 3088 	ldr.w	r3, [r3, #136]	; 0x88
 8003c76:	f023 020c 	bic.w	r2, r3, #12
 8003c7a:	687b      	ldr	r3, [r7, #4]
 8003c7c:	6c1b      	ldr	r3, [r3, #64]	; 0x40
 8003c7e:	498e      	ldr	r1, [pc, #568]	; (8003eb8 <HAL_RCCEx_PeriphCLKConfig+0x4fc>)
 8003c80:	4313      	orrs	r3, r2
 8003c82:	f8c1 3088 	str.w	r3, [r1, #136]	; 0x88
 8003c86:	687b      	ldr	r3, [r7, #4]
 8003c88:	681b      	ldr	r3, [r3, #0]
 8003c8a:	f003 0304 	and.w	r3, r3, #4
 8003c8e:	2b00      	cmp	r3, #0
 8003c90:	d00a      	beq.n	8003ca8 <HAL_RCCEx_PeriphCLKConfig+0x2ec>
 8003c92:	4b89      	ldr	r3, [pc, #548]	; (8003eb8 <HAL_RCCEx_PeriphCLKConfig+0x4fc>)
 8003c94:	f8d3 3088 	ldr.w	r3, [r3, #136]	; 0x88
 8003c98:	f023 0230 	bic.w	r2, r3, #48	; 0x30
 8003c9c:	687b      	ldr	r3, [r7, #4]
 8003c9e:	6c5b      	ldr	r3, [r3, #68]	; 0x44
 8003ca0:	4985      	ldr	r1, [pc, #532]	; (8003eb8 <HAL_RCCEx_PeriphCLKConfig+0x4fc>)
 8003ca2:	4313      	orrs	r3, r2
 8003ca4:	f8c1 3088 	str.w	r3, [r1, #136]	; 0x88
 8003ca8:	687b      	ldr	r3, [r7, #4]
 8003caa:	681b      	ldr	r3, [r3, #0]
 8003cac:	f003 0308 	and.w	r3, r3, #8
 8003cb0:	2b00      	cmp	r3, #0
 8003cb2:	d00a      	beq.n	8003cca <HAL_RCCEx_PeriphCLKConfig+0x30e>
 8003cb4:	4b80      	ldr	r3, [pc, #512]	; (8003eb8 <HAL_RCCEx_PeriphCLKConfig+0x4fc>)
 8003cb6:	f8d3 3088 	ldr.w	r3, [r3, #136]	; 0x88
 8003cba:	f023 02c0 	bic.w	r2, r3, #192	; 0xc0
 8003cbe:	687b      	ldr	r3, [r7, #4]
 8003cc0:	6c9b      	ldr	r3, [r3, #72]	; 0x48
 8003cc2:	497d      	ldr	r1, [pc, #500]	; (8003eb8 <HAL_RCCEx_PeriphCLKConfig+0x4fc>)
 8003cc4:	4313      	orrs	r3, r2
 8003cc6:	f8c1 3088 	str.w	r3, [r1, #136]	; 0x88
 8003cca:	687b      	ldr	r3, [r7, #4]
 8003ccc:	681b      	ldr	r3, [r3, #0]
 8003cce:	f003 0310 	and.w	r3, r3, #16
 8003cd2:	2b00      	cmp	r3, #0
 8003cd4:	d00a      	beq.n	8003cec <HAL_RCCEx_PeriphCLKConfig+0x330>
 8003cd6:	4b78      	ldr	r3, [pc, #480]	; (8003eb8 <HAL_RCCEx_PeriphCLKConfig+0x4fc>)
 8003cd8:	f8d3 3088 	ldr.w	r3, [r3, #136]	; 0x88
 8003cdc:	f423 7240 	bic.w	r2, r3, #768	; 0x300
 8003ce0:	687b      	ldr	r3, [r7, #4]
 8003ce2:	6cdb      	ldr	r3, [r3, #76]	; 0x4c
 8003ce4:	4974      	ldr	r1, [pc, #464]	; (8003eb8 <HAL_RCCEx_PeriphCLKConfig+0x4fc>)
 8003ce6:	4313      	orrs	r3, r2
 8003ce8:	f8c1 3088 	str.w	r3, [r1, #136]	; 0x88
 8003cec:	687b      	ldr	r3, [r7, #4]
 8003cee:	681b      	ldr	r3, [r3, #0]
 8003cf0:	f003 0320 	and.w	r3, r3, #32
 8003cf4:	2b00      	cmp	r3, #0
 8003cf6:	d00a      	beq.n	8003d0e <HAL_RCCEx_PeriphCLKConfig+0x352>
 8003cf8:	4b6f      	ldr	r3, [pc, #444]	; (8003eb8 <HAL_RCCEx_PeriphCLKConfig+0x4fc>)
 8003cfa:	f8d3 3088 	ldr.w	r3, [r3, #136]	; 0x88
 8003cfe:	f423 6240 	bic.w	r2, r3, #3072	; 0xc00
 8003d02:	687b      	ldr	r3, [r7, #4]
 8003d04:	6d1b      	ldr	r3, [r3, #80]	; 0x50
 8003d06:	496c      	ldr	r1, [pc, #432]	; (8003eb8 <HAL_RCCEx_PeriphCLKConfig+0x4fc>)
 8003d08:	4313      	orrs	r3, r2
 8003d0a:	f8c1 3088 	str.w	r3, [r1, #136]	; 0x88
 8003d0e:	687b      	ldr	r3, [r7, #4]
 8003d10:	681b      	ldr	r3, [r3, #0]
 8003d12:	f403 7300 	and.w	r3, r3, #512	; 0x200
 8003d16:	2b00      	cmp	r3, #0
 8003d18:	d00a      	beq.n	8003d30 <HAL_RCCEx_PeriphCLKConfig+0x374>
 8003d1a:	4b67      	ldr	r3, [pc, #412]	; (8003eb8 <HAL_RCCEx_PeriphCLKConfig+0x4fc>)
 8003d1c:	f8d3 3088 	ldr.w	r3, [r3, #136]	; 0x88
 8003d20:	f423 2240 	bic.w	r2, r3, #786432	; 0xc0000
 8003d24:	687b      	ldr	r3, [r7, #4]
 8003d26:	6e5b      	ldr	r3, [r3, #100]	; 0x64
 8003d28:	4963      	ldr	r1, [pc, #396]	; (8003eb8 <HAL_RCCEx_PeriphCLKConfig+0x4fc>)
 8003d2a:	4313      	orrs	r3, r2
 8003d2c:	f8c1 3088 	str.w	r3, [r1, #136]	; 0x88
 8003d30:	687b      	ldr	r3, [r7, #4]
 8003d32:	681b      	ldr	r3, [r3, #0]
 8003d34:	f403 6380 	and.w	r3, r3, #1024	; 0x400
 8003d38:	2b00      	cmp	r3, #0
 8003d3a:	d00a      	beq.n	8003d52 <HAL_RCCEx_PeriphCLKConfig+0x396>
 8003d3c:	4b5e      	ldr	r3, [pc, #376]	; (8003eb8 <HAL_RCCEx_PeriphCLKConfig+0x4fc>)
 8003d3e:	f8d3 3088 	ldr.w	r3, [r3, #136]	; 0x88
 8003d42:	f423 1240 	bic.w	r2, r3, #3145728	; 0x300000
 8003d46:	687b      	ldr	r3, [r7, #4]
 8003d48:	6e9b      	ldr	r3, [r3, #104]	; 0x68
 8003d4a:	495b      	ldr	r1, [pc, #364]	; (8003eb8 <HAL_RCCEx_PeriphCLKConfig+0x4fc>)
 8003d4c:	4313      	orrs	r3, r2
 8003d4e:	f8c1 3088 	str.w	r3, [r1, #136]	; 0x88
 8003d52:	687b      	ldr	r3, [r7, #4]
 8003d54:	681b      	ldr	r3, [r3, #0]
 8003d56:	f003 0340 	and.w	r3, r3, #64	; 0x40
 8003d5a:	2b00      	cmp	r3, #0
 8003d5c:	d00a      	beq.n	8003d74 <HAL_RCCEx_PeriphCLKConfig+0x3b8>
 8003d5e:	4b56      	ldr	r3, [pc, #344]	; (8003eb8 <HAL_RCCEx_PeriphCLKConfig+0x4fc>)
 8003d60:	f8d3 3088 	ldr.w	r3, [r3, #136]	; 0x88
 8003d64:	f423 5240 	bic.w	r2, r3, #12288	; 0x3000
 8003d68:	687b      	ldr	r3, [r7, #4]
 8003d6a:	6d5b      	ldr	r3, [r3, #84]	; 0x54
 8003d6c:	4952      	ldr	r1, [pc, #328]	; (8003eb8 <HAL_RCCEx_PeriphCLKConfig+0x4fc>)
 8003d6e:	4313      	orrs	r3, r2
 8003d70:	f8c1 3088 	str.w	r3, [r1, #136]	; 0x88
 8003d74:	687b      	ldr	r3, [r7, #4]
 8003d76:	681b      	ldr	r3, [r3, #0]
 8003d78:	f003 0380 	and.w	r3, r3, #128	; 0x80
 8003d7c:	2b00      	cmp	r3, #0
 8003d7e:	d00a      	beq.n	8003d96 <HAL_RCCEx_PeriphCLKConfig+0x3da>
 8003d80:	4b4d      	ldr	r3, [pc, #308]	; (8003eb8 <HAL_RCCEx_PeriphCLKConfig+0x4fc>)
 8003d82:	f8d3 3088 	ldr.w	r3, [r3, #136]	; 0x88
 8003d86:	f423 4240 	bic.w	r2, r3, #49152	; 0xc000
 8003d8a:	687b      	ldr	r3, [r7, #4]
 8003d8c:	6d9b      	ldr	r3, [r3, #88]	; 0x58
 8003d8e:	494a      	ldr	r1, [pc, #296]	; (8003eb8 <HAL_RCCEx_PeriphCLKConfig+0x4fc>)
 8003d90:	4313      	orrs	r3, r2
 8003d92:	f8c1 3088 	str.w	r3, [r1, #136]	; 0x88
 8003d96:	687b      	ldr	r3, [r7, #4]
 8003d98:	681b      	ldr	r3, [r3, #0]
 8003d9a:	f403 7380 	and.w	r3, r3, #256	; 0x100
 8003d9e:	2b00      	cmp	r3, #0
 8003da0:	d00a      	beq.n	8003db8 <HAL_RCCEx_PeriphCLKConfig+0x3fc>
 8003da2:	4b45      	ldr	r3, [pc, #276]	; (8003eb8 <HAL_RCCEx_PeriphCLKConfig+0x4fc>)
 8003da4:	f8d3 3088 	ldr.w	r3, [r3, #136]	; 0x88
 8003da8:	f423 3240 	bic.w	r2, r3, #196608	; 0x30000
 8003dac:	687b      	ldr	r3, [r7, #4]
 8003dae:	6ddb      	ldr	r3, [r3, #92]	; 0x5c
 8003db0:	4941      	ldr	r1, [pc, #260]	; (8003eb8 <HAL_RCCEx_PeriphCLKConfig+0x4fc>)
 8003db2:	4313      	orrs	r3, r2
 8003db4:	f8c1 3088 	str.w	r3, [r1, #136]	; 0x88
 8003db8:	687b      	ldr	r3, [r7, #4]
 8003dba:	681b      	ldr	r3, [r3, #0]
 8003dbc:	f403 1380 	and.w	r3, r3, #1048576	; 0x100000
 8003dc0:	2b00      	cmp	r3, #0
 8003dc2:	d00a      	beq.n	8003dda <HAL_RCCEx_PeriphCLKConfig+0x41e>
 8003dc4:	4b3c      	ldr	r3, [pc, #240]	; (8003eb8 <HAL_RCCEx_PeriphCLKConfig+0x4fc>)
 8003dc6:	f8d3 309c 	ldr.w	r3, [r3, #156]	; 0x9c
 8003dca:	f023 0203 	bic.w	r2, r3, #3
 8003dce:	687b      	ldr	r3, [r7, #4]
 8003dd0:	6e1b      	ldr	r3, [r3, #96]	; 0x60
 8003dd2:	4939      	ldr	r1, [pc, #228]	; (8003eb8 <HAL_RCCEx_PeriphCLKConfig+0x4fc>)
 8003dd4:	4313      	orrs	r3, r2
 8003dd6:	f8c1 309c 	str.w	r3, [r1, #156]	; 0x9c
 8003dda:	687b      	ldr	r3, [r7, #4]
 8003ddc:	681b      	ldr	r3, [r3, #0]
 8003dde:	f403 5300 	and.w	r3, r3, #8192	; 0x2000
 8003de2:	2b00      	cmp	r3, #0
 8003de4:	d028      	beq.n	8003e38 <HAL_RCCEx_PeriphCLKConfig+0x47c>
 8003de6:	4b34      	ldr	r3, [pc, #208]	; (8003eb8 <HAL_RCCEx_PeriphCLKConfig+0x4fc>)
 8003de8:	f8d3 3088 	ldr.w	r3, [r3, #136]	; 0x88
 8003dec:	f023 6240 	bic.w	r2, r3, #201326592	; 0xc000000
 8003df0:	687b      	ldr	r3, [r7, #4]
 8003df2:	6f5b      	ldr	r3, [r3, #116]	; 0x74
 8003df4:	4930      	ldr	r1, [pc, #192]	; (8003eb8 <HAL_RCCEx_PeriphCLKConfig+0x4fc>)
 8003df6:	4313      	orrs	r3, r2
 8003df8:	f8c1 3088 	str.w	r3, [r1, #136]	; 0x88
 8003dfc:	687b      	ldr	r3, [r7, #4]
 8003dfe:	6f5b      	ldr	r3, [r3, #116]	; 0x74
 8003e00:	f1b3 6f00 	cmp.w	r3, #134217728	; 0x8000000
 8003e04:	d106      	bne.n	8003e14 <HAL_RCCEx_PeriphCLKConfig+0x458>
 8003e06:	4b2c      	ldr	r3, [pc, #176]	; (8003eb8 <HAL_RCCEx_PeriphCLKConfig+0x4fc>)
 8003e08:	68db      	ldr	r3, [r3, #12]
 8003e0a:	4a2b      	ldr	r2, [pc, #172]	; (8003eb8 <HAL_RCCEx_PeriphCLKConfig+0x4fc>)
 8003e0c:	f443 1380 	orr.w	r3, r3, #1048576	; 0x100000
 8003e10:	60d3      	str	r3, [r2, #12]
 8003e12:	e011      	b.n	8003e38 <HAL_RCCEx_PeriphCLKConfig+0x47c>
 8003e14:	687b      	ldr	r3, [r7, #4]
 8003e16:	6f5b      	ldr	r3, [r3, #116]	; 0x74
 8003e18:	f1b3 6f80 	cmp.w	r3, #67108864	; 0x4000000
 8003e1c:	d10c      	bne.n	8003e38 <HAL_RCCEx_PeriphCLKConfig+0x47c>
 8003e1e:	687b      	ldr	r3, [r7, #4]
 8003e20:	3304      	adds	r3, #4
 8003e22:	2101      	movs	r1, #1
 8003e24:	4618      	mov	r0, r3
 8003e26:	f000 f8f9 	bl	800401c <RCCEx_PLLSAI1_Config>
 8003e2a:	4603      	mov	r3, r0
 8003e2c:	74fb      	strb	r3, [r7, #19]
 8003e2e:	7cfb      	ldrb	r3, [r7, #19]
 8003e30:	2b00      	cmp	r3, #0
 8003e32:	d001      	beq.n	8003e38 <HAL_RCCEx_PeriphCLKConfig+0x47c>
 8003e34:	7cfb      	ldrb	r3, [r7, #19]
 8003e36:	74bb      	strb	r3, [r7, #18]
 8003e38:	687b      	ldr	r3, [r7, #4]
 8003e3a:	681b      	ldr	r3, [r3, #0]
 8003e3c:	f403 2300 	and.w	r3, r3, #524288	; 0x80000
 8003e40:	2b00      	cmp	r3, #0
 8003e42:	d04d      	beq.n	8003ee0 <HAL_RCCEx_PeriphCLKConfig+0x524>
 8003e44:	687b      	ldr	r3, [r7, #4]
 8003e46:	6f9b      	ldr	r3, [r3, #120]	; 0x78
 8003e48:	f5b3 4f80 	cmp.w	r3, #16384	; 0x4000
 8003e4c:	d108      	bne.n	8003e60 <HAL_RCCEx_PeriphCLKConfig+0x4a4>
 8003e4e:	4b1a      	ldr	r3, [pc, #104]	; (8003eb8 <HAL_RCCEx_PeriphCLKConfig+0x4fc>)
 8003e50:	f8d3 309c 	ldr.w	r3, [r3, #156]	; 0x9c
 8003e54:	4a18      	ldr	r2, [pc, #96]	; (8003eb8 <HAL_RCCEx_PeriphCLKConfig+0x4fc>)
 8003e56:	f443 4380 	orr.w	r3, r3, #16384	; 0x4000
 8003e5a:	f8c2 309c 	str.w	r3, [r2, #156]	; 0x9c
 8003e5e:	e012      	b.n	8003e86 <HAL_RCCEx_PeriphCLKConfig+0x4ca>
 8003e60:	4b15      	ldr	r3, [pc, #84]	; (8003eb8 <HAL_RCCEx_PeriphCLKConfig+0x4fc>)
 8003e62:	f8d3 309c 	ldr.w	r3, [r3, #156]	; 0x9c
 8003e66:	4a14      	ldr	r2, [pc, #80]	; (8003eb8 <HAL_RCCEx_PeriphCLKConfig+0x4fc>)
 8003e68:	f423 4380 	bic.w	r3, r3, #16384	; 0x4000
 8003e6c:	f8c2 309c 	str.w	r3, [r2, #156]	; 0x9c
 8003e70:	4b11      	ldr	r3, [pc, #68]	; (8003eb8 <HAL_RCCEx_PeriphCLKConfig+0x4fc>)
 8003e72:	f8d3 3088 	ldr.w	r3, [r3, #136]	; 0x88
 8003e76:	f023 6240 	bic.w	r2, r3, #201326592	; 0xc000000
 8003e7a:	687b      	ldr	r3, [r7, #4]
 8003e7c:	6f9b      	ldr	r3, [r3, #120]	; 0x78
 8003e7e:	490e      	ldr	r1, [pc, #56]	; (8003eb8 <HAL_RCCEx_PeriphCLKConfig+0x4fc>)
 8003e80:	4313      	orrs	r3, r2
 8003e82:	f8c1 3088 	str.w	r3, [r1, #136]	; 0x88
 8003e86:	687b      	ldr	r3, [r7, #4]
 8003e88:	6f9b      	ldr	r3, [r3, #120]	; 0x78
 8003e8a:	f1b3 6f00 	cmp.w	r3, #134217728	; 0x8000000
 8003e8e:	d106      	bne.n	8003e9e <HAL_RCCEx_PeriphCLKConfig+0x4e2>
 8003e90:	4b09      	ldr	r3, [pc, #36]	; (8003eb8 <HAL_RCCEx_PeriphCLKConfig+0x4fc>)
 8003e92:	68db      	ldr	r3, [r3, #12]
 8003e94:	4a08      	ldr	r2, [pc, #32]	; (8003eb8 <HAL_RCCEx_PeriphCLKConfig+0x4fc>)
 8003e96:	f443 1380 	orr.w	r3, r3, #1048576	; 0x100000
 8003e9a:	60d3      	str	r3, [r2, #12]
 8003e9c:	e020      	b.n	8003ee0 <HAL_RCCEx_PeriphCLKConfig+0x524>
 8003e9e:	687b      	ldr	r3, [r7, #4]
 8003ea0:	6f9b      	ldr	r3, [r3, #120]	; 0x78
 8003ea2:	f5b3 4f80 	cmp.w	r3, #16384	; 0x4000
 8003ea6:	d109      	bne.n	8003ebc <HAL_RCCEx_PeriphCLKConfig+0x500>
 8003ea8:	4b03      	ldr	r3, [pc, #12]	; (8003eb8 <HAL_RCCEx_PeriphCLKConfig+0x4fc>)
 8003eaa:	68db      	ldr	r3, [r3, #12]
 8003eac:	4a02      	ldr	r2, [pc, #8]	; (8003eb8 <HAL_RCCEx_PeriphCLKConfig+0x4fc>)
 8003eae:	f443 3380 	orr.w	r3, r3, #65536	; 0x10000
 8003eb2:	60d3      	str	r3, [r2, #12]
 8003eb4:	e014      	b.n	8003ee0 <HAL_RCCEx_PeriphCLKConfig+0x524>
 8003eb6:	bf00      	nop
 8003eb8:	40021000 	.word	0x40021000
 8003ebc:	687b      	ldr	r3, [r7, #4]
 8003ebe:	6f9b      	ldr	r3, [r3, #120]	; 0x78
 8003ec0:	f1b3 6f80 	cmp.w	r3, #67108864	; 0x4000000
 8003ec4:	d10c      	bne.n	8003ee0 <HAL_RCCEx_PeriphCLKConfig+0x524>
 8003ec6:	687b      	ldr	r3, [r7, #4]
 8003ec8:	3304      	adds	r3, #4
 8003eca:	2101      	movs	r1, #1
 8003ecc:	4618      	mov	r0, r3
 8003ece:	f000 f8a5 	bl	800401c <RCCEx_PLLSAI1_Config>
 8003ed2:	4603      	mov	r3, r0
 8003ed4:	74fb      	strb	r3, [r7, #19]
 8003ed6:	7cfb      	ldrb	r3, [r7, #19]
 8003ed8:	2b00      	cmp	r3, #0
 8003eda:	d001      	beq.n	8003ee0 <HAL_RCCEx_PeriphCLKConfig+0x524>
 8003edc:	7cfb      	ldrb	r3, [r7, #19]
 8003ede:	74bb      	strb	r3, [r7, #18]
 8003ee0:	687b      	ldr	r3, [r7, #4]
 8003ee2:	681b      	ldr	r3, [r3, #0]
 8003ee4:	f403 2380 	and.w	r3, r3, #262144	; 0x40000
 8003ee8:	2b00      	cmp	r3, #0
 8003eea:	d028      	beq.n	8003f3e <HAL_RCCEx_PeriphCLKConfig+0x582>
 8003eec:	4b4a      	ldr	r3, [pc, #296]	; (8004018 <HAL_RCCEx_PeriphCLKConfig+0x65c>)
 8003eee:	f8d3 3088 	ldr.w	r3, [r3, #136]	; 0x88
 8003ef2:	f023 6240 	bic.w	r2, r3, #201326592	; 0xc000000
 8003ef6:	687b      	ldr	r3, [r7, #4]
 8003ef8:	6fdb      	ldr	r3, [r3, #124]	; 0x7c
 8003efa:	4947      	ldr	r1, [pc, #284]	; (8004018 <HAL_RCCEx_PeriphCLKConfig+0x65c>)
 8003efc:	4313      	orrs	r3, r2
 8003efe:	f8c1 3088 	str.w	r3, [r1, #136]	; 0x88
 8003f02:	687b      	ldr	r3, [r7, #4]
 8003f04:	6fdb      	ldr	r3, [r3, #124]	; 0x7c
 8003f06:	f1b3 6f00 	cmp.w	r3, #134217728	; 0x8000000
 8003f0a:	d106      	bne.n	8003f1a <HAL_RCCEx_PeriphCLKConfig+0x55e>
 8003f0c:	4b42      	ldr	r3, [pc, #264]	; (8004018 <HAL_RCCEx_PeriphCLKConfig+0x65c>)
 8003f0e:	68db      	ldr	r3, [r3, #12]
 8003f10:	4a41      	ldr	r2, [pc, #260]	; (8004018 <HAL_RCCEx_PeriphCLKConfig+0x65c>)
 8003f12:	f443 1380 	orr.w	r3, r3, #1048576	; 0x100000
 8003f16:	60d3      	str	r3, [r2, #12]
 8003f18:	e011      	b.n	8003f3e <HAL_RCCEx_PeriphCLKConfig+0x582>
 8003f1a:	687b      	ldr	r3, [r7, #4]
 8003f1c:	6fdb      	ldr	r3, [r3, #124]	; 0x7c
 8003f1e:	f1b3 6f80 	cmp.w	r3, #67108864	; 0x4000000
 8003f22:	d10c      	bne.n	8003f3e <HAL_RCCEx_PeriphCLKConfig+0x582>
 8003f24:	687b      	ldr	r3, [r7, #4]
 8003f26:	3304      	adds	r3, #4
 8003f28:	2101      	movs	r1, #1
 8003f2a:	4618      	mov	r0, r3
 8003f2c:	f000 f876 	bl	800401c <RCCEx_PLLSAI1_Config>
 8003f30:	4603      	mov	r3, r0
 8003f32:	74fb      	strb	r3, [r7, #19]
 8003f34:	7cfb      	ldrb	r3, [r7, #19]
 8003f36:	2b00      	cmp	r3, #0
 8003f38:	d001      	beq.n	8003f3e <HAL_RCCEx_PeriphCLKConfig+0x582>
 8003f3a:	7cfb      	ldrb	r3, [r7, #19]
 8003f3c:	74bb      	strb	r3, [r7, #18]
 8003f3e:	687b      	ldr	r3, [r7, #4]
 8003f40:	681b      	ldr	r3, [r3, #0]
 8003f42:	f403 4380 	and.w	r3, r3, #16384	; 0x4000
 8003f46:	2b00      	cmp	r3, #0
 8003f48:	d01e      	beq.n	8003f88 <HAL_RCCEx_PeriphCLKConfig+0x5cc>
 8003f4a:	4b33      	ldr	r3, [pc, #204]	; (8004018 <HAL_RCCEx_PeriphCLKConfig+0x65c>)
 8003f4c:	f8d3 3088 	ldr.w	r3, [r3, #136]	; 0x88
 8003f50:	f023 5240 	bic.w	r2, r3, #805306368	; 0x30000000
 8003f54:	687b      	ldr	r3, [r7, #4]
 8003f56:	f8d3 3080 	ldr.w	r3, [r3, #128]	; 0x80
 8003f5a:	492f      	ldr	r1, [pc, #188]	; (8004018 <HAL_RCCEx_PeriphCLKConfig+0x65c>)
 8003f5c:	4313      	orrs	r3, r2
 8003f5e:	f8c1 3088 	str.w	r3, [r1, #136]	; 0x88
 8003f62:	687b      	ldr	r3, [r7, #4]
 8003f64:	f8d3 3080 	ldr.w	r3, [r3, #128]	; 0x80
 8003f68:	f1b3 5f80 	cmp.w	r3, #268435456	; 0x10000000
 8003f6c:	d10c      	bne.n	8003f88 <HAL_RCCEx_PeriphCLKConfig+0x5cc>
 8003f6e:	687b      	ldr	r3, [r7, #4]
 8003f70:	3304      	adds	r3, #4
 8003f72:	2102      	movs	r1, #2
 8003f74:	4618      	mov	r0, r3
 8003f76:	f000 f851 	bl	800401c <RCCEx_PLLSAI1_Config>
 8003f7a:	4603      	mov	r3, r0
 8003f7c:	74fb      	strb	r3, [r7, #19]
 8003f7e:	7cfb      	ldrb	r3, [r7, #19]
 8003f80:	2b00      	cmp	r3, #0
 8003f82:	d001      	beq.n	8003f88 <HAL_RCCEx_PeriphCLKConfig+0x5cc>
 8003f84:	7cfb      	ldrb	r3, [r7, #19]
 8003f86:	74bb      	strb	r3, [r7, #18]
 8003f88:	687b      	ldr	r3, [r7, #4]
 8003f8a:	681b      	ldr	r3, [r3, #0]
 8003f8c:	f403 3380 	and.w	r3, r3, #65536	; 0x10000
 8003f90:	2b00      	cmp	r3, #0
 8003f92:	d00b      	beq.n	8003fac <HAL_RCCEx_PeriphCLKConfig+0x5f0>
 8003f94:	4b20      	ldr	r3, [pc, #128]	; (8004018 <HAL_RCCEx_PeriphCLKConfig+0x65c>)
 8003f96:	f8d3 309c 	ldr.w	r3, [r3, #156]	; 0x9c
 8003f9a:	f023 0204 	bic.w	r2, r3, #4
 8003f9e:	687b      	ldr	r3, [r7, #4]
 8003fa0:	f8d3 3084 	ldr.w	r3, [r3, #132]	; 0x84
 8003fa4:	491c      	ldr	r1, [pc, #112]	; (8004018 <HAL_RCCEx_PeriphCLKConfig+0x65c>)
 8003fa6:	4313      	orrs	r3, r2
 8003fa8:	f8c1 309c 	str.w	r3, [r1, #156]	; 0x9c
 8003fac:	687b      	ldr	r3, [r7, #4]
 8003fae:	681b      	ldr	r3, [r3, #0]
 8003fb0:	f403 1300 	and.w	r3, r3, #2097152	; 0x200000
 8003fb4:	2b00      	cmp	r3, #0
 8003fb6:	d00b      	beq.n	8003fd0 <HAL_RCCEx_PeriphCLKConfig+0x614>
 8003fb8:	4b17      	ldr	r3, [pc, #92]	; (8004018 <HAL_RCCEx_PeriphCLKConfig+0x65c>)
 8003fba:	f8d3 309c 	ldr.w	r3, [r3, #156]	; 0x9c
 8003fbe:	f023 0218 	bic.w	r2, r3, #24
 8003fc2:	687b      	ldr	r3, [r7, #4]
 8003fc4:	f8d3 3088 	ldr.w	r3, [r3, #136]	; 0x88
 8003fc8:	4913      	ldr	r1, [pc, #76]	; (8004018 <HAL_RCCEx_PeriphCLKConfig+0x65c>)
 8003fca:	4313      	orrs	r3, r2
 8003fcc:	f8c1 309c 	str.w	r3, [r1, #156]	; 0x9c
 8003fd0:	687b      	ldr	r3, [r7, #4]
 8003fd2:	681b      	ldr	r3, [r3, #0]
 8003fd4:	f003 7380 	and.w	r3, r3, #16777216	; 0x1000000
 8003fd8:	2b00      	cmp	r3, #0
 8003fda:	d017      	beq.n	800400c <HAL_RCCEx_PeriphCLKConfig+0x650>
 8003fdc:	4b0e      	ldr	r3, [pc, #56]	; (8004018 <HAL_RCCEx_PeriphCLKConfig+0x65c>)
 8003fde:	f8d3 309c 	ldr.w	r3, [r3, #156]	; 0x9c
 8003fe2:	f423 1240 	bic.w	r2, r3, #3145728	; 0x300000
 8003fe6:	687b      	ldr	r3, [r7, #4]
 8003fe8:	f8d3 308c 	ldr.w	r3, [r3, #140]	; 0x8c
 8003fec:	490a      	ldr	r1, [pc, #40]	; (8004018 <HAL_RCCEx_PeriphCLKConfig+0x65c>)
 8003fee:	4313      	orrs	r3, r2
 8003ff0:	f8c1 309c 	str.w	r3, [r1, #156]	; 0x9c
 8003ff4:	687b      	ldr	r3, [r7, #4]
 8003ff6:	f8d3 308c 	ldr.w	r3, [r3, #140]	; 0x8c
 8003ffa:	f5b3 1f00 	cmp.w	r3, #2097152	; 0x200000
 8003ffe:	d105      	bne.n	800400c <HAL_RCCEx_PeriphCLKConfig+0x650>
 8004000:	4b05      	ldr	r3, [pc, #20]	; (8004018 <HAL_RCCEx_PeriphCLKConfig+0x65c>)
 8004002:	68db      	ldr	r3, [r3, #12]
 8004004:	4a04      	ldr	r2, [pc, #16]	; (8004018 <HAL_RCCEx_PeriphCLKConfig+0x65c>)
 8004006:	f443 1380 	orr.w	r3, r3, #1048576	; 0x100000
 800400a:	60d3      	str	r3, [r2, #12]
 800400c:	7cbb      	ldrb	r3, [r7, #18]
 800400e:	4618      	mov	r0, r3
 8004010:	3718      	adds	r7, #24
 8004012:	46bd      	mov	sp, r7
 8004014:	bd80      	pop	{r7, pc}
 8004016:	bf00      	nop
 8004018:	40021000 	.word	0x40021000

0800401c <RCCEx_PLLSAI1_Config>:
 800401c:	b580      	push	{r7, lr}
 800401e:	b084      	sub	sp, #16
 8004020:	af00      	add	r7, sp, #0
 8004022:	6078      	str	r0, [r7, #4]
 8004024:	6039      	str	r1, [r7, #0]
 8004026:	2300      	movs	r3, #0
 8004028:	73fb      	strb	r3, [r7, #15]
 800402a:	4b72      	ldr	r3, [pc, #456]	; (80041f4 <RCCEx_PLLSAI1_Config+0x1d8>)
 800402c:	68db      	ldr	r3, [r3, #12]
 800402e:	f003 0303 	and.w	r3, r3, #3
 8004032:	2b00      	cmp	r3, #0
 8004034:	d00e      	beq.n	8004054 <RCCEx_PLLSAI1_Config+0x38>
 8004036:	4b6f      	ldr	r3, [pc, #444]	; (80041f4 <RCCEx_PLLSAI1_Config+0x1d8>)
 8004038:	68db      	ldr	r3, [r3, #12]
 800403a:	f003 0203 	and.w	r2, r3, #3
 800403e:	687b      	ldr	r3, [r7, #4]
 8004040:	681b      	ldr	r3, [r3, #0]
 8004042:	429a      	cmp	r2, r3
 8004044:	d103      	bne.n	800404e <RCCEx_PLLSAI1_Config+0x32>
 8004046:	687b      	ldr	r3, [r7, #4]
 8004048:	681b      	ldr	r3, [r3, #0]
 800404a:	2b00      	cmp	r3, #0
 800404c:	d142      	bne.n	80040d4 <RCCEx_PLLSAI1_Config+0xb8>
 800404e:	2301      	movs	r3, #1
 8004050:	73fb      	strb	r3, [r7, #15]
 8004052:	e03f      	b.n	80040d4 <RCCEx_PLLSAI1_Config+0xb8>
 8004054:	687b      	ldr	r3, [r7, #4]
 8004056:	681b      	ldr	r3, [r3, #0]
 8004058:	2b03      	cmp	r3, #3
 800405a:	d018      	beq.n	800408e <RCCEx_PLLSAI1_Config+0x72>
 800405c:	2b03      	cmp	r3, #3
 800405e:	d825      	bhi.n	80040ac <RCCEx_PLLSAI1_Config+0x90>
 8004060:	2b01      	cmp	r3, #1
 8004062:	d002      	beq.n	800406a <RCCEx_PLLSAI1_Config+0x4e>
 8004064:	2b02      	cmp	r3, #2
 8004066:	d009      	beq.n	800407c <RCCEx_PLLSAI1_Config+0x60>
 8004068:	e020      	b.n	80040ac <RCCEx_PLLSAI1_Config+0x90>
 800406a:	4b62      	ldr	r3, [pc, #392]	; (80041f4 <RCCEx_PLLSAI1_Config+0x1d8>)
 800406c:	681b      	ldr	r3, [r3, #0]
 800406e:	f003 0302 	and.w	r3, r3, #2
 8004072:	2b00      	cmp	r3, #0
 8004074:	d11d      	bne.n	80040b2 <RCCEx_PLLSAI1_Config+0x96>
 8004076:	2301      	movs	r3, #1
 8004078:	73fb      	strb	r3, [r7, #15]
 800407a:	e01a      	b.n	80040b2 <RCCEx_PLLSAI1_Config+0x96>
 800407c:	4b5d      	ldr	r3, [pc, #372]	; (80041f4 <RCCEx_PLLSAI1_Config+0x1d8>)
 800407e:	681b      	ldr	r3, [r3, #0]
 8004080:	f403 6380 	and.w	r3, r3, #1024	; 0x400
 8004084:	2b00      	cmp	r3, #0
 8004086:	d116      	bne.n	80040b6 <RCCEx_PLLSAI1_Config+0x9a>
 8004088:	2301      	movs	r3, #1
 800408a:	73fb      	strb	r3, [r7, #15]
 800408c:	e013      	b.n	80040b6 <RCCEx_PLLSAI1_Config+0x9a>
 800408e:	4b59      	ldr	r3, [pc, #356]	; (80041f4 <RCCEx_PLLSAI1_Config+0x1d8>)
 8004090:	681b      	ldr	r3, [r3, #0]
 8004092:	f403 3300 	and.w	r3, r3, #131072	; 0x20000
 8004096:	2b00      	cmp	r3, #0
 8004098:	d10f      	bne.n	80040ba <RCCEx_PLLSAI1_Config+0x9e>
 800409a:	4b56      	ldr	r3, [pc, #344]	; (80041f4 <RCCEx_PLLSAI1_Config+0x1d8>)
 800409c:	681b      	ldr	r3, [r3, #0]
 800409e:	f403 2380 	and.w	r3, r3, #262144	; 0x40000
 80040a2:	2b00      	cmp	r3, #0
 80040a4:	d109      	bne.n	80040ba <RCCEx_PLLSAI1_Config+0x9e>
 80040a6:	2301      	movs	r3, #1
 80040a8:	73fb      	strb	r3, [r7, #15]
 80040aa:	e006      	b.n	80040ba <RCCEx_PLLSAI1_Config+0x9e>
 80040ac:	2301      	movs	r3, #1
 80040ae:	73fb      	strb	r3, [r7, #15]
 80040b0:	e004      	b.n	80040bc <RCCEx_PLLSAI1_Config+0xa0>
 80040b2:	bf00      	nop
 80040b4:	e002      	b.n	80040bc <RCCEx_PLLSAI1_Config+0xa0>
 80040b6:	bf00      	nop
 80040b8:	e000      	b.n	80040bc <RCCEx_PLLSAI1_Config+0xa0>
 80040ba:	bf00      	nop
 80040bc:	7bfb      	ldrb	r3, [r7, #15]
 80040be:	2b00      	cmp	r3, #0
 80040c0:	d108      	bne.n	80040d4 <RCCEx_PLLSAI1_Config+0xb8>
 80040c2:	4b4c      	ldr	r3, [pc, #304]	; (80041f4 <RCCEx_PLLSAI1_Config+0x1d8>)
 80040c4:	68db      	ldr	r3, [r3, #12]
 80040c6:	f023 0203 	bic.w	r2, r3, #3
 80040ca:	687b      	ldr	r3, [r7, #4]
 80040cc:	681b      	ldr	r3, [r3, #0]
 80040ce:	4949      	ldr	r1, [pc, #292]	; (80041f4 <RCCEx_PLLSAI1_Config+0x1d8>)
 80040d0:	4313      	orrs	r3, r2
 80040d2:	60cb      	str	r3, [r1, #12]
 80040d4:	7bfb      	ldrb	r3, [r7, #15]
 80040d6:	2b00      	cmp	r3, #0
 80040d8:	f040 8086 	bne.w	80041e8 <RCCEx_PLLSAI1_Config+0x1cc>
 80040dc:	4b45      	ldr	r3, [pc, #276]	; (80041f4 <RCCEx_PLLSAI1_Config+0x1d8>)
 80040de:	681b      	ldr	r3, [r3, #0]
 80040e0:	4a44      	ldr	r2, [pc, #272]	; (80041f4 <RCCEx_PLLSAI1_Config+0x1d8>)
 80040e2:	f023 6380 	bic.w	r3, r3, #67108864	; 0x4000000
 80040e6:	6013      	str	r3, [r2, #0]
 80040e8:	f7fc fdfe 	bl	8000ce8 <HAL_GetTick>
 80040ec:	60b8      	str	r0, [r7, #8]
 80040ee:	e009      	b.n	8004104 <RCCEx_PLLSAI1_Config+0xe8>
 80040f0:	f7fc fdfa 	bl	8000ce8 <HAL_GetTick>
 80040f4:	4602      	mov	r2, r0
 80040f6:	68bb      	ldr	r3, [r7, #8]
 80040f8:	1ad3      	subs	r3, r2, r3
 80040fa:	2b02      	cmp	r3, #2
 80040fc:	d902      	bls.n	8004104 <RCCEx_PLLSAI1_Config+0xe8>
 80040fe:	2303      	movs	r3, #3
 8004100:	73fb      	strb	r3, [r7, #15]
 8004102:	e005      	b.n	8004110 <RCCEx_PLLSAI1_Config+0xf4>
 8004104:	4b3b      	ldr	r3, [pc, #236]	; (80041f4 <RCCEx_PLLSAI1_Config+0x1d8>)
 8004106:	681b      	ldr	r3, [r3, #0]
 8004108:	f003 6300 	and.w	r3, r3, #134217728	; 0x8000000
 800410c:	2b00      	cmp	r3, #0
 800410e:	d1ef      	bne.n	80040f0 <RCCEx_PLLSAI1_Config+0xd4>
 8004110:	7bfb      	ldrb	r3, [r7, #15]
 8004112:	2b00      	cmp	r3, #0
 8004114:	d168      	bne.n	80041e8 <RCCEx_PLLSAI1_Config+0x1cc>
 8004116:	683b      	ldr	r3, [r7, #0]
 8004118:	2b00      	cmp	r3, #0
 800411a:	d113      	bne.n	8004144 <RCCEx_PLLSAI1_Config+0x128>
 800411c:	4b35      	ldr	r3, [pc, #212]	; (80041f4 <RCCEx_PLLSAI1_Config+0x1d8>)
 800411e:	691a      	ldr	r2, [r3, #16]
 8004120:	4b35      	ldr	r3, [pc, #212]	; (80041f8 <RCCEx_PLLSAI1_Config+0x1dc>)
 8004122:	4013      	ands	r3, r2
 8004124:	687a      	ldr	r2, [r7, #4]
 8004126:	6892      	ldr	r2, [r2, #8]
 8004128:	0211      	lsls	r1, r2, #8
 800412a:	687a      	ldr	r2, [r7, #4]
 800412c:	68d2      	ldr	r2, [r2, #12]
 800412e:	06d2      	lsls	r2, r2, #27
 8004130:	4311      	orrs	r1, r2
 8004132:	687a      	ldr	r2, [r7, #4]
 8004134:	6852      	ldr	r2, [r2, #4]
 8004136:	3a01      	subs	r2, #1
 8004138:	0112      	lsls	r2, r2, #4
 800413a:	430a      	orrs	r2, r1
 800413c:	492d      	ldr	r1, [pc, #180]	; (80041f4 <RCCEx_PLLSAI1_Config+0x1d8>)
 800413e:	4313      	orrs	r3, r2
 8004140:	610b      	str	r3, [r1, #16]
 8004142:	e02d      	b.n	80041a0 <RCCEx_PLLSAI1_Config+0x184>
 8004144:	683b      	ldr	r3, [r7, #0]
 8004146:	2b01      	cmp	r3, #1
 8004148:	d115      	bne.n	8004176 <RCCEx_PLLSAI1_Config+0x15a>
 800414a:	4b2a      	ldr	r3, [pc, #168]	; (80041f4 <RCCEx_PLLSAI1_Config+0x1d8>)
 800414c:	691a      	ldr	r2, [r3, #16]
 800414e:	4b2b      	ldr	r3, [pc, #172]	; (80041fc <RCCEx_PLLSAI1_Config+0x1e0>)
 8004150:	4013      	ands	r3, r2
 8004152:	687a      	ldr	r2, [r7, #4]
 8004154:	6892      	ldr	r2, [r2, #8]
 8004156:	0211      	lsls	r1, r2, #8
 8004158:	687a      	ldr	r2, [r7, #4]
 800415a:	6912      	ldr	r2, [r2, #16]
 800415c:	0852      	lsrs	r2, r2, #1
 800415e:	3a01      	subs	r2, #1
 8004160:	0552      	lsls	r2, r2, #21
 8004162:	4311      	orrs	r1, r2
 8004164:	687a      	ldr	r2, [r7, #4]
 8004166:	6852      	ldr	r2, [r2, #4]
 8004168:	3a01      	subs	r2, #1
 800416a:	0112      	lsls	r2, r2, #4
 800416c:	430a      	orrs	r2, r1
 800416e:	4921      	ldr	r1, [pc, #132]	; (80041f4 <RCCEx_PLLSAI1_Config+0x1d8>)
 8004170:	4313      	orrs	r3, r2
 8004172:	610b      	str	r3, [r1, #16]
 8004174:	e014      	b.n	80041a0 <RCCEx_PLLSAI1_Config+0x184>
 8004176:	4b1f      	ldr	r3, [pc, #124]	; (80041f4 <RCCEx_PLLSAI1_Config+0x1d8>)
 8004178:	691a      	ldr	r2, [r3, #16]
 800417a:	4b21      	ldr	r3, [pc, #132]	; (8004200 <RCCEx_PLLSAI1_Config+0x1e4>)
 800417c:	4013      	ands	r3, r2
 800417e:	687a      	ldr	r2, [r7, #4]
 8004180:	6892      	ldr	r2, [r2, #8]
 8004182:	0211      	lsls	r1, r2, #8
 8004184:	687a      	ldr	r2, [r7, #4]
 8004186:	6952      	ldr	r2, [r2, #20]
 8004188:	0852      	lsrs	r2, r2, #1
 800418a:	3a01      	subs	r2, #1
 800418c:	0652      	lsls	r2, r2, #25
 800418e:	4311      	orrs	r1, r2
 8004190:	687a      	ldr	r2, [r7, #4]
 8004192:	6852      	ldr	r2, [r2, #4]
 8004194:	3a01      	subs	r2, #1
 8004196:	0112      	lsls	r2, r2, #4
 8004198:	430a      	orrs	r2, r1
 800419a:	4916      	ldr	r1, [pc, #88]	; (80041f4 <RCCEx_PLLSAI1_Config+0x1d8>)
 800419c:	4313      	orrs	r3, r2
 800419e:	610b      	str	r3, [r1, #16]
 80041a0:	4b14      	ldr	r3, [pc, #80]	; (80041f4 <RCCEx_PLLSAI1_Config+0x1d8>)
 80041a2:	681b      	ldr	r3, [r3, #0]
 80041a4:	4a13      	ldr	r2, [pc, #76]	; (80041f4 <RCCEx_PLLSAI1_Config+0x1d8>)
 80041a6:	f043 6380 	orr.w	r3, r3, #67108864	; 0x4000000
 80041aa:	6013      	str	r3, [r2, #0]
 80041ac:	f7fc fd9c 	bl	8000ce8 <HAL_GetTick>
 80041b0:	60b8      	str	r0, [r7, #8]
 80041b2:	e009      	b.n	80041c8 <RCCEx_PLLSAI1_Config+0x1ac>
 80041b4:	f7fc fd98 	bl	8000ce8 <HAL_GetTick>
 80041b8:	4602      	mov	r2, r0
 80041ba:	68bb      	ldr	r3, [r7, #8]
 80041bc:	1ad3      	subs	r3, r2, r3
 80041be:	2b02      	cmp	r3, #2
 80041c0:	d902      	bls.n	80041c8 <RCCEx_PLLSAI1_Config+0x1ac>
 80041c2:	2303      	movs	r3, #3
 80041c4:	73fb      	strb	r3, [r7, #15]
 80041c6:	e005      	b.n	80041d4 <RCCEx_PLLSAI1_Config+0x1b8>
 80041c8:	4b0a      	ldr	r3, [pc, #40]	; (80041f4 <RCCEx_PLLSAI1_Config+0x1d8>)
 80041ca:	681b      	ldr	r3, [r3, #0]
 80041cc:	f003 6300 	and.w	r3, r3, #134217728	; 0x8000000
 80041d0:	2b00      	cmp	r3, #0
 80041d2:	d0ef      	beq.n	80041b4 <RCCEx_PLLSAI1_Config+0x198>
 80041d4:	7bfb      	ldrb	r3, [r7, #15]
 80041d6:	2b00      	cmp	r3, #0
 80041d8:	d106      	bne.n	80041e8 <RCCEx_PLLSAI1_Config+0x1cc>
 80041da:	4b06      	ldr	r3, [pc, #24]	; (80041f4 <RCCEx_PLLSAI1_Config+0x1d8>)
 80041dc:	691a      	ldr	r2, [r3, #16]
 80041de:	687b      	ldr	r3, [r7, #4]
 80041e0:	699b      	ldr	r3, [r3, #24]
 80041e2:	4904      	ldr	r1, [pc, #16]	; (80041f4 <RCCEx_PLLSAI1_Config+0x1d8>)
 80041e4:	4313      	orrs	r3, r2
 80041e6:	610b      	str	r3, [r1, #16]
 80041e8:	7bfb      	ldrb	r3, [r7, #15]
 80041ea:	4618      	mov	r0, r3
 80041ec:	3710      	adds	r7, #16
 80041ee:	46bd      	mov	sp, r7
 80041f0:	bd80      	pop	{r7, pc}
 80041f2:	bf00      	nop
 80041f4:	40021000 	.word	0x40021000
 80041f8:	07ff800f 	.word	0x07ff800f
 80041fc:	ff9f800f 	.word	0xff9f800f
 8004200:	f9ff800f 	.word	0xf9ff800f

08004204 <RCCEx_PLLSAI2_Config>:
 8004204:	b580      	push	{r7, lr}
 8004206:	b084      	sub	sp, #16
 8004208:	af00      	add	r7, sp, #0
 800420a:	6078      	str	r0, [r7, #4]
 800420c:	6039      	str	r1, [r7, #0]
 800420e:	2300      	movs	r3, #0
 8004210:	73fb      	strb	r3, [r7, #15]
 8004212:	4b72      	ldr	r3, [pc, #456]	; (80043dc <RCCEx_PLLSAI2_Config+0x1d8>)
 8004214:	68db      	ldr	r3, [r3, #12]
 8004216:	f003 0303 	and.w	r3, r3, #3
 800421a:	2b00      	cmp	r3, #0
 800421c:	d00e      	beq.n	800423c <RCCEx_PLLSAI2_Config+0x38>
 800421e:	4b6f      	ldr	r3, [pc, #444]	; (80043dc <RCCEx_PLLSAI2_Config+0x1d8>)
 8004220:	68db      	ldr	r3, [r3, #12]
 8004222:	f003 0203 	and.w	r2, r3, #3
 8004226:	687b      	ldr	r3, [r7, #4]
 8004228:	681b      	ldr	r3, [r3, #0]
 800422a:	429a      	cmp	r2, r3
 800422c:	d103      	bne.n	8004236 <RCCEx_PLLSAI2_Config+0x32>
 800422e:	687b      	ldr	r3, [r7, #4]
 8004230:	681b      	ldr	r3, [r3, #0]
 8004232:	2b00      	cmp	r3, #0
 8004234:	d142      	bne.n	80042bc <RCCEx_PLLSAI2_Config+0xb8>
 8004236:	2301      	movs	r3, #1
 8004238:	73fb      	strb	r3, [r7, #15]
 800423a:	e03f      	b.n	80042bc <RCCEx_PLLSAI2_Config+0xb8>
 800423c:	687b      	ldr	r3, [r7, #4]
 800423e:	681b      	ldr	r3, [r3, #0]
 8004240:	2b03      	cmp	r3, #3
 8004242:	d018      	beq.n	8004276 <RCCEx_PLLSAI2_Config+0x72>
 8004244:	2b03      	cmp	r3, #3
 8004246:	d825      	bhi.n	8004294 <RCCEx_PLLSAI2_Config+0x90>
 8004248:	2b01      	cmp	r3, #1
 800424a:	d002      	beq.n	8004252 <RCCEx_PLLSAI2_Config+0x4e>
 800424c:	2b02      	cmp	r3, #2
 800424e:	d009      	beq.n	8004264 <RCCEx_PLLSAI2_Config+0x60>
 8004250:	e020      	b.n	8004294 <RCCEx_PLLSAI2_Config+0x90>
 8004252:	4b62      	ldr	r3, [pc, #392]	; (80043dc <RCCEx_PLLSAI2_Config+0x1d8>)
 8004254:	681b      	ldr	r3, [r3, #0]
 8004256:	f003 0302 	and.w	r3, r3, #2
 800425a:	2b00      	cmp	r3, #0
 800425c:	d11d      	bne.n	800429a <RCCEx_PLLSAI2_Config+0x96>
 800425e:	2301      	movs	r3, #1
 8004260:	73fb      	strb	r3, [r7, #15]
 8004262:	e01a      	b.n	800429a <RCCEx_PLLSAI2_Config+0x96>
 8004264:	4b5d      	ldr	r3, [pc, #372]	; (80043dc <RCCEx_PLLSAI2_Config+0x1d8>)
 8004266:	681b      	ldr	r3, [r3, #0]
 8004268:	f403 6380 	and.w	r3, r3, #1024	; 0x400
 800426c:	2b00      	cmp	r3, #0
 800426e:	d116      	bne.n	800429e <RCCEx_PLLSAI2_Config+0x9a>
 8004270:	2301      	movs	r3, #1
 8004272:	73fb      	strb	r3, [r7, #15]
 8004274:	e013      	b.n	800429e <RCCEx_PLLSAI2_Config+0x9a>
 8004276:	4b59      	ldr	r3, [pc, #356]	; (80043dc <RCCEx_PLLSAI2_Config+0x1d8>)
 8004278:	681b      	ldr	r3, [r3, #0]
 800427a:	f403 3300 	and.w	r3, r3, #131072	; 0x20000
 800427e:	2b00      	cmp	r3, #0
 8004280:	d10f      	bne.n	80042a2 <RCCEx_PLLSAI2_Config+0x9e>
 8004282:	4b56      	ldr	r3, [pc, #344]	; (80043dc <RCCEx_PLLSAI2_Config+0x1d8>)
 8004284:	681b      	ldr	r3, [r3, #0]
 8004286:	f403 2380 	and.w	r3, r3, #262144	; 0x40000
 800428a:	2b00      	cmp	r3, #0
 800428c:	d109      	bne.n	80042a2 <RCCEx_PLLSAI2_Config+0x9e>
 800428e:	2301      	movs	r3, #1
 8004290:	73fb      	strb	r3, [r7, #15]
 8004292:	e006      	b.n	80042a2 <RCCEx_PLLSAI2_Config+0x9e>
 8004294:	2301      	movs	r3, #1
 8004296:	73fb      	strb	r3, [r7, #15]
 8004298:	e004      	b.n	80042a4 <RCCEx_PLLSAI2_Config+0xa0>
 800429a:	bf00      	nop
 800429c:	e002      	b.n	80042a4 <RCCEx_PLLSAI2_Config+0xa0>
 800429e:	bf00      	nop
 80042a0:	e000      	b.n	80042a4 <RCCEx_PLLSAI2_Config+0xa0>
 80042a2:	bf00      	nop
 80042a4:	7bfb      	ldrb	r3, [r7, #15]
 80042a6:	2b00      	cmp	r3, #0
 80042a8:	d108      	bne.n	80042bc <RCCEx_PLLSAI2_Config+0xb8>
 80042aa:	4b4c      	ldr	r3, [pc, #304]	; (80043dc <RCCEx_PLLSAI2_Config+0x1d8>)
 80042ac:	68db      	ldr	r3, [r3, #12]
 80042ae:	f023 0203 	bic.w	r2, r3, #3
 80042b2:	687b      	ldr	r3, [r7, #4]
 80042b4:	681b      	ldr	r3, [r3, #0]
 80042b6:	4949      	ldr	r1, [pc, #292]	; (80043dc <RCCEx_PLLSAI2_Config+0x1d8>)
 80042b8:	4313      	orrs	r3, r2
 80042ba:	60cb      	str	r3, [r1, #12]
 80042bc:	7bfb      	ldrb	r3, [r7, #15]
 80042be:	2b00      	cmp	r3, #0
 80042c0:	f040 8086 	bne.w	80043d0 <RCCEx_PLLSAI2_Config+0x1cc>
 80042c4:	4b45      	ldr	r3, [pc, #276]	; (80043dc <RCCEx_PLLSAI2_Config+0x1d8>)
 80042c6:	681b      	ldr	r3, [r3, #0]
 80042c8:	4a44      	ldr	r2, [pc, #272]	; (80043dc <RCCEx_PLLSAI2_Config+0x1d8>)
 80042ca:	f023 5380 	bic.w	r3, r3, #268435456	; 0x10000000
 80042ce:	6013      	str	r3, [r2, #0]
 80042d0:	f7fc fd0a 	bl	8000ce8 <HAL_GetTick>
 80042d4:	60b8      	str	r0, [r7, #8]
 80042d6:	e009      	b.n	80042ec <RCCEx_PLLSAI2_Config+0xe8>
 80042d8:	f7fc fd06 	bl	8000ce8 <HAL_GetTick>
 80042dc:	4602      	mov	r2, r0
 80042de:	68bb      	ldr	r3, [r7, #8]
 80042e0:	1ad3      	subs	r3, r2, r3
 80042e2:	2b02      	cmp	r3, #2
 80042e4:	d902      	bls.n	80042ec <RCCEx_PLLSAI2_Config+0xe8>
 80042e6:	2303      	movs	r3, #3
 80042e8:	73fb      	strb	r3, [r7, #15]
 80042ea:	e005      	b.n	80042f8 <RCCEx_PLLSAI2_Config+0xf4>
 80042ec:	4b3b      	ldr	r3, [pc, #236]	; (80043dc <RCCEx_PLLSAI2_Config+0x1d8>)
 80042ee:	681b      	ldr	r3, [r3, #0]
 80042f0:	f003 5300 	and.w	r3, r3, #536870912	; 0x20000000
 80042f4:	2b00      	cmp	r3, #0
 80042f6:	d1ef      	bne.n	80042d8 <RCCEx_PLLSAI2_Config+0xd4>
 80042f8:	7bfb      	ldrb	r3, [r7, #15]
 80042fa:	2b00      	cmp	r3, #0
 80042fc:	d168      	bne.n	80043d0 <RCCEx_PLLSAI2_Config+0x1cc>
 80042fe:	683b      	ldr	r3, [r7, #0]
 8004300:	2b00      	cmp	r3, #0
 8004302:	d113      	bne.n	800432c <RCCEx_PLLSAI2_Config+0x128>
 8004304:	4b35      	ldr	r3, [pc, #212]	; (80043dc <RCCEx_PLLSAI2_Config+0x1d8>)
 8004306:	695a      	ldr	r2, [r3, #20]
 8004308:	4b35      	ldr	r3, [pc, #212]	; (80043e0 <RCCEx_PLLSAI2_Config+0x1dc>)
 800430a:	4013      	ands	r3, r2
 800430c:	687a      	ldr	r2, [r7, #4]
 800430e:	6892      	ldr	r2, [r2, #8]
 8004310:	0211      	lsls	r1, r2, #8
 8004312:	687a      	ldr	r2, [r7, #4]
 8004314:	68d2      	ldr	r2, [r2, #12]
 8004316:	06d2      	lsls	r2, r2, #27
 8004318:	4311      	orrs	r1, r2
 800431a:	687a      	ldr	r2, [r7, #4]
 800431c:	6852      	ldr	r2, [r2, #4]
 800431e:	3a01      	subs	r2, #1
 8004320:	0112      	lsls	r2, r2, #4
 8004322:	430a      	orrs	r2, r1
 8004324:	492d      	ldr	r1, [pc, #180]	; (80043dc <RCCEx_PLLSAI2_Config+0x1d8>)
 8004326:	4313      	orrs	r3, r2
 8004328:	614b      	str	r3, [r1, #20]
 800432a:	e02d      	b.n	8004388 <RCCEx_PLLSAI2_Config+0x184>
 800432c:	683b      	ldr	r3, [r7, #0]
 800432e:	2b01      	cmp	r3, #1
 8004330:	d115      	bne.n	800435e <RCCEx_PLLSAI2_Config+0x15a>
 8004332:	4b2a      	ldr	r3, [pc, #168]	; (80043dc <RCCEx_PLLSAI2_Config+0x1d8>)
 8004334:	695a      	ldr	r2, [r3, #20]
 8004336:	4b2b      	ldr	r3, [pc, #172]	; (80043e4 <RCCEx_PLLSAI2_Config+0x1e0>)
 8004338:	4013      	ands	r3, r2
 800433a:	687a      	ldr	r2, [r7, #4]
 800433c:	6892      	ldr	r2, [r2, #8]
 800433e:	0211      	lsls	r1, r2, #8
 8004340:	687a      	ldr	r2, [r7, #4]
 8004342:	6912      	ldr	r2, [r2, #16]
 8004344:	0852      	lsrs	r2, r2, #1
 8004346:	3a01      	subs	r2, #1
 8004348:	0552      	lsls	r2, r2, #21
 800434a:	4311      	orrs	r1, r2
 800434c:	687a      	ldr	r2, [r7, #4]
 800434e:	6852      	ldr	r2, [r2, #4]
 8004350:	3a01      	subs	r2, #1
 8004352:	0112      	lsls	r2, r2, #4
 8004354:	430a      	orrs	r2, r1
 8004356:	4921      	ldr	r1, [pc, #132]	; (80043dc <RCCEx_PLLSAI2_Config+0x1d8>)
 8004358:	4313      	orrs	r3, r2
 800435a:	614b      	str	r3, [r1, #20]
 800435c:	e014      	b.n	8004388 <RCCEx_PLLSAI2_Config+0x184>
 800435e:	4b1f      	ldr	r3, [pc, #124]	; (80043dc <RCCEx_PLLSAI2_Config+0x1d8>)
 8004360:	695a      	ldr	r2, [r3, #20]
 8004362:	4b21      	ldr	r3, [pc, #132]	; (80043e8 <RCCEx_PLLSAI2_Config+0x1e4>)
 8004364:	4013      	ands	r3, r2
 8004366:	687a      	ldr	r2, [r7, #4]
 8004368:	6892      	ldr	r2, [r2, #8]
 800436a:	0211      	lsls	r1, r2, #8
 800436c:	687a      	ldr	r2, [r7, #4]
 800436e:	6952      	ldr	r2, [r2, #20]
 8004370:	0852      	lsrs	r2, r2, #1
 8004372:	3a01      	subs	r2, #1
 8004374:	0652      	lsls	r2, r2, #25
 8004376:	4311      	orrs	r1, r2
 8004378:	687a      	ldr	r2, [r7, #4]
 800437a:	6852      	ldr	r2, [r2, #4]
 800437c:	3a01      	subs	r2, #1
 800437e:	0112      	lsls	r2, r2, #4
 8004380:	430a      	orrs	r2, r1
 8004382:	4916      	ldr	r1, [pc, #88]	; (80043dc <RCCEx_PLLSAI2_Config+0x1d8>)
 8004384:	4313      	orrs	r3, r2
 8004386:	614b      	str	r3, [r1, #20]
 8004388:	4b14      	ldr	r3, [pc, #80]	; (80043dc <RCCEx_PLLSAI2_Config+0x1d8>)
 800438a:	681b      	ldr	r3, [r3, #0]
 800438c:	4a13      	ldr	r2, [pc, #76]	; (80043dc <RCCEx_PLLSAI2_Config+0x1d8>)
 800438e:	f043 5380 	orr.w	r3, r3, #268435456	; 0x10000000
 8004392:	6013      	str	r3, [r2, #0]
 8004394:	f7fc fca8 	bl	8000ce8 <HAL_GetTick>
 8004398:	60b8      	str	r0, [r7, #8]
 800439a:	e009      	b.n	80043b0 <RCCEx_PLLSAI2_Config+0x1ac>
 800439c:	f7fc fca4 	bl	8000ce8 <HAL_GetTick>
 80043a0:	4602      	mov	r2, r0
 80043a2:	68bb      	ldr	r3, [r7, #8]
 80043a4:	1ad3      	subs	r3, r2, r3
 80043a6:	2b02      	cmp	r3, #2
 80043a8:	d902      	bls.n	80043b0 <RCCEx_PLLSAI2_Config+0x1ac>
 80043aa:	2303      	movs	r3, #3
 80043ac:	73fb      	strb	r3, [r7, #15]
 80043ae:	e005      	b.n	80043bc <RCCEx_PLLSAI2_Config+0x1b8>
 80043b0:	4b0a      	ldr	r3, [pc, #40]	; (80043dc <RCCEx_PLLSAI2_Config+0x1d8>)
 80043b2:	681b      	ldr	r3, [r3, #0]
 80043b4:	f003 5300 	and.w	r3, r3, #536870912	; 0x20000000
 80043b8:	2b00      	cmp	r3, #0
 80043ba:	d0ef      	beq.n	800439c <RCCEx_PLLSAI2_Config+0x198>
 80043bc:	7bfb      	ldrb	r3, [r7, #15]
 80043be:	2b00      	cmp	r3, #0
 80043c0:	d106      	bne.n	80043d0 <RCCEx_PLLSAI2_Config+0x1cc>
 80043c2:	4b06      	ldr	r3, [pc, #24]	; (80043dc <RCCEx_PLLSAI2_Config+0x1d8>)
 80043c4:	695a      	ldr	r2, [r3, #20]
 80043c6:	687b      	ldr	r3, [r7, #4]
 80043c8:	699b      	ldr	r3, [r3, #24]
 80043ca:	4904      	ldr	r1, [pc, #16]	; (80043dc <RCCEx_PLLSAI2_Config+0x1d8>)
 80043cc:	4313      	orrs	r3, r2
 80043ce:	614b      	str	r3, [r1, #20]
 80043d0:	7bfb      	ldrb	r3, [r7, #15]
 80043d2:	4618      	mov	r0, r3
 80043d4:	3710      	adds	r7, #16
 80043d6:	46bd      	mov	sp, r7
 80043d8:	bd80      	pop	{r7, pc}
 80043da:	bf00      	nop
 80043dc:	40021000 	.word	0x40021000
 80043e0:	07ff800f 	.word	0x07ff800f
 80043e4:	ff9f800f 	.word	0xff9f800f
 80043e8:	f9ff800f 	.word	0xf9ff800f

080043ec <ITM_SendChar>:
 80043ec:	b480      	push	{r7}
 80043ee:	b083      	sub	sp, #12
 80043f0:	af00      	add	r7, sp, #0
 80043f2:	6078      	str	r0, [r7, #4]
 80043f4:	f04f 4360 	mov.w	r3, #3758096384	; 0xe0000000
 80043f8:	f8d3 3e80 	ldr.w	r3, [r3, #3712]	; 0xe80
 80043fc:	f003 0301 	and.w	r3, r3, #1
 8004400:	2b00      	cmp	r3, #0
 8004402:	d013      	beq.n	800442c <ITM_SendChar+0x40>
 8004404:	f04f 4360 	mov.w	r3, #3758096384	; 0xe0000000
 8004408:	f8d3 3e00 	ldr.w	r3, [r3, #3584]	; 0xe00
 800440c:	f003 0301 	and.w	r3, r3, #1
 8004410:	2b00      	cmp	r3, #0
 8004412:	d00b      	beq.n	800442c <ITM_SendChar+0x40>
 8004414:	e000      	b.n	8004418 <ITM_SendChar+0x2c>
 8004416:	bf00      	nop
 8004418:	f04f 4360 	mov.w	r3, #3758096384	; 0xe0000000
 800441c:	681b      	ldr	r3, [r3, #0]
 800441e:	2b00      	cmp	r3, #0
 8004420:	d0f9      	beq.n	8004416 <ITM_SendChar+0x2a>
 8004422:	f04f 4360 	mov.w	r3, #3758096384	; 0xe0000000
 8004426:	687a      	ldr	r2, [r7, #4]
 8004428:	b2d2      	uxtb	r2, r2
 800442a:	701a      	strb	r2, [r3, #0]
 800442c:	687b      	ldr	r3, [r7, #4]
 800442e:	4618      	mov	r0, r3
 8004430:	370c      	adds	r7, #12
 8004432:	46bd      	mov	sp, r7
 8004434:	f85d 7b04 	ldr.w	r7, [sp], #4
 8004438:	4770      	bx	lr
 800443a:	0000      	movs	r0, r0
 800443c:	0000      	movs	r0, r0
	...

08004440 <main>:
 8004440:	b5b0      	push	{r4, r5, r7, lr}
 8004442:	b08c      	sub	sp, #48	; 0x30
 8004444:	af00      	add	r7, sp, #0
 8004446:	f7fc fbe7 	bl	8000c18 <HAL_Init>
 800444a:	f000 f901 	bl	8004650 <SystemClock_Config>
 800444e:	f000 f9f7 	bl	8004840 <MX_GPIO_Init>
 8004452:	f000 f94f 	bl	80046f4 <MX_ADC1_Init>
 8004456:	f000 f9b3 	bl	80047c0 <MX_DAC1_Init>
 800445a:	2000      	movs	r0, #0
 800445c:	f000 fa4c 	bl	80048f8 <configure_channels>
 8004460:	4873      	ldr	r0, [pc, #460]	; (8004630 <main+0x1f0>)
 8004462:	f7fc ffe5 	bl	8001430 <HAL_ADC_Start>
 8004466:	f04f 31ff 	mov.w	r1, #4294967295
 800446a:	4871      	ldr	r0, [pc, #452]	; (8004630 <main+0x1f0>)
 800446c:	f7fd f876 	bl	800155c <HAL_ADC_PollForConversion>
 8004470:	486f      	ldr	r0, [pc, #444]	; (8004630 <main+0x1f0>)
 8004472:	f7fd f902 	bl	800167a <HAL_ADC_GetValue>
 8004476:	ee07 0a90 	vmov	s15, r0
 800447a:	eef8 7a67 	vcvt.f32.u32	s15, s15
 800447e:	edc7 7a0a 	vstr	s15, [r7, #40]	; 0x28
 8004482:	486b      	ldr	r0, [pc, #428]	; (8004630 <main+0x1f0>)
 8004484:	f7fd f837 	bl	80014f6 <HAL_ADC_Stop>
 8004488:	4b6a      	ldr	r3, [pc, #424]	; (8004634 <main+0x1f4>)
 800448a:	881b      	ldrh	r3, [r3, #0]
 800448c:	ee07 3a90 	vmov	s15, r3
 8004490:	eef8 7ae7 	vcvt.f32.s32	s15, s15
 8004494:	eeb0 7a08 	vmov.f32	s14, #8	; 0x40400000  3.0
 8004498:	ee67 6a87 	vmul.f32	s13, s15, s14
 800449c:	ed97 7a0a 	vldr	s14, [r7, #40]	; 0x28
 80044a0:	eec6 7a87 	vdiv.f32	s15, s13, s14
 80044a4:	4b64      	ldr	r3, [pc, #400]	; (8004638 <main+0x1f8>)
 80044a6:	edc3 7a00 	vstr	s15, [r3]
 80044aa:	2341      	movs	r3, #65	; 0x41
 80044ac:	627b      	str	r3, [r7, #36]	; 0x24
 80044ae:	6a7b      	ldr	r3, [r7, #36]	; 0x24
 80044b0:	009b      	lsls	r3, r3, #2
 80044b2:	623b      	str	r3, [r7, #32]
 80044b4:	2201      	movs	r2, #1
 80044b6:	6a7b      	ldr	r3, [r7, #36]	; 0x24
 80044b8:	fb92 f2f3 	sdiv	r2, r2, r3
 80044bc:	6a3b      	ldr	r3, [r7, #32]
 80044be:	fb92 f3f3 	sdiv	r3, r2, r3
 80044c2:	f44f 727a 	mov.w	r2, #1000	; 0x3e8
 80044c6:	fb02 f303 	mul.w	r3, r2, r3
 80044ca:	4618      	mov	r0, r3
 80044cc:	f7fc f842 	bl	8000554 <__aeabi_i2d>
 80044d0:	4602      	mov	r2, r0
 80044d2:	460b      	mov	r3, r1
 80044d4:	e9c7 2306 	strd	r2, r3, [r7, #24]
 80044d8:	2308      	movs	r3, #8
 80044da:	617b      	str	r3, [r7, #20]
 80044dc:	4b57      	ldr	r3, [pc, #348]	; (800463c <main+0x1fc>)
 80044de:	2200      	movs	r2, #0
 80044e0:	701a      	strb	r2, [r3, #0]
 80044e2:	4b57      	ldr	r3, [pc, #348]	; (8004640 <main+0x200>)
 80044e4:	2200      	movs	r2, #0
 80044e6:	701a      	strb	r2, [r3, #0]
 80044e8:	2300      	movs	r3, #0
 80044ea:	62fb      	str	r3, [r7, #44]	; 0x2c
 80044ec:	4a55      	ldr	r2, [pc, #340]	; (8004644 <main+0x204>)
 80044ee:	6afb      	ldr	r3, [r7, #44]	; 0x2c
 80044f0:	00db      	lsls	r3, r3, #3
 80044f2:	4413      	add	r3, r2
 80044f4:	e9d3 2300 	ldrd	r2, r3, [r3]
 80044f8:	e9c7 2302 	strd	r2, r3, [r7, #8]
 80044fc:	4a52      	ldr	r2, [pc, #328]	; (8004648 <main+0x208>)
 80044fe:	6afb      	ldr	r3, [r7, #44]	; 0x2c
 8004500:	00db      	lsls	r3, r3, #3
 8004502:	4413      	add	r3, r2
 8004504:	e9d3 2300 	ldrd	r2, r3, [r3]
 8004508:	e9c7 2300 	strd	r2, r3, [r7]
 800450c:	a344      	add	r3, pc, #272	; (adr r3, 8004620 <main+0x1e0>)
 800450e:	e9d3 2300 	ldrd	r2, r3, [r3]
 8004512:	e9d7 0102 	ldrd	r0, r1, [r7, #8]
 8004516:	f7fc f887 	bl	8000628 <__aeabi_dmul>
 800451a:	4602      	mov	r2, r0
 800451c:	460b      	mov	r3, r1
 800451e:	4614      	mov	r4, r2
 8004520:	461d      	mov	r5, r3
 8004522:	6978      	ldr	r0, [r7, #20]
 8004524:	f7fc f816 	bl	8000554 <__aeabi_i2d>
 8004528:	4602      	mov	r2, r0
 800452a:	460b      	mov	r3, r1
 800452c:	ec43 2b11 	vmov	d1, r2, r3
 8004530:	ed9f 0b3d 	vldr	d0, [pc, #244]	; 8004628 <main+0x1e8>
 8004534:	f003 f934 	bl	80077a0 <pow>
 8004538:	ec53 2b10 	vmov	r2, r3, d0
 800453c:	4620      	mov	r0, r4
 800453e:	4629      	mov	r1, r5
 8004540:	f7fc f872 	bl	8000628 <__aeabi_dmul>
 8004544:	4602      	mov	r2, r0
 8004546:	460b      	mov	r3, r1
 8004548:	4614      	mov	r4, r2
 800454a:	461d      	mov	r5, r3
 800454c:	4b3a      	ldr	r3, [pc, #232]	; (8004638 <main+0x1f8>)
 800454e:	681b      	ldr	r3, [r3, #0]
 8004550:	4618      	mov	r0, r3
 8004552:	f7fc f811 	bl	8000578 <__aeabi_f2d>
 8004556:	4602      	mov	r2, r0
 8004558:	460b      	mov	r3, r1
 800455a:	4620      	mov	r0, r4
 800455c:	4629      	mov	r1, r5
 800455e:	f7fc f98d 	bl	800087c <__aeabi_ddiv>
 8004562:	4602      	mov	r2, r0
 8004564:	460b      	mov	r3, r1
 8004566:	4610      	mov	r0, r2
 8004568:	4619      	mov	r1, r3
 800456a:	f7fc fb35 	bl	8000bd8 <__aeabi_d2uiz>
 800456e:	4603      	mov	r3, r0
 8004570:	b2da      	uxtb	r2, r3
 8004572:	4b32      	ldr	r3, [pc, #200]	; (800463c <main+0x1fc>)
 8004574:	701a      	strb	r2, [r3, #0]
 8004576:	a32a      	add	r3, pc, #168	; (adr r3, 8004620 <main+0x1e0>)
 8004578:	e9d3 2300 	ldrd	r2, r3, [r3]
 800457c:	e9d7 0100 	ldrd	r0, r1, [r7]
 8004580:	f7fc f852 	bl	8000628 <__aeabi_dmul>
 8004584:	4602      	mov	r2, r0
 8004586:	460b      	mov	r3, r1
 8004588:	4614      	mov	r4, r2
 800458a:	461d      	mov	r5, r3
 800458c:	6978      	ldr	r0, [r7, #20]
 800458e:	f7fb ffe1 	bl	8000554 <__aeabi_i2d>
 8004592:	4602      	mov	r2, r0
 8004594:	460b      	mov	r3, r1
 8004596:	ec43 2b11 	vmov	d1, r2, r3
 800459a:	ed9f 0b23 	vldr	d0, [pc, #140]	; 8004628 <main+0x1e8>
 800459e:	f003 f8ff 	bl	80077a0 <pow>
 80045a2:	ec53 2b10 	vmov	r2, r3, d0
 80045a6:	4620      	mov	r0, r4
 80045a8:	4629      	mov	r1, r5
 80045aa:	f7fc f83d 	bl	8000628 <__aeabi_dmul>
 80045ae:	4602      	mov	r2, r0
 80045b0:	460b      	mov	r3, r1
 80045b2:	4614      	mov	r4, r2
 80045b4:	461d      	mov	r5, r3
 80045b6:	4b20      	ldr	r3, [pc, #128]	; (8004638 <main+0x1f8>)
 80045b8:	681b      	ldr	r3, [r3, #0]
 80045ba:	4618      	mov	r0, r3
 80045bc:	f7fb ffdc 	bl	8000578 <__aeabi_f2d>
 80045c0:	4602      	mov	r2, r0
 80045c2:	460b      	mov	r3, r1
 80045c4:	4620      	mov	r0, r4
 80045c6:	4629      	mov	r1, r5
 80045c8:	f7fc f958 	bl	800087c <__aeabi_ddiv>
 80045cc:	4602      	mov	r2, r0
 80045ce:	460b      	mov	r3, r1
 80045d0:	4610      	mov	r0, r2
 80045d2:	4619      	mov	r1, r3
 80045d4:	f7fc fb00 	bl	8000bd8 <__aeabi_d2uiz>
 80045d8:	4603      	mov	r3, r0
 80045da:	b2da      	uxtb	r2, r3
 80045dc:	4b18      	ldr	r3, [pc, #96]	; (8004640 <main+0x200>)
 80045de:	701a      	strb	r2, [r3, #0]
 80045e0:	2100      	movs	r1, #0
 80045e2:	481a      	ldr	r0, [pc, #104]	; (800464c <main+0x20c>)
 80045e4:	f7fd fefb 	bl	80023de <HAL_DAC_Start>
 80045e8:	2000      	movs	r0, #0
 80045ea:	f7fc fb89 	bl	8000d00 <HAL_Delay>
 80045ee:	4b14      	ldr	r3, [pc, #80]	; (8004640 <main+0x200>)
 80045f0:	781b      	ldrb	r3, [r3, #0]
 80045f2:	2208      	movs	r2, #8
 80045f4:	2100      	movs	r1, #0
 80045f6:	4815      	ldr	r0, [pc, #84]	; (800464c <main+0x20c>)
 80045f8:	f7fd ff60 	bl	80024bc <HAL_DAC_SetValue>
 80045fc:	2100      	movs	r1, #0
 80045fe:	4813      	ldr	r0, [pc, #76]	; (800464c <main+0x20c>)
 8004600:	f7fd ff3f 	bl	8002482 <HAL_DAC_Stop>
 8004604:	2000      	movs	r0, #0
 8004606:	f7fc fb7b 	bl	8000d00 <HAL_Delay>
 800460a:	6afb      	ldr	r3, [r7, #44]	; 0x2c
 800460c:	331a      	adds	r3, #26
 800460e:	62fb      	str	r3, [r7, #44]	; 0x2c
 8004610:	6afa      	ldr	r2, [r7, #44]	; 0x2c
 8004612:	6a3b      	ldr	r3, [r7, #32]
 8004614:	429a      	cmp	r2, r3
 8004616:	f6ff af69 	blt.w	80044ec <main+0xac>
 800461a:	2300      	movs	r3, #0
 800461c:	62fb      	str	r3, [r7, #44]	; 0x2c
 800461e:	e765      	b.n	80044ec <main+0xac>
 8004620:	33333333 	.word	0x33333333
 8004624:	400b3333 	.word	0x400b3333
 8004628:	00000000 	.word	0x00000000
 800462c:	40000000 	.word	0x40000000
 8004630:	2000123c 	.word	0x2000123c
 8004634:	1fff75aa 	.word	0x1fff75aa
 8004638:	200012b8 	.word	0x200012b8
 800463c:	200012bc 	.word	0x200012bc
 8004640:	200012bd 	.word	0x200012bd
 8004644:	20000008 	.word	0x20000008
 8004648:	20000828 	.word	0x20000828
 800464c:	200012a4 	.word	0x200012a4

08004650 <SystemClock_Config>:
 8004650:	b580      	push	{r7, lr}
 8004652:	b096      	sub	sp, #88	; 0x58
 8004654:	af00      	add	r7, sp, #0
 8004656:	f107 0314 	add.w	r3, r7, #20
 800465a:	2244      	movs	r2, #68	; 0x44
 800465c:	2100      	movs	r1, #0
 800465e:	4618      	mov	r0, r3
 8004660:	f000 fb80 	bl	8004d64 <memset>
 8004664:	463b      	mov	r3, r7
 8004666:	2200      	movs	r2, #0
 8004668:	601a      	str	r2, [r3, #0]
 800466a:	605a      	str	r2, [r3, #4]
 800466c:	609a      	str	r2, [r3, #8]
 800466e:	60da      	str	r2, [r3, #12]
 8004670:	611a      	str	r2, [r3, #16]
 8004672:	2000      	movs	r0, #0
 8004674:	f7fe fa52 	bl	8002b1c <HAL_PWREx_ControlVoltageScaling>
 8004678:	4603      	mov	r3, r0
 800467a:	2b00      	cmp	r3, #0
 800467c:	d001      	beq.n	8004682 <SystemClock_Config+0x32>
 800467e:	f000 f98b 	bl	8004998 <Error_Handler>
 8004682:	2310      	movs	r3, #16
 8004684:	617b      	str	r3, [r7, #20]
 8004686:	2301      	movs	r3, #1
 8004688:	62fb      	str	r3, [r7, #44]	; 0x2c
 800468a:	2300      	movs	r3, #0
 800468c:	633b      	str	r3, [r7, #48]	; 0x30
 800468e:	2360      	movs	r3, #96	; 0x60
 8004690:	637b      	str	r3, [r7, #52]	; 0x34
 8004692:	2302      	movs	r3, #2
 8004694:	63fb      	str	r3, [r7, #60]	; 0x3c
 8004696:	2301      	movs	r3, #1
 8004698:	643b      	str	r3, [r7, #64]	; 0x40
 800469a:	2301      	movs	r3, #1
 800469c:	647b      	str	r3, [r7, #68]	; 0x44
 800469e:	233c      	movs	r3, #60	; 0x3c
 80046a0:	64bb      	str	r3, [r7, #72]	; 0x48
 80046a2:	2302      	movs	r3, #2
 80046a4:	64fb      	str	r3, [r7, #76]	; 0x4c
 80046a6:	2302      	movs	r3, #2
 80046a8:	653b      	str	r3, [r7, #80]	; 0x50
 80046aa:	2302      	movs	r3, #2
 80046ac:	657b      	str	r3, [r7, #84]	; 0x54
 80046ae:	f107 0314 	add.w	r3, r7, #20
 80046b2:	4618      	mov	r0, r3
 80046b4:	f7fe fad6 	bl	8002c64 <HAL_RCC_OscConfig>
 80046b8:	4603      	mov	r3, r0
 80046ba:	2b00      	cmp	r3, #0
 80046bc:	d001      	beq.n	80046c2 <SystemClock_Config+0x72>
 80046be:	f000 f96b 	bl	8004998 <Error_Handler>
 80046c2:	230f      	movs	r3, #15
 80046c4:	603b      	str	r3, [r7, #0]
 80046c6:	2303      	movs	r3, #3
 80046c8:	607b      	str	r3, [r7, #4]
 80046ca:	2300      	movs	r3, #0
 80046cc:	60bb      	str	r3, [r7, #8]
 80046ce:	2300      	movs	r3, #0
 80046d0:	60fb      	str	r3, [r7, #12]
 80046d2:	2300      	movs	r3, #0
 80046d4:	613b      	str	r3, [r7, #16]
 80046d6:	463b      	mov	r3, r7
 80046d8:	2105      	movs	r1, #5
 80046da:	4618      	mov	r0, r3
 80046dc:	f7fe fedc 	bl	8003498 <HAL_RCC_ClockConfig>
 80046e0:	4603      	mov	r3, r0
 80046e2:	2b00      	cmp	r3, #0
 80046e4:	d001      	beq.n	80046ea <SystemClock_Config+0x9a>
 80046e6:	f000 f957 	bl	8004998 <Error_Handler>
 80046ea:	bf00      	nop
 80046ec:	3758      	adds	r7, #88	; 0x58
 80046ee:	46bd      	mov	sp, r7
 80046f0:	bd80      	pop	{r7, pc}
	...

080046f4 <MX_ADC1_Init>:
 80046f4:	b580      	push	{r7, lr}
 80046f6:	b086      	sub	sp, #24
 80046f8:	af00      	add	r7, sp, #0
 80046fa:	463b      	mov	r3, r7
 80046fc:	2200      	movs	r2, #0
 80046fe:	601a      	str	r2, [r3, #0]
 8004700:	605a      	str	r2, [r3, #4]
 8004702:	609a      	str	r2, [r3, #8]
 8004704:	60da      	str	r2, [r3, #12]
 8004706:	611a      	str	r2, [r3, #16]
 8004708:	615a      	str	r2, [r3, #20]
 800470a:	4b2a      	ldr	r3, [pc, #168]	; (80047b4 <MX_ADC1_Init+0xc0>)
 800470c:	4a2a      	ldr	r2, [pc, #168]	; (80047b8 <MX_ADC1_Init+0xc4>)
 800470e:	601a      	str	r2, [r3, #0]
 8004710:	4b28      	ldr	r3, [pc, #160]	; (80047b4 <MX_ADC1_Init+0xc0>)
 8004712:	2200      	movs	r2, #0
 8004714:	605a      	str	r2, [r3, #4]
 8004716:	4b27      	ldr	r3, [pc, #156]	; (80047b4 <MX_ADC1_Init+0xc0>)
 8004718:	2200      	movs	r2, #0
 800471a:	609a      	str	r2, [r3, #8]
 800471c:	4b25      	ldr	r3, [pc, #148]	; (80047b4 <MX_ADC1_Init+0xc0>)
 800471e:	2200      	movs	r2, #0
 8004720:	60da      	str	r2, [r3, #12]
 8004722:	4b24      	ldr	r3, [pc, #144]	; (80047b4 <MX_ADC1_Init+0xc0>)
 8004724:	2200      	movs	r2, #0
 8004726:	611a      	str	r2, [r3, #16]
 8004728:	4b22      	ldr	r3, [pc, #136]	; (80047b4 <MX_ADC1_Init+0xc0>)
 800472a:	2204      	movs	r2, #4
 800472c:	615a      	str	r2, [r3, #20]
 800472e:	4b21      	ldr	r3, [pc, #132]	; (80047b4 <MX_ADC1_Init+0xc0>)
 8004730:	2200      	movs	r2, #0
 8004732:	761a      	strb	r2, [r3, #24]
 8004734:	4b1f      	ldr	r3, [pc, #124]	; (80047b4 <MX_ADC1_Init+0xc0>)
 8004736:	2200      	movs	r2, #0
 8004738:	765a      	strb	r2, [r3, #25]
 800473a:	4b1e      	ldr	r3, [pc, #120]	; (80047b4 <MX_ADC1_Init+0xc0>)
 800473c:	2201      	movs	r2, #1
 800473e:	61da      	str	r2, [r3, #28]
 8004740:	4b1c      	ldr	r3, [pc, #112]	; (80047b4 <MX_ADC1_Init+0xc0>)
 8004742:	2200      	movs	r2, #0
 8004744:	f883 2020 	strb.w	r2, [r3, #32]
 8004748:	4b1a      	ldr	r3, [pc, #104]	; (80047b4 <MX_ADC1_Init+0xc0>)
 800474a:	2200      	movs	r2, #0
 800474c:	629a      	str	r2, [r3, #40]	; 0x28
 800474e:	4b19      	ldr	r3, [pc, #100]	; (80047b4 <MX_ADC1_Init+0xc0>)
 8004750:	2200      	movs	r2, #0
 8004752:	62da      	str	r2, [r3, #44]	; 0x2c
 8004754:	4b17      	ldr	r3, [pc, #92]	; (80047b4 <MX_ADC1_Init+0xc0>)
 8004756:	2200      	movs	r2, #0
 8004758:	f883 2030 	strb.w	r2, [r3, #48]	; 0x30
 800475c:	4b15      	ldr	r3, [pc, #84]	; (80047b4 <MX_ADC1_Init+0xc0>)
 800475e:	2200      	movs	r2, #0
 8004760:	635a      	str	r2, [r3, #52]	; 0x34
 8004762:	4b14      	ldr	r3, [pc, #80]	; (80047b4 <MX_ADC1_Init+0xc0>)
 8004764:	2200      	movs	r2, #0
 8004766:	f883 2038 	strb.w	r2, [r3, #56]	; 0x38
 800476a:	4b12      	ldr	r3, [pc, #72]	; (80047b4 <MX_ADC1_Init+0xc0>)
 800476c:	2204      	movs	r2, #4
 800476e:	64da      	str	r2, [r3, #76]	; 0x4c
 8004770:	4810      	ldr	r0, [pc, #64]	; (80047b4 <MX_ADC1_Init+0xc0>)
 8004772:	f7fc fd11 	bl	8001198 <HAL_ADC_Init>
 8004776:	4603      	mov	r3, r0
 8004778:	2b00      	cmp	r3, #0
 800477a:	d001      	beq.n	8004780 <MX_ADC1_Init+0x8c>
 800477c:	f000 f90c 	bl	8004998 <Error_Handler>
 8004780:	4b0e      	ldr	r3, [pc, #56]	; (80047bc <MX_ADC1_Init+0xc8>)
 8004782:	603b      	str	r3, [r7, #0]
 8004784:	2306      	movs	r3, #6
 8004786:	607b      	str	r3, [r7, #4]
 8004788:	2307      	movs	r3, #7
 800478a:	60bb      	str	r3, [r7, #8]
 800478c:	237f      	movs	r3, #127	; 0x7f
 800478e:	60fb      	str	r3, [r7, #12]
 8004790:	2304      	movs	r3, #4
 8004792:	613b      	str	r3, [r7, #16]
 8004794:	2300      	movs	r3, #0
 8004796:	617b      	str	r3, [r7, #20]
 8004798:	463b      	mov	r3, r7
 800479a:	4619      	mov	r1, r3
 800479c:	4805      	ldr	r0, [pc, #20]	; (80047b4 <MX_ADC1_Init+0xc0>)
 800479e:	f7fc ff79 	bl	8001694 <HAL_ADC_ConfigChannel>
 80047a2:	4603      	mov	r3, r0
 80047a4:	2b00      	cmp	r3, #0
 80047a6:	d001      	beq.n	80047ac <MX_ADC1_Init+0xb8>
 80047a8:	f000 f8f6 	bl	8004998 <Error_Handler>
 80047ac:	bf00      	nop
 80047ae:	3718      	adds	r7, #24
 80047b0:	46bd      	mov	sp, r7
 80047b2:	bd80      	pop	{r7, pc}
 80047b4:	2000123c 	.word	0x2000123c
 80047b8:	50040000 	.word	0x50040000
 80047bc:	c7520000 	.word	0xc7520000

080047c0 <MX_DAC1_Init>:
 80047c0:	b580      	push	{r7, lr}
 80047c2:	b08a      	sub	sp, #40	; 0x28
 80047c4:	af00      	add	r7, sp, #0
 80047c6:	463b      	mov	r3, r7
 80047c8:	2228      	movs	r2, #40	; 0x28
 80047ca:	2100      	movs	r1, #0
 80047cc:	4618      	mov	r0, r3
 80047ce:	f000 fac9 	bl	8004d64 <memset>
 80047d2:	4b19      	ldr	r3, [pc, #100]	; (8004838 <MX_DAC1_Init+0x78>)
 80047d4:	4a19      	ldr	r2, [pc, #100]	; (800483c <MX_DAC1_Init+0x7c>)
 80047d6:	601a      	str	r2, [r3, #0]
 80047d8:	4817      	ldr	r0, [pc, #92]	; (8004838 <MX_DAC1_Init+0x78>)
 80047da:	f7fd fdde 	bl	800239a <HAL_DAC_Init>
 80047de:	4603      	mov	r3, r0
 80047e0:	2b00      	cmp	r3, #0
 80047e2:	d001      	beq.n	80047e8 <MX_DAC1_Init+0x28>
 80047e4:	f000 f8d8 	bl	8004998 <Error_Handler>
 80047e8:	2300      	movs	r3, #0
 80047ea:	607b      	str	r3, [r7, #4]
 80047ec:	2300      	movs	r3, #0
 80047ee:	60bb      	str	r3, [r7, #8]
 80047f0:	f44f 4300 	mov.w	r3, #32768	; 0x8000
 80047f4:	603b      	str	r3, [r7, #0]
 80047f6:	2300      	movs	r3, #0
 80047f8:	60fb      	str	r3, [r7, #12]
 80047fa:	2300      	movs	r3, #0
 80047fc:	613b      	str	r3, [r7, #16]
 80047fe:	2300      	movs	r3, #0
 8004800:	617b      	str	r3, [r7, #20]
 8004802:	463b      	mov	r3, r7
 8004804:	2200      	movs	r2, #0
 8004806:	4619      	mov	r1, r3
 8004808:	480b      	ldr	r0, [pc, #44]	; (8004838 <MX_DAC1_Init+0x78>)
 800480a:	f7fd fe7d 	bl	8002508 <HAL_DAC_ConfigChannel>
 800480e:	4603      	mov	r3, r0
 8004810:	2b00      	cmp	r3, #0
 8004812:	d001      	beq.n	8004818 <MX_DAC1_Init+0x58>
 8004814:	f000 f8c0 	bl	8004998 <Error_Handler>
 8004818:	463b      	mov	r3, r7
 800481a:	2210      	movs	r2, #16
 800481c:	4619      	mov	r1, r3
 800481e:	4806      	ldr	r0, [pc, #24]	; (8004838 <MX_DAC1_Init+0x78>)
 8004820:	f7fd fe72 	bl	8002508 <HAL_DAC_ConfigChannel>
 8004824:	4603      	mov	r3, r0
 8004826:	2b00      	cmp	r3, #0
 8004828:	d001      	beq.n	800482e <MX_DAC1_Init+0x6e>
 800482a:	f000 f8b5 	bl	8004998 <Error_Handler>
 800482e:	bf00      	nop
 8004830:	3728      	adds	r7, #40	; 0x28
 8004832:	46bd      	mov	sp, r7
 8004834:	bd80      	pop	{r7, pc}
 8004836:	bf00      	nop
 8004838:	200012a4 	.word	0x200012a4
 800483c:	40007400 	.word	0x40007400

08004840 <MX_GPIO_Init>:
 8004840:	b580      	push	{r7, lr}
 8004842:	b088      	sub	sp, #32
 8004844:	af00      	add	r7, sp, #0
 8004846:	f107 030c 	add.w	r3, r7, #12
 800484a:	2200      	movs	r2, #0
 800484c:	601a      	str	r2, [r3, #0]
 800484e:	605a      	str	r2, [r3, #4]
 8004850:	609a      	str	r2, [r3, #8]
 8004852:	60da      	str	r2, [r3, #12]
 8004854:	611a      	str	r2, [r3, #16]
 8004856:	4b25      	ldr	r3, [pc, #148]	; (80048ec <MX_GPIO_Init+0xac>)
 8004858:	6cdb      	ldr	r3, [r3, #76]	; 0x4c
 800485a:	4a24      	ldr	r2, [pc, #144]	; (80048ec <MX_GPIO_Init+0xac>)
 800485c:	f043 0304 	orr.w	r3, r3, #4
 8004860:	64d3      	str	r3, [r2, #76]	; 0x4c
 8004862:	4b22      	ldr	r3, [pc, #136]	; (80048ec <MX_GPIO_Init+0xac>)
 8004864:	6cdb      	ldr	r3, [r3, #76]	; 0x4c
 8004866:	f003 0304 	and.w	r3, r3, #4
 800486a:	60bb      	str	r3, [r7, #8]
 800486c:	68bb      	ldr	r3, [r7, #8]
 800486e:	4b1f      	ldr	r3, [pc, #124]	; (80048ec <MX_GPIO_Init+0xac>)
 8004870:	6cdb      	ldr	r3, [r3, #76]	; 0x4c
 8004872:	4a1e      	ldr	r2, [pc, #120]	; (80048ec <MX_GPIO_Init+0xac>)
 8004874:	f043 0301 	orr.w	r3, r3, #1
 8004878:	64d3      	str	r3, [r2, #76]	; 0x4c
 800487a:	4b1c      	ldr	r3, [pc, #112]	; (80048ec <MX_GPIO_Init+0xac>)
 800487c:	6cdb      	ldr	r3, [r3, #76]	; 0x4c
 800487e:	f003 0301 	and.w	r3, r3, #1
 8004882:	607b      	str	r3, [r7, #4]
 8004884:	687b      	ldr	r3, [r7, #4]
 8004886:	4b19      	ldr	r3, [pc, #100]	; (80048ec <MX_GPIO_Init+0xac>)
 8004888:	6cdb      	ldr	r3, [r3, #76]	; 0x4c
 800488a:	4a18      	ldr	r2, [pc, #96]	; (80048ec <MX_GPIO_Init+0xac>)
 800488c:	f043 0302 	orr.w	r3, r3, #2
 8004890:	64d3      	str	r3, [r2, #76]	; 0x4c
 8004892:	4b16      	ldr	r3, [pc, #88]	; (80048ec <MX_GPIO_Init+0xac>)
 8004894:	6cdb      	ldr	r3, [r3, #76]	; 0x4c
 8004896:	f003 0302 	and.w	r3, r3, #2
 800489a:	603b      	str	r3, [r7, #0]
 800489c:	683b      	ldr	r3, [r7, #0]
 800489e:	2200      	movs	r2, #0
 80048a0:	f44f 4180 	mov.w	r1, #16384	; 0x4000
 80048a4:	4812      	ldr	r0, [pc, #72]	; (80048f0 <MX_GPIO_Init+0xb0>)
 80048a6:	f7fe f901 	bl	8002aac <HAL_GPIO_WritePin>
 80048aa:	f44f 5300 	mov.w	r3, #8192	; 0x2000
 80048ae:	60fb      	str	r3, [r7, #12]
 80048b0:	2300      	movs	r3, #0
 80048b2:	613b      	str	r3, [r7, #16]
 80048b4:	2300      	movs	r3, #0
 80048b6:	617b      	str	r3, [r7, #20]
 80048b8:	f107 030c 	add.w	r3, r7, #12
 80048bc:	4619      	mov	r1, r3
 80048be:	480d      	ldr	r0, [pc, #52]	; (80048f4 <MX_GPIO_Init+0xb4>)
 80048c0:	f7fd ff62 	bl	8002788 <HAL_GPIO_Init>
 80048c4:	f44f 4380 	mov.w	r3, #16384	; 0x4000
 80048c8:	60fb      	str	r3, [r7, #12]
 80048ca:	2301      	movs	r3, #1
 80048cc:	613b      	str	r3, [r7, #16]
 80048ce:	2300      	movs	r3, #0
 80048d0:	617b      	str	r3, [r7, #20]
 80048d2:	2300      	movs	r3, #0
 80048d4:	61bb      	str	r3, [r7, #24]
 80048d6:	f107 030c 	add.w	r3, r7, #12
 80048da:	4619      	mov	r1, r3
 80048dc:	4804      	ldr	r0, [pc, #16]	; (80048f0 <MX_GPIO_Init+0xb0>)
 80048de:	f7fd ff53 	bl	8002788 <HAL_GPIO_Init>
 80048e2:	bf00      	nop
 80048e4:	3720      	adds	r7, #32
 80048e6:	46bd      	mov	sp, r7
 80048e8:	bd80      	pop	{r7, pc}
 80048ea:	bf00      	nop
 80048ec:	40021000 	.word	0x40021000
 80048f0:	48000400 	.word	0x48000400
 80048f4:	48000800 	.word	0x48000800

080048f8 <configure_channels>:
 80048f8:	b580      	push	{r7, lr}
 80048fa:	b088      	sub	sp, #32
 80048fc:	af00      	add	r7, sp, #0
 80048fe:	6078      	str	r0, [r7, #4]
 8004900:	f107 0308 	add.w	r3, r7, #8
 8004904:	2200      	movs	r2, #0
 8004906:	601a      	str	r2, [r3, #0]
 8004908:	605a      	str	r2, [r3, #4]
 800490a:	609a      	str	r2, [r3, #8]
 800490c:	60da      	str	r2, [r3, #12]
 800490e:	611a      	str	r2, [r3, #16]
 8004910:	615a      	str	r2, [r3, #20]
 8004912:	687b      	ldr	r3, [r7, #4]
 8004914:	2b00      	cmp	r3, #0
 8004916:	d102      	bne.n	800491e <configure_channels+0x26>
 8004918:	4b0e      	ldr	r3, [pc, #56]	; (8004954 <configure_channels+0x5c>)
 800491a:	60bb      	str	r3, [r7, #8]
 800491c:	e001      	b.n	8004922 <configure_channels+0x2a>
 800491e:	4b0e      	ldr	r3, [pc, #56]	; (8004958 <configure_channels+0x60>)
 8004920:	60bb      	str	r3, [r7, #8]
 8004922:	2306      	movs	r3, #6
 8004924:	60fb      	str	r3, [r7, #12]
 8004926:	2307      	movs	r3, #7
 8004928:	613b      	str	r3, [r7, #16]
 800492a:	237f      	movs	r3, #127	; 0x7f
 800492c:	617b      	str	r3, [r7, #20]
 800492e:	2304      	movs	r3, #4
 8004930:	61bb      	str	r3, [r7, #24]
 8004932:	2300      	movs	r3, #0
 8004934:	61fb      	str	r3, [r7, #28]
 8004936:	f107 0308 	add.w	r3, r7, #8
 800493a:	4619      	mov	r1, r3
 800493c:	4807      	ldr	r0, [pc, #28]	; (800495c <configure_channels+0x64>)
 800493e:	f7fc fea9 	bl	8001694 <HAL_ADC_ConfigChannel>
 8004942:	4603      	mov	r3, r0
 8004944:	2b00      	cmp	r3, #0
 8004946:	d001      	beq.n	800494c <configure_channels+0x54>
 8004948:	f000 f826 	bl	8004998 <Error_Handler>
 800494c:	bf00      	nop
 800494e:	3720      	adds	r7, #32
 8004950:	46bd      	mov	sp, r7
 8004952:	bd80      	pop	{r7, pc}
 8004954:	80000001 	.word	0x80000001
 8004958:	c7520000 	.word	0xc7520000
 800495c:	2000123c 	.word	0x2000123c

08004960 <_write>:
 8004960:	b580      	push	{r7, lr}
 8004962:	b086      	sub	sp, #24
 8004964:	af00      	add	r7, sp, #0
 8004966:	60f8      	str	r0, [r7, #12]
 8004968:	60b9      	str	r1, [r7, #8]
 800496a:	607a      	str	r2, [r7, #4]
 800496c:	2300      	movs	r3, #0
 800496e:	617b      	str	r3, [r7, #20]
 8004970:	e009      	b.n	8004986 <_write+0x26>
 8004972:	68bb      	ldr	r3, [r7, #8]
 8004974:	1c5a      	adds	r2, r3, #1
 8004976:	60ba      	str	r2, [r7, #8]
 8004978:	781b      	ldrb	r3, [r3, #0]
 800497a:	4618      	mov	r0, r3
 800497c:	f7ff fd36 	bl	80043ec <ITM_SendChar>
 8004980:	697b      	ldr	r3, [r7, #20]
 8004982:	3301      	adds	r3, #1
 8004984:	617b      	str	r3, [r7, #20]
 8004986:	697a      	ldr	r2, [r7, #20]
 8004988:	687b      	ldr	r3, [r7, #4]
 800498a:	429a      	cmp	r2, r3
 800498c:	dbf1      	blt.n	8004972 <_write+0x12>
 800498e:	687b      	ldr	r3, [r7, #4]
 8004990:	4618      	mov	r0, r3
 8004992:	3718      	adds	r7, #24
 8004994:	46bd      	mov	sp, r7
 8004996:	bd80      	pop	{r7, pc}

08004998 <Error_Handler>:
 8004998:	b480      	push	{r7}
 800499a:	af00      	add	r7, sp, #0
 800499c:	b672      	cpsid	i
 800499e:	bf00      	nop
 80049a0:	e7fe      	b.n	80049a0 <Error_Handler+0x8>
	...

080049a4 <HAL_MspInit>:
 80049a4:	b480      	push	{r7}
 80049a6:	b083      	sub	sp, #12
 80049a8:	af00      	add	r7, sp, #0
 80049aa:	4b0f      	ldr	r3, [pc, #60]	; (80049e8 <HAL_MspInit+0x44>)
 80049ac:	6e1b      	ldr	r3, [r3, #96]	; 0x60
 80049ae:	4a0e      	ldr	r2, [pc, #56]	; (80049e8 <HAL_MspInit+0x44>)
 80049b0:	f043 0301 	orr.w	r3, r3, #1
 80049b4:	6613      	str	r3, [r2, #96]	; 0x60
 80049b6:	4b0c      	ldr	r3, [pc, #48]	; (80049e8 <HAL_MspInit+0x44>)
 80049b8:	6e1b      	ldr	r3, [r3, #96]	; 0x60
 80049ba:	f003 0301 	and.w	r3, r3, #1
 80049be:	607b      	str	r3, [r7, #4]
 80049c0:	687b      	ldr	r3, [r7, #4]
 80049c2:	4b09      	ldr	r3, [pc, #36]	; (80049e8 <HAL_MspInit+0x44>)
 80049c4:	6d9b      	ldr	r3, [r3, #88]	; 0x58
 80049c6:	4a08      	ldr	r2, [pc, #32]	; (80049e8 <HAL_MspInit+0x44>)
 80049c8:	f043 5380 	orr.w	r3, r3, #268435456	; 0x10000000
 80049cc:	6593      	str	r3, [r2, #88]	; 0x58
 80049ce:	4b06      	ldr	r3, [pc, #24]	; (80049e8 <HAL_MspInit+0x44>)
 80049d0:	6d9b      	ldr	r3, [r3, #88]	; 0x58
 80049d2:	f003 5380 	and.w	r3, r3, #268435456	; 0x10000000
 80049d6:	603b      	str	r3, [r7, #0]
 80049d8:	683b      	ldr	r3, [r7, #0]
 80049da:	bf00      	nop
 80049dc:	370c      	adds	r7, #12
 80049de:	46bd      	mov	sp, r7
 80049e0:	f85d 7b04 	ldr.w	r7, [sp], #4
 80049e4:	4770      	bx	lr
 80049e6:	bf00      	nop
 80049e8:	40021000 	.word	0x40021000

080049ec <HAL_ADC_MspInit>:
 80049ec:	b580      	push	{r7, lr}
 80049ee:	b0a8      	sub	sp, #160	; 0xa0
 80049f0:	af00      	add	r7, sp, #0
 80049f2:	6078      	str	r0, [r7, #4]
 80049f4:	f107 030c 	add.w	r3, r7, #12
 80049f8:	2294      	movs	r2, #148	; 0x94
 80049fa:	2100      	movs	r1, #0
 80049fc:	4618      	mov	r0, r3
 80049fe:	f000 f9b1 	bl	8004d64 <memset>
 8004a02:	687b      	ldr	r3, [r7, #4]
 8004a04:	681b      	ldr	r3, [r3, #0]
 8004a06:	4a19      	ldr	r2, [pc, #100]	; (8004a6c <HAL_ADC_MspInit+0x80>)
 8004a08:	4293      	cmp	r3, r2
 8004a0a:	d12b      	bne.n	8004a64 <HAL_ADC_MspInit+0x78>
 8004a0c:	f44f 4380 	mov.w	r3, #16384	; 0x4000
 8004a10:	60fb      	str	r3, [r7, #12]
 8004a12:	f04f 5380 	mov.w	r3, #268435456	; 0x10000000
 8004a16:	f8c7 308c 	str.w	r3, [r7, #140]	; 0x8c
 8004a1a:	2301      	movs	r3, #1
 8004a1c:	613b      	str	r3, [r7, #16]
 8004a1e:	2301      	movs	r3, #1
 8004a20:	617b      	str	r3, [r7, #20]
 8004a22:	2318      	movs	r3, #24
 8004a24:	61bb      	str	r3, [r7, #24]
 8004a26:	2302      	movs	r3, #2
 8004a28:	61fb      	str	r3, [r7, #28]
 8004a2a:	2302      	movs	r3, #2
 8004a2c:	623b      	str	r3, [r7, #32]
 8004a2e:	2302      	movs	r3, #2
 8004a30:	627b      	str	r3, [r7, #36]	; 0x24
 8004a32:	f04f 7380 	mov.w	r3, #16777216	; 0x1000000
 8004a36:	62bb      	str	r3, [r7, #40]	; 0x28
 8004a38:	f107 030c 	add.w	r3, r7, #12
 8004a3c:	4618      	mov	r0, r3
 8004a3e:	f7fe ffbd 	bl	80039bc <HAL_RCCEx_PeriphCLKConfig>
 8004a42:	4603      	mov	r3, r0
 8004a44:	2b00      	cmp	r3, #0
 8004a46:	d001      	beq.n	8004a4c <HAL_ADC_MspInit+0x60>
 8004a48:	f7ff ffa6 	bl	8004998 <Error_Handler>
 8004a4c:	4b08      	ldr	r3, [pc, #32]	; (8004a70 <HAL_ADC_MspInit+0x84>)
 8004a4e:	6cdb      	ldr	r3, [r3, #76]	; 0x4c
 8004a50:	4a07      	ldr	r2, [pc, #28]	; (8004a70 <HAL_ADC_MspInit+0x84>)
 8004a52:	f443 5300 	orr.w	r3, r3, #8192	; 0x2000
 8004a56:	64d3      	str	r3, [r2, #76]	; 0x4c
 8004a58:	4b05      	ldr	r3, [pc, #20]	; (8004a70 <HAL_ADC_MspInit+0x84>)
 8004a5a:	6cdb      	ldr	r3, [r3, #76]	; 0x4c
 8004a5c:	f403 5300 	and.w	r3, r3, #8192	; 0x2000
 8004a60:	60bb      	str	r3, [r7, #8]
 8004a62:	68bb      	ldr	r3, [r7, #8]
 8004a64:	bf00      	nop
 8004a66:	37a0      	adds	r7, #160	; 0xa0
 8004a68:	46bd      	mov	sp, r7
 8004a6a:	bd80      	pop	{r7, pc}
 8004a6c:	50040000 	.word	0x50040000
 8004a70:	40021000 	.word	0x40021000

08004a74 <HAL_DAC_MspInit>:
 8004a74:	b580      	push	{r7, lr}
 8004a76:	b08a      	sub	sp, #40	; 0x28
 8004a78:	af00      	add	r7, sp, #0
 8004a7a:	6078      	str	r0, [r7, #4]
 8004a7c:	f107 0314 	add.w	r3, r7, #20
 8004a80:	2200      	movs	r2, #0
 8004a82:	601a      	str	r2, [r3, #0]
 8004a84:	605a      	str	r2, [r3, #4]
 8004a86:	609a      	str	r2, [r3, #8]
 8004a88:	60da      	str	r2, [r3, #12]
 8004a8a:	611a      	str	r2, [r3, #16]
 8004a8c:	687b      	ldr	r3, [r7, #4]
 8004a8e:	681b      	ldr	r3, [r3, #0]
 8004a90:	4a15      	ldr	r2, [pc, #84]	; (8004ae8 <HAL_DAC_MspInit+0x74>)
 8004a92:	4293      	cmp	r3, r2
 8004a94:	d124      	bne.n	8004ae0 <HAL_DAC_MspInit+0x6c>
 8004a96:	4b15      	ldr	r3, [pc, #84]	; (8004aec <HAL_DAC_MspInit+0x78>)
 8004a98:	6d9b      	ldr	r3, [r3, #88]	; 0x58
 8004a9a:	4a14      	ldr	r2, [pc, #80]	; (8004aec <HAL_DAC_MspInit+0x78>)
 8004a9c:	f043 5300 	orr.w	r3, r3, #536870912	; 0x20000000
 8004aa0:	6593      	str	r3, [r2, #88]	; 0x58
 8004aa2:	4b12      	ldr	r3, [pc, #72]	; (8004aec <HAL_DAC_MspInit+0x78>)
 8004aa4:	6d9b      	ldr	r3, [r3, #88]	; 0x58
 8004aa6:	f003 5300 	and.w	r3, r3, #536870912	; 0x20000000
 8004aaa:	613b      	str	r3, [r7, #16]
 8004aac:	693b      	ldr	r3, [r7, #16]
 8004aae:	4b0f      	ldr	r3, [pc, #60]	; (8004aec <HAL_DAC_MspInit+0x78>)
 8004ab0:	6cdb      	ldr	r3, [r3, #76]	; 0x4c
 8004ab2:	4a0e      	ldr	r2, [pc, #56]	; (8004aec <HAL_DAC_MspInit+0x78>)
 8004ab4:	f043 0301 	orr.w	r3, r3, #1
 8004ab8:	64d3      	str	r3, [r2, #76]	; 0x4c
 8004aba:	4b0c      	ldr	r3, [pc, #48]	; (8004aec <HAL_DAC_MspInit+0x78>)
 8004abc:	6cdb      	ldr	r3, [r3, #76]	; 0x4c
 8004abe:	f003 0301 	and.w	r3, r3, #1
 8004ac2:	60fb      	str	r3, [r7, #12]
 8004ac4:	68fb      	ldr	r3, [r7, #12]
 8004ac6:	2330      	movs	r3, #48	; 0x30
 8004ac8:	617b      	str	r3, [r7, #20]
 8004aca:	2303      	movs	r3, #3
 8004acc:	61bb      	str	r3, [r7, #24]
 8004ace:	2300      	movs	r3, #0
 8004ad0:	61fb      	str	r3, [r7, #28]
 8004ad2:	f107 0314 	add.w	r3, r7, #20
 8004ad6:	4619      	mov	r1, r3
 8004ad8:	f04f 4090 	mov.w	r0, #1207959552	; 0x48000000
 8004adc:	f7fd fe54 	bl	8002788 <HAL_GPIO_Init>
 8004ae0:	bf00      	nop
 8004ae2:	3728      	adds	r7, #40	; 0x28
 8004ae4:	46bd      	mov	sp, r7
 8004ae6:	bd80      	pop	{r7, pc}
 8004ae8:	40007400 	.word	0x40007400
 8004aec:	40021000 	.word	0x40021000

08004af0 <NMI_Handler>:
 8004af0:	b480      	push	{r7}
 8004af2:	af00      	add	r7, sp, #0
 8004af4:	e7fe      	b.n	8004af4 <NMI_Handler+0x4>

08004af6 <HardFault_Handler>:
 8004af6:	b480      	push	{r7}
 8004af8:	af00      	add	r7, sp, #0
 8004afa:	e7fe      	b.n	8004afa <HardFault_Handler+0x4>

08004afc <MemManage_Handler>:
 8004afc:	b480      	push	{r7}
 8004afe:	af00      	add	r7, sp, #0
 8004b00:	e7fe      	b.n	8004b00 <MemManage_Handler+0x4>

08004b02 <BusFault_Handler>:
 8004b02:	b480      	push	{r7}
 8004b04:	af00      	add	r7, sp, #0
 8004b06:	e7fe      	b.n	8004b06 <BusFault_Handler+0x4>

08004b08 <UsageFault_Handler>:
 8004b08:	b480      	push	{r7}
 8004b0a:	af00      	add	r7, sp, #0
 8004b0c:	e7fe      	b.n	8004b0c <UsageFault_Handler+0x4>

08004b0e <SVC_Handler>:
 8004b0e:	b480      	push	{r7}
 8004b10:	af00      	add	r7, sp, #0
 8004b12:	bf00      	nop
 8004b14:	46bd      	mov	sp, r7
 8004b16:	f85d 7b04 	ldr.w	r7, [sp], #4
 8004b1a:	4770      	bx	lr

08004b1c <DebugMon_Handler>:
 8004b1c:	b480      	push	{r7}
 8004b1e:	af00      	add	r7, sp, #0
 8004b20:	bf00      	nop
 8004b22:	46bd      	mov	sp, r7
 8004b24:	f85d 7b04 	ldr.w	r7, [sp], #4
 8004b28:	4770      	bx	lr

08004b2a <PendSV_Handler>:
 8004b2a:	b480      	push	{r7}
 8004b2c:	af00      	add	r7, sp, #0
 8004b2e:	bf00      	nop
 8004b30:	46bd      	mov	sp, r7
 8004b32:	f85d 7b04 	ldr.w	r7, [sp], #4
 8004b36:	4770      	bx	lr

08004b38 <SysTick_Handler>:
 8004b38:	b580      	push	{r7, lr}
 8004b3a:	af00      	add	r7, sp, #0
 8004b3c:	f7fc f8c0 	bl	8000cc0 <HAL_IncTick>
 8004b40:	bf00      	nop
 8004b42:	bd80      	pop	{r7, pc}

08004b44 <_getpid>:
 8004b44:	b480      	push	{r7}
 8004b46:	af00      	add	r7, sp, #0
 8004b48:	2301      	movs	r3, #1
 8004b4a:	4618      	mov	r0, r3
 8004b4c:	46bd      	mov	sp, r7
 8004b4e:	f85d 7b04 	ldr.w	r7, [sp], #4
 8004b52:	4770      	bx	lr

08004b54 <_kill>:
 8004b54:	b580      	push	{r7, lr}
 8004b56:	b082      	sub	sp, #8
 8004b58:	af00      	add	r7, sp, #0
 8004b5a:	6078      	str	r0, [r7, #4]
 8004b5c:	6039      	str	r1, [r7, #0]
 8004b5e:	f000 f8d7 	bl	8004d10 <__errno>
 8004b62:	4603      	mov	r3, r0
 8004b64:	2216      	movs	r2, #22
 8004b66:	601a      	str	r2, [r3, #0]
 8004b68:	f04f 33ff 	mov.w	r3, #4294967295
 8004b6c:	4618      	mov	r0, r3
 8004b6e:	3708      	adds	r7, #8
 8004b70:	46bd      	mov	sp, r7
 8004b72:	bd80      	pop	{r7, pc}

08004b74 <_exit>:
 8004b74:	b580      	push	{r7, lr}
 8004b76:	b082      	sub	sp, #8
 8004b78:	af00      	add	r7, sp, #0
 8004b7a:	6078      	str	r0, [r7, #4]
 8004b7c:	f04f 31ff 	mov.w	r1, #4294967295
 8004b80:	6878      	ldr	r0, [r7, #4]
 8004b82:	f7ff ffe7 	bl	8004b54 <_kill>
 8004b86:	e7fe      	b.n	8004b86 <_exit+0x12>

08004b88 <_read>:
 8004b88:	b580      	push	{r7, lr}
 8004b8a:	b086      	sub	sp, #24
 8004b8c:	af00      	add	r7, sp, #0
 8004b8e:	60f8      	str	r0, [r7, #12]
 8004b90:	60b9      	str	r1, [r7, #8]
 8004b92:	607a      	str	r2, [r7, #4]
 8004b94:	2300      	movs	r3, #0
 8004b96:	617b      	str	r3, [r7, #20]
 8004b98:	e00a      	b.n	8004bb0 <_read+0x28>
 8004b9a:	f3af 8000 	nop.w
 8004b9e:	4601      	mov	r1, r0
 8004ba0:	68bb      	ldr	r3, [r7, #8]
 8004ba2:	1c5a      	adds	r2, r3, #1
 8004ba4:	60ba      	str	r2, [r7, #8]
 8004ba6:	b2ca      	uxtb	r2, r1
 8004ba8:	701a      	strb	r2, [r3, #0]
 8004baa:	697b      	ldr	r3, [r7, #20]
 8004bac:	3301      	adds	r3, #1
 8004bae:	617b      	str	r3, [r7, #20]
 8004bb0:	697a      	ldr	r2, [r7, #20]
 8004bb2:	687b      	ldr	r3, [r7, #4]
 8004bb4:	429a      	cmp	r2, r3
 8004bb6:	dbf0      	blt.n	8004b9a <_read+0x12>
 8004bb8:	687b      	ldr	r3, [r7, #4]
 8004bba:	4618      	mov	r0, r3
 8004bbc:	3718      	adds	r7, #24
 8004bbe:	46bd      	mov	sp, r7
 8004bc0:	bd80      	pop	{r7, pc}

08004bc2 <_close>:
 8004bc2:	b480      	push	{r7}
 8004bc4:	b083      	sub	sp, #12
 8004bc6:	af00      	add	r7, sp, #0
 8004bc8:	6078      	str	r0, [r7, #4]
 8004bca:	f04f 33ff 	mov.w	r3, #4294967295
 8004bce:	4618      	mov	r0, r3
 8004bd0:	370c      	adds	r7, #12
 8004bd2:	46bd      	mov	sp, r7
 8004bd4:	f85d 7b04 	ldr.w	r7, [sp], #4
 8004bd8:	4770      	bx	lr

08004bda <_fstat>:
 8004bda:	b480      	push	{r7}
 8004bdc:	b083      	sub	sp, #12
 8004bde:	af00      	add	r7, sp, #0
 8004be0:	6078      	str	r0, [r7, #4]
 8004be2:	6039      	str	r1, [r7, #0]
 8004be4:	683b      	ldr	r3, [r7, #0]
 8004be6:	f44f 5200 	mov.w	r2, #8192	; 0x2000
 8004bea:	605a      	str	r2, [r3, #4]
 8004bec:	2300      	movs	r3, #0
 8004bee:	4618      	mov	r0, r3
 8004bf0:	370c      	adds	r7, #12
 8004bf2:	46bd      	mov	sp, r7
 8004bf4:	f85d 7b04 	ldr.w	r7, [sp], #4
 8004bf8:	4770      	bx	lr

08004bfa <_isatty>:
 8004bfa:	b480      	push	{r7}
 8004bfc:	b083      	sub	sp, #12
 8004bfe:	af00      	add	r7, sp, #0
 8004c00:	6078      	str	r0, [r7, #4]
 8004c02:	2301      	movs	r3, #1
 8004c04:	4618      	mov	r0, r3
 8004c06:	370c      	adds	r7, #12
 8004c08:	46bd      	mov	sp, r7
 8004c0a:	f85d 7b04 	ldr.w	r7, [sp], #4
 8004c0e:	4770      	bx	lr

08004c10 <_lseek>:
 8004c10:	b480      	push	{r7}
 8004c12:	b085      	sub	sp, #20
 8004c14:	af00      	add	r7, sp, #0
 8004c16:	60f8      	str	r0, [r7, #12]
 8004c18:	60b9      	str	r1, [r7, #8]
 8004c1a:	607a      	str	r2, [r7, #4]
 8004c1c:	2300      	movs	r3, #0
 8004c1e:	4618      	mov	r0, r3
 8004c20:	3714      	adds	r7, #20
 8004c22:	46bd      	mov	sp, r7
 8004c24:	f85d 7b04 	ldr.w	r7, [sp], #4
 8004c28:	4770      	bx	lr
	...

08004c2c <_sbrk>:
 8004c2c:	b580      	push	{r7, lr}
 8004c2e:	b086      	sub	sp, #24
 8004c30:	af00      	add	r7, sp, #0
 8004c32:	6078      	str	r0, [r7, #4]
 8004c34:	4a14      	ldr	r2, [pc, #80]	; (8004c88 <_sbrk+0x5c>)
 8004c36:	4b15      	ldr	r3, [pc, #84]	; (8004c8c <_sbrk+0x60>)
 8004c38:	1ad3      	subs	r3, r2, r3
 8004c3a:	617b      	str	r3, [r7, #20]
 8004c3c:	697b      	ldr	r3, [r7, #20]
 8004c3e:	613b      	str	r3, [r7, #16]
 8004c40:	4b13      	ldr	r3, [pc, #76]	; (8004c90 <_sbrk+0x64>)
 8004c42:	681b      	ldr	r3, [r3, #0]
 8004c44:	2b00      	cmp	r3, #0
 8004c46:	d102      	bne.n	8004c4e <_sbrk+0x22>
 8004c48:	4b11      	ldr	r3, [pc, #68]	; (8004c90 <_sbrk+0x64>)
 8004c4a:	4a12      	ldr	r2, [pc, #72]	; (8004c94 <_sbrk+0x68>)
 8004c4c:	601a      	str	r2, [r3, #0]
 8004c4e:	4b10      	ldr	r3, [pc, #64]	; (8004c90 <_sbrk+0x64>)
 8004c50:	681a      	ldr	r2, [r3, #0]
 8004c52:	687b      	ldr	r3, [r7, #4]
 8004c54:	4413      	add	r3, r2
 8004c56:	693a      	ldr	r2, [r7, #16]
 8004c58:	429a      	cmp	r2, r3
 8004c5a:	d207      	bcs.n	8004c6c <_sbrk+0x40>
 8004c5c:	f000 f858 	bl	8004d10 <__errno>
 8004c60:	4603      	mov	r3, r0
 8004c62:	220c      	movs	r2, #12
 8004c64:	601a      	str	r2, [r3, #0]
 8004c66:	f04f 33ff 	mov.w	r3, #4294967295
 8004c6a:	e009      	b.n	8004c80 <_sbrk+0x54>
 8004c6c:	4b08      	ldr	r3, [pc, #32]	; (8004c90 <_sbrk+0x64>)
 8004c6e:	681b      	ldr	r3, [r3, #0]
 8004c70:	60fb      	str	r3, [r7, #12]
 8004c72:	4b07      	ldr	r3, [pc, #28]	; (8004c90 <_sbrk+0x64>)
 8004c74:	681a      	ldr	r2, [r3, #0]
 8004c76:	687b      	ldr	r3, [r7, #4]
 8004c78:	4413      	add	r3, r2
 8004c7a:	4a05      	ldr	r2, [pc, #20]	; (8004c90 <_sbrk+0x64>)
 8004c7c:	6013      	str	r3, [r2, #0]
 8004c7e:	68fb      	ldr	r3, [r7, #12]
 8004c80:	4618      	mov	r0, r3
 8004c82:	3718      	adds	r7, #24
 8004c84:	46bd      	mov	sp, r7
 8004c86:	bd80      	pop	{r7, pc}
 8004c88:	200a0000 	.word	0x200a0000
 8004c8c:	00000400 	.word	0x00000400
 8004c90:	200012c0 	.word	0x200012c0
 8004c94:	200012d8 	.word	0x200012d8

08004c98 <SystemInit>:
 8004c98:	b480      	push	{r7}
 8004c9a:	af00      	add	r7, sp, #0
 8004c9c:	4b06      	ldr	r3, [pc, #24]	; (8004cb8 <SystemInit+0x20>)
 8004c9e:	f8d3 3088 	ldr.w	r3, [r3, #136]	; 0x88
 8004ca2:	4a05      	ldr	r2, [pc, #20]	; (8004cb8 <SystemInit+0x20>)
 8004ca4:	f443 0370 	orr.w	r3, r3, #15728640	; 0xf00000
 8004ca8:	f8c2 3088 	str.w	r3, [r2, #136]	; 0x88
 8004cac:	bf00      	nop
 8004cae:	46bd      	mov	sp, r7
 8004cb0:	f85d 7b04 	ldr.w	r7, [sp], #4
 8004cb4:	4770      	bx	lr
 8004cb6:	bf00      	nop
 8004cb8:	e000ed00 	.word	0xe000ed00

08004cbc <Reset_Handler>:
 8004cbc:	f8df d034 	ldr.w	sp, [pc, #52]	; 8004cf4 <LoopForever+0x2>
 8004cc0:	f7ff ffea 	bl	8004c98 <SystemInit>
 8004cc4:	480c      	ldr	r0, [pc, #48]	; (8004cf8 <LoopForever+0x6>)
 8004cc6:	490d      	ldr	r1, [pc, #52]	; (8004cfc <LoopForever+0xa>)
 8004cc8:	4a0d      	ldr	r2, [pc, #52]	; (8004d00 <LoopForever+0xe>)
 8004cca:	2300      	movs	r3, #0
 8004ccc:	e002      	b.n	8004cd4 <LoopCopyDataInit>

08004cce <CopyDataInit>:
 8004cce:	58d4      	ldr	r4, [r2, r3]
 8004cd0:	50c4      	str	r4, [r0, r3]
 8004cd2:	3304      	adds	r3, #4

08004cd4 <LoopCopyDataInit>:
 8004cd4:	18c4      	adds	r4, r0, r3
 8004cd6:	428c      	cmp	r4, r1
 8004cd8:	d3f9      	bcc.n	8004cce <CopyDataInit>
 8004cda:	4a0a      	ldr	r2, [pc, #40]	; (8004d04 <LoopForever+0x12>)
 8004cdc:	4c0a      	ldr	r4, [pc, #40]	; (8004d08 <LoopForever+0x16>)
 8004cde:	2300      	movs	r3, #0
 8004ce0:	e001      	b.n	8004ce6 <LoopFillZerobss>

08004ce2 <FillZerobss>:
 8004ce2:	6013      	str	r3, [r2, #0]
 8004ce4:	3204      	adds	r2, #4

08004ce6 <LoopFillZerobss>:
 8004ce6:	42a2      	cmp	r2, r4
 8004ce8:	d3fb      	bcc.n	8004ce2 <FillZerobss>
 8004cea:	f000 f817 	bl	8004d1c <__libc_init_array>
 8004cee:	f7ff fba7 	bl	8004440 <main>

08004cf2 <LoopForever>:
 8004cf2:	e7fe      	b.n	8004cf2 <LoopForever>
 8004cf4:	200a0000 	.word	0x200a0000
 8004cf8:	20000000 	.word	0x20000000
 8004cfc:	2000121c 	.word	0x2000121c
 8004d00:	08008a48 	.word	0x08008a48
 8004d04:	2000121c 	.word	0x2000121c
 8004d08:	200012d4 	.word	0x200012d4

08004d0c <ADC1_IRQHandler>:
 8004d0c:	e7fe      	b.n	8004d0c <ADC1_IRQHandler>
	...

08004d10 <__errno>:
 8004d10:	4b01      	ldr	r3, [pc, #4]	; (8004d18 <__errno+0x8>)
 8004d12:	6818      	ldr	r0, [r3, #0]
 8004d14:	4770      	bx	lr
 8004d16:	bf00      	nop
 8004d18:	2000104c 	.word	0x2000104c

08004d1c <__libc_init_array>:
 8004d1c:	b570      	push	{r4, r5, r6, lr}
 8004d1e:	4d0d      	ldr	r5, [pc, #52]	; (8004d54 <__libc_init_array+0x38>)
 8004d20:	4c0d      	ldr	r4, [pc, #52]	; (8004d58 <__libc_init_array+0x3c>)
 8004d22:	1b64      	subs	r4, r4, r5
 8004d24:	10a4      	asrs	r4, r4, #2
 8004d26:	2600      	movs	r6, #0
 8004d28:	42a6      	cmp	r6, r4
 8004d2a:	d109      	bne.n	8004d40 <__libc_init_array+0x24>
 8004d2c:	4d0b      	ldr	r5, [pc, #44]	; (8004d5c <__libc_init_array+0x40>)
 8004d2e:	4c0c      	ldr	r4, [pc, #48]	; (8004d60 <__libc_init_array+0x44>)
 8004d30:	f003 fc50 	bl	80085d4 <_init>
 8004d34:	1b64      	subs	r4, r4, r5
 8004d36:	10a4      	asrs	r4, r4, #2
 8004d38:	2600      	movs	r6, #0
 8004d3a:	42a6      	cmp	r6, r4
 8004d3c:	d105      	bne.n	8004d4a <__libc_init_array+0x2e>
 8004d3e:	bd70      	pop	{r4, r5, r6, pc}
 8004d40:	f855 3b04 	ldr.w	r3, [r5], #4
 8004d44:	4798      	blx	r3
 8004d46:	3601      	adds	r6, #1
 8004d48:	e7ee      	b.n	8004d28 <__libc_init_array+0xc>
 8004d4a:	f855 3b04 	ldr.w	r3, [r5], #4
 8004d4e:	4798      	blx	r3
 8004d50:	3601      	adds	r6, #1
 8004d52:	e7f2      	b.n	8004d3a <__libc_init_array+0x1e>
 8004d54:	08008a40 	.word	0x08008a40
 8004d58:	08008a40 	.word	0x08008a40
 8004d5c:	08008a40 	.word	0x08008a40
 8004d60:	08008a44 	.word	0x08008a44

08004d64 <memset>:
 8004d64:	4402      	add	r2, r0
 8004d66:	4603      	mov	r3, r0
 8004d68:	4293      	cmp	r3, r2
 8004d6a:	d100      	bne.n	8004d6e <memset+0xa>
 8004d6c:	4770      	bx	lr
 8004d6e:	f803 1b01 	strb.w	r1, [r3], #1
 8004d72:	e7f9      	b.n	8004d68 <memset+0x4>

08004d74 <__cvt>:
 8004d74:	e92d 47ff 	stmdb	sp!, {r0, r1, r2, r3, r4, r5, r6, r7, r8, r9, sl, lr}
 8004d78:	ec55 4b10 	vmov	r4, r5, d0
 8004d7c:	2d00      	cmp	r5, #0
 8004d7e:	460e      	mov	r6, r1
 8004d80:	4619      	mov	r1, r3
 8004d82:	462b      	mov	r3, r5
 8004d84:	bfbb      	ittet	lt
 8004d86:	f105 4300 	addlt.w	r3, r5, #2147483648	; 0x80000000
 8004d8a:	461d      	movlt	r5, r3
 8004d8c:	2300      	movge	r3, #0
 8004d8e:	232d      	movlt	r3, #45	; 0x2d
 8004d90:	700b      	strb	r3, [r1, #0]
 8004d92:	9b0d      	ldr	r3, [sp, #52]	; 0x34
 8004d94:	f8dd a030 	ldr.w	sl, [sp, #48]	; 0x30
 8004d98:	4691      	mov	r9, r2
 8004d9a:	f023 0820 	bic.w	r8, r3, #32
 8004d9e:	bfbc      	itt	lt
 8004da0:	4622      	movlt	r2, r4
 8004da2:	4614      	movlt	r4, r2
 8004da4:	f1b8 0f46 	cmp.w	r8, #70	; 0x46
 8004da8:	d005      	beq.n	8004db6 <__cvt+0x42>
 8004daa:	f1b8 0f45 	cmp.w	r8, #69	; 0x45
 8004dae:	d100      	bne.n	8004db2 <__cvt+0x3e>
 8004db0:	3601      	adds	r6, #1
 8004db2:	2102      	movs	r1, #2
 8004db4:	e000      	b.n	8004db8 <__cvt+0x44>
 8004db6:	2103      	movs	r1, #3
 8004db8:	ab03      	add	r3, sp, #12
 8004dba:	9301      	str	r3, [sp, #4]
 8004dbc:	ab02      	add	r3, sp, #8
 8004dbe:	9300      	str	r3, [sp, #0]
 8004dc0:	ec45 4b10 	vmov	d0, r4, r5
 8004dc4:	4653      	mov	r3, sl
 8004dc6:	4632      	mov	r2, r6
 8004dc8:	f000 fcca 	bl	8005760 <_dtoa_r>
 8004dcc:	f1b8 0f47 	cmp.w	r8, #71	; 0x47
 8004dd0:	4607      	mov	r7, r0
 8004dd2:	d102      	bne.n	8004dda <__cvt+0x66>
 8004dd4:	f019 0f01 	tst.w	r9, #1
 8004dd8:	d022      	beq.n	8004e20 <__cvt+0xac>
 8004dda:	f1b8 0f46 	cmp.w	r8, #70	; 0x46
 8004dde:	eb07 0906 	add.w	r9, r7, r6
 8004de2:	d110      	bne.n	8004e06 <__cvt+0x92>
 8004de4:	783b      	ldrb	r3, [r7, #0]
 8004de6:	2b30      	cmp	r3, #48	; 0x30
 8004de8:	d10a      	bne.n	8004e00 <__cvt+0x8c>
 8004dea:	2200      	movs	r2, #0
 8004dec:	2300      	movs	r3, #0
 8004dee:	4620      	mov	r0, r4
 8004df0:	4629      	mov	r1, r5
 8004df2:	f7fb fe81 	bl	8000af8 <__aeabi_dcmpeq>
 8004df6:	b918      	cbnz	r0, 8004e00 <__cvt+0x8c>
 8004df8:	f1c6 0601 	rsb	r6, r6, #1
 8004dfc:	f8ca 6000 	str.w	r6, [sl]
 8004e00:	f8da 3000 	ldr.w	r3, [sl]
 8004e04:	4499      	add	r9, r3
 8004e06:	2200      	movs	r2, #0
 8004e08:	2300      	movs	r3, #0
 8004e0a:	4620      	mov	r0, r4
 8004e0c:	4629      	mov	r1, r5
 8004e0e:	f7fb fe73 	bl	8000af8 <__aeabi_dcmpeq>
 8004e12:	b108      	cbz	r0, 8004e18 <__cvt+0xa4>
 8004e14:	f8cd 900c 	str.w	r9, [sp, #12]
 8004e18:	2230      	movs	r2, #48	; 0x30
 8004e1a:	9b03      	ldr	r3, [sp, #12]
 8004e1c:	454b      	cmp	r3, r9
 8004e1e:	d307      	bcc.n	8004e30 <__cvt+0xbc>
 8004e20:	9b03      	ldr	r3, [sp, #12]
 8004e22:	9a0e      	ldr	r2, [sp, #56]	; 0x38
 8004e24:	1bdb      	subs	r3, r3, r7
 8004e26:	4638      	mov	r0, r7
 8004e28:	6013      	str	r3, [r2, #0]
 8004e2a:	b004      	add	sp, #16
 8004e2c:	e8bd 87f0 	ldmia.w	sp!, {r4, r5, r6, r7, r8, r9, sl, pc}
 8004e30:	1c59      	adds	r1, r3, #1
 8004e32:	9103      	str	r1, [sp, #12]
 8004e34:	701a      	strb	r2, [r3, #0]
 8004e36:	e7f0      	b.n	8004e1a <__cvt+0xa6>

08004e38 <__exponent>:
 8004e38:	b5f7      	push	{r0, r1, r2, r4, r5, r6, r7, lr}
 8004e3a:	4603      	mov	r3, r0
 8004e3c:	2900      	cmp	r1, #0
 8004e3e:	bfb8      	it	lt
 8004e40:	4249      	neglt	r1, r1
 8004e42:	f803 2b02 	strb.w	r2, [r3], #2
 8004e46:	bfb4      	ite	lt
 8004e48:	222d      	movlt	r2, #45	; 0x2d
 8004e4a:	222b      	movge	r2, #43	; 0x2b
 8004e4c:	2909      	cmp	r1, #9
 8004e4e:	7042      	strb	r2, [r0, #1]
 8004e50:	dd2a      	ble.n	8004ea8 <__exponent+0x70>
 8004e52:	f10d 0407 	add.w	r4, sp, #7
 8004e56:	46a4      	mov	ip, r4
 8004e58:	270a      	movs	r7, #10
 8004e5a:	46a6      	mov	lr, r4
 8004e5c:	460a      	mov	r2, r1
 8004e5e:	fb91 f6f7 	sdiv	r6, r1, r7
 8004e62:	fb07 1516 	mls	r5, r7, r6, r1
 8004e66:	3530      	adds	r5, #48	; 0x30
 8004e68:	2a63      	cmp	r2, #99	; 0x63
 8004e6a:	f104 34ff 	add.w	r4, r4, #4294967295
 8004e6e:	f80e 5c01 	strb.w	r5, [lr, #-1]
 8004e72:	4631      	mov	r1, r6
 8004e74:	dcf1      	bgt.n	8004e5a <__exponent+0x22>
 8004e76:	3130      	adds	r1, #48	; 0x30
 8004e78:	f1ae 0502 	sub.w	r5, lr, #2
 8004e7c:	f804 1c01 	strb.w	r1, [r4, #-1]
 8004e80:	1c44      	adds	r4, r0, #1
 8004e82:	4629      	mov	r1, r5
 8004e84:	4561      	cmp	r1, ip
 8004e86:	d30a      	bcc.n	8004e9e <__exponent+0x66>
 8004e88:	f10d 0209 	add.w	r2, sp, #9
 8004e8c:	eba2 020e 	sub.w	r2, r2, lr
 8004e90:	4565      	cmp	r5, ip
 8004e92:	bf88      	it	hi
 8004e94:	2200      	movhi	r2, #0
 8004e96:	4413      	add	r3, r2
 8004e98:	1a18      	subs	r0, r3, r0
 8004e9a:	b003      	add	sp, #12
 8004e9c:	bdf0      	pop	{r4, r5, r6, r7, pc}
 8004e9e:	f811 2b01 	ldrb.w	r2, [r1], #1
 8004ea2:	f804 2f01 	strb.w	r2, [r4, #1]!
 8004ea6:	e7ed      	b.n	8004e84 <__exponent+0x4c>
 8004ea8:	2330      	movs	r3, #48	; 0x30
 8004eaa:	3130      	adds	r1, #48	; 0x30
 8004eac:	7083      	strb	r3, [r0, #2]
 8004eae:	70c1      	strb	r1, [r0, #3]
 8004eb0:	1d03      	adds	r3, r0, #4
 8004eb2:	e7f1      	b.n	8004e98 <__exponent+0x60>

08004eb4 <_printf_float>:
 8004eb4:	e92d 4ff0 	stmdb	sp!, {r4, r5, r6, r7, r8, r9, sl, fp, lr}
 8004eb8:	ed2d 8b02 	vpush	{d8}
 8004ebc:	b08d      	sub	sp, #52	; 0x34
 8004ebe:	460c      	mov	r4, r1
 8004ec0:	f8dd 8060 	ldr.w	r8, [sp, #96]	; 0x60
 8004ec4:	4616      	mov	r6, r2
 8004ec6:	461f      	mov	r7, r3
 8004ec8:	4605      	mov	r5, r0
 8004eca:	f001 fa37 	bl	800633c <_localeconv_r>
 8004ece:	f8d0 a000 	ldr.w	sl, [r0]
 8004ed2:	4650      	mov	r0, sl
 8004ed4:	f7fb f994 	bl	8000200 <strlen>
 8004ed8:	2300      	movs	r3, #0
 8004eda:	930a      	str	r3, [sp, #40]	; 0x28
 8004edc:	6823      	ldr	r3, [r4, #0]
 8004ede:	9305      	str	r3, [sp, #20]
 8004ee0:	f8d8 3000 	ldr.w	r3, [r8]
 8004ee4:	f894 b018 	ldrb.w	fp, [r4, #24]
 8004ee8:	3307      	adds	r3, #7
 8004eea:	f023 0307 	bic.w	r3, r3, #7
 8004eee:	f103 0208 	add.w	r2, r3, #8
 8004ef2:	f8c8 2000 	str.w	r2, [r8]
 8004ef6:	e9d3 2300 	ldrd	r2, r3, [r3]
 8004efa:	e9c4 2312 	strd	r2, r3, [r4, #72]	; 0x48
 8004efe:	e9d4 8912 	ldrd	r8, r9, [r4, #72]	; 0x48
 8004f02:	f029 4300 	bic.w	r3, r9, #2147483648	; 0x80000000
 8004f06:	9307      	str	r3, [sp, #28]
 8004f08:	f8cd 8018 	str.w	r8, [sp, #24]
 8004f0c:	ee08 0a10 	vmov	s16, r0
 8004f10:	4b9f      	ldr	r3, [pc, #636]	; (8005190 <_printf_float+0x2dc>)
 8004f12:	e9dd 0106 	ldrd	r0, r1, [sp, #24]
 8004f16:	f04f 32ff 	mov.w	r2, #4294967295
 8004f1a:	f7fb fe1f 	bl	8000b5c <__aeabi_dcmpun>
 8004f1e:	bb88      	cbnz	r0, 8004f84 <_printf_float+0xd0>
 8004f20:	e9dd 0106 	ldrd	r0, r1, [sp, #24]
 8004f24:	4b9a      	ldr	r3, [pc, #616]	; (8005190 <_printf_float+0x2dc>)
 8004f26:	f04f 32ff 	mov.w	r2, #4294967295
 8004f2a:	f7fb fdf9 	bl	8000b20 <__aeabi_dcmple>
 8004f2e:	bb48      	cbnz	r0, 8004f84 <_printf_float+0xd0>
 8004f30:	2200      	movs	r2, #0
 8004f32:	2300      	movs	r3, #0
 8004f34:	4640      	mov	r0, r8
 8004f36:	4649      	mov	r1, r9
 8004f38:	f7fb fde8 	bl	8000b0c <__aeabi_dcmplt>
 8004f3c:	b110      	cbz	r0, 8004f44 <_printf_float+0x90>
 8004f3e:	232d      	movs	r3, #45	; 0x2d
 8004f40:	f884 3043 	strb.w	r3, [r4, #67]	; 0x43
 8004f44:	4b93      	ldr	r3, [pc, #588]	; (8005194 <_printf_float+0x2e0>)
 8004f46:	4894      	ldr	r0, [pc, #592]	; (8005198 <_printf_float+0x2e4>)
 8004f48:	f1bb 0f47 	cmp.w	fp, #71	; 0x47
 8004f4c:	bf94      	ite	ls
 8004f4e:	4698      	movls	r8, r3
 8004f50:	4680      	movhi	r8, r0
 8004f52:	2303      	movs	r3, #3
 8004f54:	6123      	str	r3, [r4, #16]
 8004f56:	9b05      	ldr	r3, [sp, #20]
 8004f58:	f023 0204 	bic.w	r2, r3, #4
 8004f5c:	6022      	str	r2, [r4, #0]
 8004f5e:	f04f 0900 	mov.w	r9, #0
 8004f62:	9700      	str	r7, [sp, #0]
 8004f64:	4633      	mov	r3, r6
 8004f66:	aa0b      	add	r2, sp, #44	; 0x2c
 8004f68:	4621      	mov	r1, r4
 8004f6a:	4628      	mov	r0, r5
 8004f6c:	f000 f9d8 	bl	8005320 <_printf_common>
 8004f70:	3001      	adds	r0, #1
 8004f72:	f040 8090 	bne.w	8005096 <_printf_float+0x1e2>
 8004f76:	f04f 30ff 	mov.w	r0, #4294967295
 8004f7a:	b00d      	add	sp, #52	; 0x34
 8004f7c:	ecbd 8b02 	vpop	{d8}
 8004f80:	e8bd 8ff0 	ldmia.w	sp!, {r4, r5, r6, r7, r8, r9, sl, fp, pc}
 8004f84:	4642      	mov	r2, r8
 8004f86:	464b      	mov	r3, r9
 8004f88:	4640      	mov	r0, r8
 8004f8a:	4649      	mov	r1, r9
 8004f8c:	f7fb fde6 	bl	8000b5c <__aeabi_dcmpun>
 8004f90:	b140      	cbz	r0, 8004fa4 <_printf_float+0xf0>
 8004f92:	464b      	mov	r3, r9
 8004f94:	2b00      	cmp	r3, #0
 8004f96:	bfbc      	itt	lt
 8004f98:	232d      	movlt	r3, #45	; 0x2d
 8004f9a:	f884 3043 	strblt.w	r3, [r4, #67]	; 0x43
 8004f9e:	487f      	ldr	r0, [pc, #508]	; (800519c <_printf_float+0x2e8>)
 8004fa0:	4b7f      	ldr	r3, [pc, #508]	; (80051a0 <_printf_float+0x2ec>)
 8004fa2:	e7d1      	b.n	8004f48 <_printf_float+0x94>
 8004fa4:	6863      	ldr	r3, [r4, #4]
 8004fa6:	f00b 02df 	and.w	r2, fp, #223	; 0xdf
 8004faa:	9206      	str	r2, [sp, #24]
 8004fac:	1c5a      	adds	r2, r3, #1
 8004fae:	d13f      	bne.n	8005030 <_printf_float+0x17c>
 8004fb0:	2306      	movs	r3, #6
 8004fb2:	6063      	str	r3, [r4, #4]
 8004fb4:	9b05      	ldr	r3, [sp, #20]
 8004fb6:	6861      	ldr	r1, [r4, #4]
 8004fb8:	f443 6280 	orr.w	r2, r3, #1024	; 0x400
 8004fbc:	2300      	movs	r3, #0
 8004fbe:	9303      	str	r3, [sp, #12]
 8004fc0:	ab0a      	add	r3, sp, #40	; 0x28
 8004fc2:	e9cd b301 	strd	fp, r3, [sp, #4]
 8004fc6:	ab09      	add	r3, sp, #36	; 0x24
 8004fc8:	ec49 8b10 	vmov	d0, r8, r9
 8004fcc:	9300      	str	r3, [sp, #0]
 8004fce:	6022      	str	r2, [r4, #0]
 8004fd0:	f10d 0323 	add.w	r3, sp, #35	; 0x23
 8004fd4:	4628      	mov	r0, r5
 8004fd6:	f7ff fecd 	bl	8004d74 <__cvt>
 8004fda:	9b06      	ldr	r3, [sp, #24]
 8004fdc:	9909      	ldr	r1, [sp, #36]	; 0x24
 8004fde:	2b47      	cmp	r3, #71	; 0x47
 8004fe0:	4680      	mov	r8, r0
 8004fe2:	d108      	bne.n	8004ff6 <_printf_float+0x142>
 8004fe4:	1cc8      	adds	r0, r1, #3
 8004fe6:	db02      	blt.n	8004fee <_printf_float+0x13a>
 8004fe8:	6863      	ldr	r3, [r4, #4]
 8004fea:	4299      	cmp	r1, r3
 8004fec:	dd41      	ble.n	8005072 <_printf_float+0x1be>
 8004fee:	f1ab 0b02 	sub.w	fp, fp, #2
 8004ff2:	fa5f fb8b 	uxtb.w	fp, fp
 8004ff6:	f1bb 0f65 	cmp.w	fp, #101	; 0x65
 8004ffa:	d820      	bhi.n	800503e <_printf_float+0x18a>
 8004ffc:	3901      	subs	r1, #1
 8004ffe:	465a      	mov	r2, fp
 8005000:	f104 0050 	add.w	r0, r4, #80	; 0x50
 8005004:	9109      	str	r1, [sp, #36]	; 0x24
 8005006:	f7ff ff17 	bl	8004e38 <__exponent>
 800500a:	9a0a      	ldr	r2, [sp, #40]	; 0x28
 800500c:	1813      	adds	r3, r2, r0
 800500e:	2a01      	cmp	r2, #1
 8005010:	4681      	mov	r9, r0
 8005012:	6123      	str	r3, [r4, #16]
 8005014:	dc02      	bgt.n	800501c <_printf_float+0x168>
 8005016:	6822      	ldr	r2, [r4, #0]
 8005018:	07d2      	lsls	r2, r2, #31
 800501a:	d501      	bpl.n	8005020 <_printf_float+0x16c>
 800501c:	3301      	adds	r3, #1
 800501e:	6123      	str	r3, [r4, #16]
 8005020:	f89d 3023 	ldrb.w	r3, [sp, #35]	; 0x23
 8005024:	2b00      	cmp	r3, #0
 8005026:	d09c      	beq.n	8004f62 <_printf_float+0xae>
 8005028:	232d      	movs	r3, #45	; 0x2d
 800502a:	f884 3043 	strb.w	r3, [r4, #67]	; 0x43
 800502e:	e798      	b.n	8004f62 <_printf_float+0xae>
 8005030:	9a06      	ldr	r2, [sp, #24]
 8005032:	2a47      	cmp	r2, #71	; 0x47
 8005034:	d1be      	bne.n	8004fb4 <_printf_float+0x100>
 8005036:	2b00      	cmp	r3, #0
 8005038:	d1bc      	bne.n	8004fb4 <_printf_float+0x100>
 800503a:	2301      	movs	r3, #1
 800503c:	e7b9      	b.n	8004fb2 <_printf_float+0xfe>
 800503e:	f1bb 0f66 	cmp.w	fp, #102	; 0x66
 8005042:	d118      	bne.n	8005076 <_printf_float+0x1c2>
 8005044:	2900      	cmp	r1, #0
 8005046:	6863      	ldr	r3, [r4, #4]
 8005048:	dd0b      	ble.n	8005062 <_printf_float+0x1ae>
 800504a:	6121      	str	r1, [r4, #16]
 800504c:	b913      	cbnz	r3, 8005054 <_printf_float+0x1a0>
 800504e:	6822      	ldr	r2, [r4, #0]
 8005050:	07d0      	lsls	r0, r2, #31
 8005052:	d502      	bpl.n	800505a <_printf_float+0x1a6>
 8005054:	3301      	adds	r3, #1
 8005056:	440b      	add	r3, r1
 8005058:	6123      	str	r3, [r4, #16]
 800505a:	65a1      	str	r1, [r4, #88]	; 0x58
 800505c:	f04f 0900 	mov.w	r9, #0
 8005060:	e7de      	b.n	8005020 <_printf_float+0x16c>
 8005062:	b913      	cbnz	r3, 800506a <_printf_float+0x1b6>
 8005064:	6822      	ldr	r2, [r4, #0]
 8005066:	07d2      	lsls	r2, r2, #31
 8005068:	d501      	bpl.n	800506e <_printf_float+0x1ba>
 800506a:	3302      	adds	r3, #2
 800506c:	e7f4      	b.n	8005058 <_printf_float+0x1a4>
 800506e:	2301      	movs	r3, #1
 8005070:	e7f2      	b.n	8005058 <_printf_float+0x1a4>
 8005072:	f04f 0b67 	mov.w	fp, #103	; 0x67
 8005076:	9b0a      	ldr	r3, [sp, #40]	; 0x28
 8005078:	4299      	cmp	r1, r3
 800507a:	db05      	blt.n	8005088 <_printf_float+0x1d4>
 800507c:	6823      	ldr	r3, [r4, #0]
 800507e:	6121      	str	r1, [r4, #16]
 8005080:	07d8      	lsls	r0, r3, #31
 8005082:	d5ea      	bpl.n	800505a <_printf_float+0x1a6>
 8005084:	1c4b      	adds	r3, r1, #1
 8005086:	e7e7      	b.n	8005058 <_printf_float+0x1a4>
 8005088:	2900      	cmp	r1, #0
 800508a:	bfd4      	ite	le
 800508c:	f1c1 0202 	rsble	r2, r1, #2
 8005090:	2201      	movgt	r2, #1
 8005092:	4413      	add	r3, r2
 8005094:	e7e0      	b.n	8005058 <_printf_float+0x1a4>
 8005096:	6823      	ldr	r3, [r4, #0]
 8005098:	055a      	lsls	r2, r3, #21
 800509a:	d407      	bmi.n	80050ac <_printf_float+0x1f8>
 800509c:	6923      	ldr	r3, [r4, #16]
 800509e:	4642      	mov	r2, r8
 80050a0:	4631      	mov	r1, r6
 80050a2:	4628      	mov	r0, r5
 80050a4:	47b8      	blx	r7
 80050a6:	3001      	adds	r0, #1
 80050a8:	d12c      	bne.n	8005104 <_printf_float+0x250>
 80050aa:	e764      	b.n	8004f76 <_printf_float+0xc2>
 80050ac:	f1bb 0f65 	cmp.w	fp, #101	; 0x65
 80050b0:	f240 80e0 	bls.w	8005274 <_printf_float+0x3c0>
 80050b4:	e9d4 0112 	ldrd	r0, r1, [r4, #72]	; 0x48
 80050b8:	2200      	movs	r2, #0
 80050ba:	2300      	movs	r3, #0
 80050bc:	f7fb fd1c 	bl	8000af8 <__aeabi_dcmpeq>
 80050c0:	2800      	cmp	r0, #0
 80050c2:	d034      	beq.n	800512e <_printf_float+0x27a>
 80050c4:	4a37      	ldr	r2, [pc, #220]	; (80051a4 <_printf_float+0x2f0>)
 80050c6:	2301      	movs	r3, #1
 80050c8:	4631      	mov	r1, r6
 80050ca:	4628      	mov	r0, r5
 80050cc:	47b8      	blx	r7
 80050ce:	3001      	adds	r0, #1
 80050d0:	f43f af51 	beq.w	8004f76 <_printf_float+0xc2>
 80050d4:	e9dd 2309 	ldrd	r2, r3, [sp, #36]	; 0x24
 80050d8:	429a      	cmp	r2, r3
 80050da:	db02      	blt.n	80050e2 <_printf_float+0x22e>
 80050dc:	6823      	ldr	r3, [r4, #0]
 80050de:	07d8      	lsls	r0, r3, #31
 80050e0:	d510      	bpl.n	8005104 <_printf_float+0x250>
 80050e2:	ee18 3a10 	vmov	r3, s16
 80050e6:	4652      	mov	r2, sl
 80050e8:	4631      	mov	r1, r6
 80050ea:	4628      	mov	r0, r5
 80050ec:	47b8      	blx	r7
 80050ee:	3001      	adds	r0, #1
 80050f0:	f43f af41 	beq.w	8004f76 <_printf_float+0xc2>
 80050f4:	f04f 0800 	mov.w	r8, #0
 80050f8:	f104 091a 	add.w	r9, r4, #26
 80050fc:	9b0a      	ldr	r3, [sp, #40]	; 0x28
 80050fe:	3b01      	subs	r3, #1
 8005100:	4543      	cmp	r3, r8
 8005102:	dc09      	bgt.n	8005118 <_printf_float+0x264>
 8005104:	6823      	ldr	r3, [r4, #0]
 8005106:	079b      	lsls	r3, r3, #30
 8005108:	f100 8105 	bmi.w	8005316 <_printf_float+0x462>
 800510c:	68e0      	ldr	r0, [r4, #12]
 800510e:	9b0b      	ldr	r3, [sp, #44]	; 0x2c
 8005110:	4298      	cmp	r0, r3
 8005112:	bfb8      	it	lt
 8005114:	4618      	movlt	r0, r3
 8005116:	e730      	b.n	8004f7a <_printf_float+0xc6>
 8005118:	2301      	movs	r3, #1
 800511a:	464a      	mov	r2, r9
 800511c:	4631      	mov	r1, r6
 800511e:	4628      	mov	r0, r5
 8005120:	47b8      	blx	r7
 8005122:	3001      	adds	r0, #1
 8005124:	f43f af27 	beq.w	8004f76 <_printf_float+0xc2>
 8005128:	f108 0801 	add.w	r8, r8, #1
 800512c:	e7e6      	b.n	80050fc <_printf_float+0x248>
 800512e:	9b09      	ldr	r3, [sp, #36]	; 0x24
 8005130:	2b00      	cmp	r3, #0
 8005132:	dc39      	bgt.n	80051a8 <_printf_float+0x2f4>
 8005134:	4a1b      	ldr	r2, [pc, #108]	; (80051a4 <_printf_float+0x2f0>)
 8005136:	2301      	movs	r3, #1
 8005138:	4631      	mov	r1, r6
 800513a:	4628      	mov	r0, r5
 800513c:	47b8      	blx	r7
 800513e:	3001      	adds	r0, #1
 8005140:	f43f af19 	beq.w	8004f76 <_printf_float+0xc2>
 8005144:	e9dd 2309 	ldrd	r2, r3, [sp, #36]	; 0x24
 8005148:	4313      	orrs	r3, r2
 800514a:	d102      	bne.n	8005152 <_printf_float+0x29e>
 800514c:	6823      	ldr	r3, [r4, #0]
 800514e:	07d9      	lsls	r1, r3, #31
 8005150:	d5d8      	bpl.n	8005104 <_printf_float+0x250>
 8005152:	ee18 3a10 	vmov	r3, s16
 8005156:	4652      	mov	r2, sl
 8005158:	4631      	mov	r1, r6
 800515a:	4628      	mov	r0, r5
 800515c:	47b8      	blx	r7
 800515e:	3001      	adds	r0, #1
 8005160:	f43f af09 	beq.w	8004f76 <_printf_float+0xc2>
 8005164:	f04f 0900 	mov.w	r9, #0
 8005168:	f104 0a1a 	add.w	sl, r4, #26
 800516c:	9b09      	ldr	r3, [sp, #36]	; 0x24
 800516e:	425b      	negs	r3, r3
 8005170:	454b      	cmp	r3, r9
 8005172:	dc01      	bgt.n	8005178 <_printf_float+0x2c4>
 8005174:	9b0a      	ldr	r3, [sp, #40]	; 0x28
 8005176:	e792      	b.n	800509e <_printf_float+0x1ea>
 8005178:	2301      	movs	r3, #1
 800517a:	4652      	mov	r2, sl
 800517c:	4631      	mov	r1, r6
 800517e:	4628      	mov	r0, r5
 8005180:	47b8      	blx	r7
 8005182:	3001      	adds	r0, #1
 8005184:	f43f aef7 	beq.w	8004f76 <_printf_float+0xc2>
 8005188:	f109 0901 	add.w	r9, r9, #1
 800518c:	e7ee      	b.n	800516c <_printf_float+0x2b8>
 800518e:	bf00      	nop
 8005190:	7fefffff 	.word	0x7fefffff
 8005194:	08008634 	.word	0x08008634
 8005198:	08008638 	.word	0x08008638
 800519c:	08008640 	.word	0x08008640
 80051a0:	0800863c 	.word	0x0800863c
 80051a4:	08008644 	.word	0x08008644
 80051a8:	9a0a      	ldr	r2, [sp, #40]	; 0x28
 80051aa:	6da3      	ldr	r3, [r4, #88]	; 0x58
 80051ac:	429a      	cmp	r2, r3
 80051ae:	bfa8      	it	ge
 80051b0:	461a      	movge	r2, r3
 80051b2:	2a00      	cmp	r2, #0
 80051b4:	4691      	mov	r9, r2
 80051b6:	dc37      	bgt.n	8005228 <_printf_float+0x374>
 80051b8:	f04f 0b00 	mov.w	fp, #0
 80051bc:	ea29 79e9 	bic.w	r9, r9, r9, asr #31
 80051c0:	f104 021a 	add.w	r2, r4, #26
 80051c4:	6da3      	ldr	r3, [r4, #88]	; 0x58
 80051c6:	9305      	str	r3, [sp, #20]
 80051c8:	eba3 0309 	sub.w	r3, r3, r9
 80051cc:	455b      	cmp	r3, fp
 80051ce:	dc33      	bgt.n	8005238 <_printf_float+0x384>
 80051d0:	e9dd 2309 	ldrd	r2, r3, [sp, #36]	; 0x24
 80051d4:	429a      	cmp	r2, r3
 80051d6:	db3b      	blt.n	8005250 <_printf_float+0x39c>
 80051d8:	6823      	ldr	r3, [r4, #0]
 80051da:	07da      	lsls	r2, r3, #31
 80051dc:	d438      	bmi.n	8005250 <_printf_float+0x39c>
 80051de:	9b0a      	ldr	r3, [sp, #40]	; 0x28
 80051e0:	9a05      	ldr	r2, [sp, #20]
 80051e2:	9909      	ldr	r1, [sp, #36]	; 0x24
 80051e4:	1a9a      	subs	r2, r3, r2
 80051e6:	eba3 0901 	sub.w	r9, r3, r1
 80051ea:	4591      	cmp	r9, r2
 80051ec:	bfa8      	it	ge
 80051ee:	4691      	movge	r9, r2
 80051f0:	f1b9 0f00 	cmp.w	r9, #0
 80051f4:	dc35      	bgt.n	8005262 <_printf_float+0x3ae>
 80051f6:	f04f 0800 	mov.w	r8, #0
 80051fa:	ea29 79e9 	bic.w	r9, r9, r9, asr #31
 80051fe:	f104 0a1a 	add.w	sl, r4, #26
 8005202:	e9dd 2309 	ldrd	r2, r3, [sp, #36]	; 0x24
 8005206:	1a9b      	subs	r3, r3, r2
 8005208:	eba3 0309 	sub.w	r3, r3, r9
 800520c:	4543      	cmp	r3, r8
 800520e:	f77f af79 	ble.w	8005104 <_printf_float+0x250>
 8005212:	2301      	movs	r3, #1
 8005214:	4652      	mov	r2, sl
 8005216:	4631      	mov	r1, r6
 8005218:	4628      	mov	r0, r5
 800521a:	47b8      	blx	r7
 800521c:	3001      	adds	r0, #1
 800521e:	f43f aeaa 	beq.w	8004f76 <_printf_float+0xc2>
 8005222:	f108 0801 	add.w	r8, r8, #1
 8005226:	e7ec      	b.n	8005202 <_printf_float+0x34e>
 8005228:	4613      	mov	r3, r2
 800522a:	4631      	mov	r1, r6
 800522c:	4642      	mov	r2, r8
 800522e:	4628      	mov	r0, r5
 8005230:	47b8      	blx	r7
 8005232:	3001      	adds	r0, #1
 8005234:	d1c0      	bne.n	80051b8 <_printf_float+0x304>
 8005236:	e69e      	b.n	8004f76 <_printf_float+0xc2>
 8005238:	2301      	movs	r3, #1
 800523a:	4631      	mov	r1, r6
 800523c:	4628      	mov	r0, r5
 800523e:	9205      	str	r2, [sp, #20]
 8005240:	47b8      	blx	r7
 8005242:	3001      	adds	r0, #1
 8005244:	f43f ae97 	beq.w	8004f76 <_printf_float+0xc2>
 8005248:	9a05      	ldr	r2, [sp, #20]
 800524a:	f10b 0b01 	add.w	fp, fp, #1
 800524e:	e7b9      	b.n	80051c4 <_printf_float+0x310>
 8005250:	ee18 3a10 	vmov	r3, s16
 8005254:	4652      	mov	r2, sl
 8005256:	4631      	mov	r1, r6
 8005258:	4628      	mov	r0, r5
 800525a:	47b8      	blx	r7
 800525c:	3001      	adds	r0, #1
 800525e:	d1be      	bne.n	80051de <_printf_float+0x32a>
 8005260:	e689      	b.n	8004f76 <_printf_float+0xc2>
 8005262:	9a05      	ldr	r2, [sp, #20]
 8005264:	464b      	mov	r3, r9
 8005266:	4442      	add	r2, r8
 8005268:	4631      	mov	r1, r6
 800526a:	4628      	mov	r0, r5
 800526c:	47b8      	blx	r7
 800526e:	3001      	adds	r0, #1
 8005270:	d1c1      	bne.n	80051f6 <_printf_float+0x342>
 8005272:	e680      	b.n	8004f76 <_printf_float+0xc2>
 8005274:	9a0a      	ldr	r2, [sp, #40]	; 0x28
 8005276:	2a01      	cmp	r2, #1
 8005278:	dc01      	bgt.n	800527e <_printf_float+0x3ca>
 800527a:	07db      	lsls	r3, r3, #31
 800527c:	d538      	bpl.n	80052f0 <_printf_float+0x43c>
 800527e:	2301      	movs	r3, #1
 8005280:	4642      	mov	r2, r8
 8005282:	4631      	mov	r1, r6
 8005284:	4628      	mov	r0, r5
 8005286:	47b8      	blx	r7
 8005288:	3001      	adds	r0, #1
 800528a:	f43f ae74 	beq.w	8004f76 <_printf_float+0xc2>
 800528e:	ee18 3a10 	vmov	r3, s16
 8005292:	4652      	mov	r2, sl
 8005294:	4631      	mov	r1, r6
 8005296:	4628      	mov	r0, r5
 8005298:	47b8      	blx	r7
 800529a:	3001      	adds	r0, #1
 800529c:	f43f ae6b 	beq.w	8004f76 <_printf_float+0xc2>
 80052a0:	e9d4 0112 	ldrd	r0, r1, [r4, #72]	; 0x48
 80052a4:	2200      	movs	r2, #0
 80052a6:	2300      	movs	r3, #0
 80052a8:	f7fb fc26 	bl	8000af8 <__aeabi_dcmpeq>
 80052ac:	b9d8      	cbnz	r0, 80052e6 <_printf_float+0x432>
 80052ae:	9b0a      	ldr	r3, [sp, #40]	; 0x28
 80052b0:	f108 0201 	add.w	r2, r8, #1
 80052b4:	3b01      	subs	r3, #1
 80052b6:	4631      	mov	r1, r6
 80052b8:	4628      	mov	r0, r5
 80052ba:	47b8      	blx	r7
 80052bc:	3001      	adds	r0, #1
 80052be:	d10e      	bne.n	80052de <_printf_float+0x42a>
 80052c0:	e659      	b.n	8004f76 <_printf_float+0xc2>
 80052c2:	2301      	movs	r3, #1
 80052c4:	4652      	mov	r2, sl
 80052c6:	4631      	mov	r1, r6
 80052c8:	4628      	mov	r0, r5
 80052ca:	47b8      	blx	r7
 80052cc:	3001      	adds	r0, #1
 80052ce:	f43f ae52 	beq.w	8004f76 <_printf_float+0xc2>
 80052d2:	f108 0801 	add.w	r8, r8, #1
 80052d6:	9b0a      	ldr	r3, [sp, #40]	; 0x28
 80052d8:	3b01      	subs	r3, #1
 80052da:	4543      	cmp	r3, r8
 80052dc:	dcf1      	bgt.n	80052c2 <_printf_float+0x40e>
 80052de:	464b      	mov	r3, r9
 80052e0:	f104 0250 	add.w	r2, r4, #80	; 0x50
 80052e4:	e6dc      	b.n	80050a0 <_printf_float+0x1ec>
 80052e6:	f04f 0800 	mov.w	r8, #0
 80052ea:	f104 0a1a 	add.w	sl, r4, #26
 80052ee:	e7f2      	b.n	80052d6 <_printf_float+0x422>
 80052f0:	2301      	movs	r3, #1
 80052f2:	4642      	mov	r2, r8
 80052f4:	e7df      	b.n	80052b6 <_printf_float+0x402>
 80052f6:	2301      	movs	r3, #1
 80052f8:	464a      	mov	r2, r9
 80052fa:	4631      	mov	r1, r6
 80052fc:	4628      	mov	r0, r5
 80052fe:	47b8      	blx	r7
 8005300:	3001      	adds	r0, #1
 8005302:	f43f ae38 	beq.w	8004f76 <_printf_float+0xc2>
 8005306:	f108 0801 	add.w	r8, r8, #1
 800530a:	68e3      	ldr	r3, [r4, #12]
 800530c:	990b      	ldr	r1, [sp, #44]	; 0x2c
 800530e:	1a5b      	subs	r3, r3, r1
 8005310:	4543      	cmp	r3, r8
 8005312:	dcf0      	bgt.n	80052f6 <_printf_float+0x442>
 8005314:	e6fa      	b.n	800510c <_printf_float+0x258>
 8005316:	f04f 0800 	mov.w	r8, #0
 800531a:	f104 0919 	add.w	r9, r4, #25
 800531e:	e7f4      	b.n	800530a <_printf_float+0x456>

08005320 <_printf_common>:
 8005320:	e92d 47f0 	stmdb	sp!, {r4, r5, r6, r7, r8, r9, sl, lr}
 8005324:	4616      	mov	r6, r2
 8005326:	4699      	mov	r9, r3
 8005328:	688a      	ldr	r2, [r1, #8]
 800532a:	690b      	ldr	r3, [r1, #16]
 800532c:	f8dd 8020 	ldr.w	r8, [sp, #32]
 8005330:	4293      	cmp	r3, r2
 8005332:	bfb8      	it	lt
 8005334:	4613      	movlt	r3, r2
 8005336:	6033      	str	r3, [r6, #0]
 8005338:	f891 2043 	ldrb.w	r2, [r1, #67]	; 0x43
 800533c:	4607      	mov	r7, r0
 800533e:	460c      	mov	r4, r1
 8005340:	b10a      	cbz	r2, 8005346 <_printf_common+0x26>
 8005342:	3301      	adds	r3, #1
 8005344:	6033      	str	r3, [r6, #0]
 8005346:	6823      	ldr	r3, [r4, #0]
 8005348:	0699      	lsls	r1, r3, #26
 800534a:	bf42      	ittt	mi
 800534c:	6833      	ldrmi	r3, [r6, #0]
 800534e:	3302      	addmi	r3, #2
 8005350:	6033      	strmi	r3, [r6, #0]
 8005352:	6825      	ldr	r5, [r4, #0]
 8005354:	f015 0506 	ands.w	r5, r5, #6
 8005358:	d106      	bne.n	8005368 <_printf_common+0x48>
 800535a:	f104 0a19 	add.w	sl, r4, #25
 800535e:	68e3      	ldr	r3, [r4, #12]
 8005360:	6832      	ldr	r2, [r6, #0]
 8005362:	1a9b      	subs	r3, r3, r2
 8005364:	42ab      	cmp	r3, r5
 8005366:	dc26      	bgt.n	80053b6 <_printf_common+0x96>
 8005368:	f894 2043 	ldrb.w	r2, [r4, #67]	; 0x43
 800536c:	1e13      	subs	r3, r2, #0
 800536e:	6822      	ldr	r2, [r4, #0]
 8005370:	bf18      	it	ne
 8005372:	2301      	movne	r3, #1
 8005374:	0692      	lsls	r2, r2, #26
 8005376:	d42b      	bmi.n	80053d0 <_printf_common+0xb0>
 8005378:	f104 0243 	add.w	r2, r4, #67	; 0x43
 800537c:	4649      	mov	r1, r9
 800537e:	4638      	mov	r0, r7
 8005380:	47c0      	blx	r8
 8005382:	3001      	adds	r0, #1
 8005384:	d01e      	beq.n	80053c4 <_printf_common+0xa4>
 8005386:	6823      	ldr	r3, [r4, #0]
 8005388:	68e5      	ldr	r5, [r4, #12]
 800538a:	6832      	ldr	r2, [r6, #0]
 800538c:	f003 0306 	and.w	r3, r3, #6
 8005390:	2b04      	cmp	r3, #4
 8005392:	bf08      	it	eq
 8005394:	1aad      	subeq	r5, r5, r2
 8005396:	68a3      	ldr	r3, [r4, #8]
 8005398:	6922      	ldr	r2, [r4, #16]
 800539a:	bf0c      	ite	eq
 800539c:	ea25 75e5 	biceq.w	r5, r5, r5, asr #31
 80053a0:	2500      	movne	r5, #0
 80053a2:	4293      	cmp	r3, r2
 80053a4:	bfc4      	itt	gt
 80053a6:	1a9b      	subgt	r3, r3, r2
 80053a8:	18ed      	addgt	r5, r5, r3
 80053aa:	2600      	movs	r6, #0
 80053ac:	341a      	adds	r4, #26
 80053ae:	42b5      	cmp	r5, r6
 80053b0:	d11a      	bne.n	80053e8 <_printf_common+0xc8>
 80053b2:	2000      	movs	r0, #0
 80053b4:	e008      	b.n	80053c8 <_printf_common+0xa8>
 80053b6:	2301      	movs	r3, #1
 80053b8:	4652      	mov	r2, sl
 80053ba:	4649      	mov	r1, r9
 80053bc:	4638      	mov	r0, r7
 80053be:	47c0      	blx	r8
 80053c0:	3001      	adds	r0, #1
 80053c2:	d103      	bne.n	80053cc <_printf_common+0xac>
 80053c4:	f04f 30ff 	mov.w	r0, #4294967295
 80053c8:	e8bd 87f0 	ldmia.w	sp!, {r4, r5, r6, r7, r8, r9, sl, pc}
 80053cc:	3501      	adds	r5, #1
 80053ce:	e7c6      	b.n	800535e <_printf_common+0x3e>
 80053d0:	18e1      	adds	r1, r4, r3
 80053d2:	1c5a      	adds	r2, r3, #1
 80053d4:	2030      	movs	r0, #48	; 0x30
 80053d6:	f881 0043 	strb.w	r0, [r1, #67]	; 0x43
 80053da:	4422      	add	r2, r4
 80053dc:	f894 1045 	ldrb.w	r1, [r4, #69]	; 0x45
 80053e0:	f882 1043 	strb.w	r1, [r2, #67]	; 0x43
 80053e4:	3302      	adds	r3, #2
 80053e6:	e7c7      	b.n	8005378 <_printf_common+0x58>
 80053e8:	2301      	movs	r3, #1
 80053ea:	4622      	mov	r2, r4
 80053ec:	4649      	mov	r1, r9
 80053ee:	4638      	mov	r0, r7
 80053f0:	47c0      	blx	r8
 80053f2:	3001      	adds	r0, #1
 80053f4:	d0e6      	beq.n	80053c4 <_printf_common+0xa4>
 80053f6:	3601      	adds	r6, #1
 80053f8:	e7d9      	b.n	80053ae <_printf_common+0x8e>
	...

080053fc <_printf_i>:
 80053fc:	e92d 47ff 	stmdb	sp!, {r0, r1, r2, r3, r4, r5, r6, r7, r8, r9, sl, lr}
 8005400:	7e0f      	ldrb	r7, [r1, #24]
 8005402:	9d0c      	ldr	r5, [sp, #48]	; 0x30
 8005404:	2f78      	cmp	r7, #120	; 0x78
 8005406:	4691      	mov	r9, r2
 8005408:	4680      	mov	r8, r0
 800540a:	460c      	mov	r4, r1
 800540c:	469a      	mov	sl, r3
 800540e:	f101 0243 	add.w	r2, r1, #67	; 0x43
 8005412:	d807      	bhi.n	8005424 <_printf_i+0x28>
 8005414:	2f62      	cmp	r7, #98	; 0x62
 8005416:	d80a      	bhi.n	800542e <_printf_i+0x32>
 8005418:	2f00      	cmp	r7, #0
 800541a:	f000 80d8 	beq.w	80055ce <_printf_i+0x1d2>
 800541e:	2f58      	cmp	r7, #88	; 0x58
 8005420:	f000 80a3 	beq.w	800556a <_printf_i+0x16e>
 8005424:	f104 0542 	add.w	r5, r4, #66	; 0x42
 8005428:	f884 7042 	strb.w	r7, [r4, #66]	; 0x42
 800542c:	e03a      	b.n	80054a4 <_printf_i+0xa8>
 800542e:	f1a7 0363 	sub.w	r3, r7, #99	; 0x63
 8005432:	2b15      	cmp	r3, #21
 8005434:	d8f6      	bhi.n	8005424 <_printf_i+0x28>
 8005436:	a101      	add	r1, pc, #4	; (adr r1, 800543c <_printf_i+0x40>)
 8005438:	f851 f023 	ldr.w	pc, [r1, r3, lsl #2]
 800543c:	08005495 	.word	0x08005495
 8005440:	080054a9 	.word	0x080054a9
 8005444:	08005425 	.word	0x08005425
 8005448:	08005425 	.word	0x08005425
 800544c:	08005425 	.word	0x08005425
 8005450:	08005425 	.word	0x08005425
 8005454:	080054a9 	.word	0x080054a9
 8005458:	08005425 	.word	0x08005425
 800545c:	08005425 	.word	0x08005425
 8005460:	08005425 	.word	0x08005425
 8005464:	08005425 	.word	0x08005425
 8005468:	080055b5 	.word	0x080055b5
 800546c:	080054d9 	.word	0x080054d9
 8005470:	08005597 	.word	0x08005597
 8005474:	08005425 	.word	0x08005425
 8005478:	08005425 	.word	0x08005425
 800547c:	080055d7 	.word	0x080055d7
 8005480:	08005425 	.word	0x08005425
 8005484:	080054d9 	.word	0x080054d9
 8005488:	08005425 	.word	0x08005425
 800548c:	08005425 	.word	0x08005425
 8005490:	0800559f 	.word	0x0800559f
 8005494:	682b      	ldr	r3, [r5, #0]
 8005496:	1d1a      	adds	r2, r3, #4
 8005498:	681b      	ldr	r3, [r3, #0]
 800549a:	602a      	str	r2, [r5, #0]
 800549c:	f104 0542 	add.w	r5, r4, #66	; 0x42
 80054a0:	f884 3042 	strb.w	r3, [r4, #66]	; 0x42
 80054a4:	2301      	movs	r3, #1
 80054a6:	e0a3      	b.n	80055f0 <_printf_i+0x1f4>
 80054a8:	6820      	ldr	r0, [r4, #0]
 80054aa:	6829      	ldr	r1, [r5, #0]
 80054ac:	0606      	lsls	r6, r0, #24
 80054ae:	f101 0304 	add.w	r3, r1, #4
 80054b2:	d50a      	bpl.n	80054ca <_printf_i+0xce>
 80054b4:	680e      	ldr	r6, [r1, #0]
 80054b6:	602b      	str	r3, [r5, #0]
 80054b8:	2e00      	cmp	r6, #0
 80054ba:	da03      	bge.n	80054c4 <_printf_i+0xc8>
 80054bc:	232d      	movs	r3, #45	; 0x2d
 80054be:	4276      	negs	r6, r6
 80054c0:	f884 3043 	strb.w	r3, [r4, #67]	; 0x43
 80054c4:	485e      	ldr	r0, [pc, #376]	; (8005640 <_printf_i+0x244>)
 80054c6:	230a      	movs	r3, #10
 80054c8:	e019      	b.n	80054fe <_printf_i+0x102>
 80054ca:	680e      	ldr	r6, [r1, #0]
 80054cc:	602b      	str	r3, [r5, #0]
 80054ce:	f010 0f40 	tst.w	r0, #64	; 0x40
 80054d2:	bf18      	it	ne
 80054d4:	b236      	sxthne	r6, r6
 80054d6:	e7ef      	b.n	80054b8 <_printf_i+0xbc>
 80054d8:	682b      	ldr	r3, [r5, #0]
 80054da:	6820      	ldr	r0, [r4, #0]
 80054dc:	1d19      	adds	r1, r3, #4
 80054de:	6029      	str	r1, [r5, #0]
 80054e0:	0601      	lsls	r1, r0, #24
 80054e2:	d501      	bpl.n	80054e8 <_printf_i+0xec>
 80054e4:	681e      	ldr	r6, [r3, #0]
 80054e6:	e002      	b.n	80054ee <_printf_i+0xf2>
 80054e8:	0646      	lsls	r6, r0, #25
 80054ea:	d5fb      	bpl.n	80054e4 <_printf_i+0xe8>
 80054ec:	881e      	ldrh	r6, [r3, #0]
 80054ee:	4854      	ldr	r0, [pc, #336]	; (8005640 <_printf_i+0x244>)
 80054f0:	2f6f      	cmp	r7, #111	; 0x6f
 80054f2:	bf0c      	ite	eq
 80054f4:	2308      	moveq	r3, #8
 80054f6:	230a      	movne	r3, #10
 80054f8:	2100      	movs	r1, #0
 80054fa:	f884 1043 	strb.w	r1, [r4, #67]	; 0x43
 80054fe:	6865      	ldr	r5, [r4, #4]
 8005500:	60a5      	str	r5, [r4, #8]
 8005502:	2d00      	cmp	r5, #0
 8005504:	bfa2      	ittt	ge
 8005506:	6821      	ldrge	r1, [r4, #0]
 8005508:	f021 0104 	bicge.w	r1, r1, #4
 800550c:	6021      	strge	r1, [r4, #0]
 800550e:	b90e      	cbnz	r6, 8005514 <_printf_i+0x118>
 8005510:	2d00      	cmp	r5, #0
 8005512:	d04d      	beq.n	80055b0 <_printf_i+0x1b4>
 8005514:	4615      	mov	r5, r2
 8005516:	fbb6 f1f3 	udiv	r1, r6, r3
 800551a:	fb03 6711 	mls	r7, r3, r1, r6
 800551e:	5dc7      	ldrb	r7, [r0, r7]
 8005520:	f805 7d01 	strb.w	r7, [r5, #-1]!
 8005524:	4637      	mov	r7, r6
 8005526:	42bb      	cmp	r3, r7
 8005528:	460e      	mov	r6, r1
 800552a:	d9f4      	bls.n	8005516 <_printf_i+0x11a>
 800552c:	2b08      	cmp	r3, #8
 800552e:	d10b      	bne.n	8005548 <_printf_i+0x14c>
 8005530:	6823      	ldr	r3, [r4, #0]
 8005532:	07de      	lsls	r6, r3, #31
 8005534:	d508      	bpl.n	8005548 <_printf_i+0x14c>
 8005536:	6923      	ldr	r3, [r4, #16]
 8005538:	6861      	ldr	r1, [r4, #4]
 800553a:	4299      	cmp	r1, r3
 800553c:	bfde      	ittt	le
 800553e:	2330      	movle	r3, #48	; 0x30
 8005540:	f805 3c01 	strble.w	r3, [r5, #-1]
 8005544:	f105 35ff 	addle.w	r5, r5, #4294967295
 8005548:	1b52      	subs	r2, r2, r5
 800554a:	6122      	str	r2, [r4, #16]
 800554c:	f8cd a000 	str.w	sl, [sp]
 8005550:	464b      	mov	r3, r9
 8005552:	aa03      	add	r2, sp, #12
 8005554:	4621      	mov	r1, r4
 8005556:	4640      	mov	r0, r8
 8005558:	f7ff fee2 	bl	8005320 <_printf_common>
 800555c:	3001      	adds	r0, #1
 800555e:	d14c      	bne.n	80055fa <_printf_i+0x1fe>
 8005560:	f04f 30ff 	mov.w	r0, #4294967295
 8005564:	b004      	add	sp, #16
 8005566:	e8bd 87f0 	ldmia.w	sp!, {r4, r5, r6, r7, r8, r9, sl, pc}
 800556a:	4835      	ldr	r0, [pc, #212]	; (8005640 <_printf_i+0x244>)
 800556c:	f881 7045 	strb.w	r7, [r1, #69]	; 0x45
 8005570:	6829      	ldr	r1, [r5, #0]
 8005572:	6823      	ldr	r3, [r4, #0]
 8005574:	f851 6b04 	ldr.w	r6, [r1], #4
 8005578:	6029      	str	r1, [r5, #0]
 800557a:	061d      	lsls	r5, r3, #24
 800557c:	d514      	bpl.n	80055a8 <_printf_i+0x1ac>
 800557e:	07df      	lsls	r7, r3, #31
 8005580:	bf44      	itt	mi
 8005582:	f043 0320 	orrmi.w	r3, r3, #32
 8005586:	6023      	strmi	r3, [r4, #0]
 8005588:	b91e      	cbnz	r6, 8005592 <_printf_i+0x196>
 800558a:	6823      	ldr	r3, [r4, #0]
 800558c:	f023 0320 	bic.w	r3, r3, #32
 8005590:	6023      	str	r3, [r4, #0]
 8005592:	2310      	movs	r3, #16
 8005594:	e7b0      	b.n	80054f8 <_printf_i+0xfc>
 8005596:	6823      	ldr	r3, [r4, #0]
 8005598:	f043 0320 	orr.w	r3, r3, #32
 800559c:	6023      	str	r3, [r4, #0]
 800559e:	2378      	movs	r3, #120	; 0x78
 80055a0:	4828      	ldr	r0, [pc, #160]	; (8005644 <_printf_i+0x248>)
 80055a2:	f884 3045 	strb.w	r3, [r4, #69]	; 0x45
 80055a6:	e7e3      	b.n	8005570 <_printf_i+0x174>
 80055a8:	0659      	lsls	r1, r3, #25
 80055aa:	bf48      	it	mi
 80055ac:	b2b6      	uxthmi	r6, r6
 80055ae:	e7e6      	b.n	800557e <_printf_i+0x182>
 80055b0:	4615      	mov	r5, r2
 80055b2:	e7bb      	b.n	800552c <_printf_i+0x130>
 80055b4:	682b      	ldr	r3, [r5, #0]
 80055b6:	6826      	ldr	r6, [r4, #0]
 80055b8:	6961      	ldr	r1, [r4, #20]
 80055ba:	1d18      	adds	r0, r3, #4
 80055bc:	6028      	str	r0, [r5, #0]
 80055be:	0635      	lsls	r5, r6, #24
 80055c0:	681b      	ldr	r3, [r3, #0]
 80055c2:	d501      	bpl.n	80055c8 <_printf_i+0x1cc>
 80055c4:	6019      	str	r1, [r3, #0]
 80055c6:	e002      	b.n	80055ce <_printf_i+0x1d2>
 80055c8:	0670      	lsls	r0, r6, #25
 80055ca:	d5fb      	bpl.n	80055c4 <_printf_i+0x1c8>
 80055cc:	8019      	strh	r1, [r3, #0]
 80055ce:	2300      	movs	r3, #0
 80055d0:	6123      	str	r3, [r4, #16]
 80055d2:	4615      	mov	r5, r2
 80055d4:	e7ba      	b.n	800554c <_printf_i+0x150>
 80055d6:	682b      	ldr	r3, [r5, #0]
 80055d8:	1d1a      	adds	r2, r3, #4
 80055da:	602a      	str	r2, [r5, #0]
 80055dc:	681d      	ldr	r5, [r3, #0]
 80055de:	6862      	ldr	r2, [r4, #4]
 80055e0:	2100      	movs	r1, #0
 80055e2:	4628      	mov	r0, r5
 80055e4:	f7fa fe14 	bl	8000210 <memchr>
 80055e8:	b108      	cbz	r0, 80055ee <_printf_i+0x1f2>
 80055ea:	1b40      	subs	r0, r0, r5
 80055ec:	6060      	str	r0, [r4, #4]
 80055ee:	6863      	ldr	r3, [r4, #4]
 80055f0:	6123      	str	r3, [r4, #16]
 80055f2:	2300      	movs	r3, #0
 80055f4:	f884 3043 	strb.w	r3, [r4, #67]	; 0x43
 80055f8:	e7a8      	b.n	800554c <_printf_i+0x150>
 80055fa:	6923      	ldr	r3, [r4, #16]
 80055fc:	462a      	mov	r2, r5
 80055fe:	4649      	mov	r1, r9
 8005600:	4640      	mov	r0, r8
 8005602:	47d0      	blx	sl
 8005604:	3001      	adds	r0, #1
 8005606:	d0ab      	beq.n	8005560 <_printf_i+0x164>
 8005608:	6823      	ldr	r3, [r4, #0]
 800560a:	079b      	lsls	r3, r3, #30
 800560c:	d413      	bmi.n	8005636 <_printf_i+0x23a>
 800560e:	68e0      	ldr	r0, [r4, #12]
 8005610:	9b03      	ldr	r3, [sp, #12]
 8005612:	4298      	cmp	r0, r3
 8005614:	bfb8      	it	lt
 8005616:	4618      	movlt	r0, r3
 8005618:	e7a4      	b.n	8005564 <_printf_i+0x168>
 800561a:	2301      	movs	r3, #1
 800561c:	4632      	mov	r2, r6
 800561e:	4649      	mov	r1, r9
 8005620:	4640      	mov	r0, r8
 8005622:	47d0      	blx	sl
 8005624:	3001      	adds	r0, #1
 8005626:	d09b      	beq.n	8005560 <_printf_i+0x164>
 8005628:	3501      	adds	r5, #1
 800562a:	68e3      	ldr	r3, [r4, #12]
 800562c:	9903      	ldr	r1, [sp, #12]
 800562e:	1a5b      	subs	r3, r3, r1
 8005630:	42ab      	cmp	r3, r5
 8005632:	dcf2      	bgt.n	800561a <_printf_i+0x21e>
 8005634:	e7eb      	b.n	800560e <_printf_i+0x212>
 8005636:	2500      	movs	r5, #0
 8005638:	f104 0619 	add.w	r6, r4, #25
 800563c:	e7f5      	b.n	800562a <_printf_i+0x22e>
 800563e:	bf00      	nop
 8005640:	08008646 	.word	0x08008646
 8005644:	08008657 	.word	0x08008657

08005648 <quorem>:
 8005648:	e92d 4ff7 	stmdb	sp!, {r0, r1, r2, r4, r5, r6, r7, r8, r9, sl, fp, lr}
 800564c:	6903      	ldr	r3, [r0, #16]
 800564e:	690c      	ldr	r4, [r1, #16]
 8005650:	42a3      	cmp	r3, r4
 8005652:	4607      	mov	r7, r0
 8005654:	f2c0 8081 	blt.w	800575a <quorem+0x112>
 8005658:	3c01      	subs	r4, #1
 800565a:	f101 0814 	add.w	r8, r1, #20
 800565e:	f100 0514 	add.w	r5, r0, #20
 8005662:	eb05 0384 	add.w	r3, r5, r4, lsl #2
 8005666:	9301      	str	r3, [sp, #4]
 8005668:	f858 3024 	ldr.w	r3, [r8, r4, lsl #2]
 800566c:	f855 2024 	ldr.w	r2, [r5, r4, lsl #2]
 8005670:	3301      	adds	r3, #1
 8005672:	429a      	cmp	r2, r3
 8005674:	ea4f 0b84 	mov.w	fp, r4, lsl #2
 8005678:	eb08 0984 	add.w	r9, r8, r4, lsl #2
 800567c:	fbb2 f6f3 	udiv	r6, r2, r3
 8005680:	d331      	bcc.n	80056e6 <quorem+0x9e>
 8005682:	f04f 0e00 	mov.w	lr, #0
 8005686:	4640      	mov	r0, r8
 8005688:	46ac      	mov	ip, r5
 800568a:	46f2      	mov	sl, lr
 800568c:	f850 2b04 	ldr.w	r2, [r0], #4
 8005690:	b293      	uxth	r3, r2
 8005692:	fb06 e303 	mla	r3, r6, r3, lr
 8005696:	ea4f 4e13 	mov.w	lr, r3, lsr #16
 800569a:	b29b      	uxth	r3, r3
 800569c:	ebaa 0303 	sub.w	r3, sl, r3
 80056a0:	f8dc a000 	ldr.w	sl, [ip]
 80056a4:	0c12      	lsrs	r2, r2, #16
 80056a6:	fa13 f38a 	uxtah	r3, r3, sl
 80056aa:	fb06 e202 	mla	r2, r6, r2, lr
 80056ae:	9300      	str	r3, [sp, #0]
 80056b0:	9b00      	ldr	r3, [sp, #0]
 80056b2:	ea4f 4e12 	mov.w	lr, r2, lsr #16
 80056b6:	b292      	uxth	r2, r2
 80056b8:	ebc2 421a 	rsb	r2, r2, sl, lsr #16
 80056bc:	eb02 4223 	add.w	r2, r2, r3, asr #16
 80056c0:	f8bd 3000 	ldrh.w	r3, [sp]
 80056c4:	4581      	cmp	r9, r0
 80056c6:	ea43 4302 	orr.w	r3, r3, r2, lsl #16
 80056ca:	f84c 3b04 	str.w	r3, [ip], #4
 80056ce:	ea4f 4a22 	mov.w	sl, r2, asr #16
 80056d2:	d2db      	bcs.n	800568c <quorem+0x44>
 80056d4:	f855 300b 	ldr.w	r3, [r5, fp]
 80056d8:	b92b      	cbnz	r3, 80056e6 <quorem+0x9e>
 80056da:	9b01      	ldr	r3, [sp, #4]
 80056dc:	3b04      	subs	r3, #4
 80056de:	429d      	cmp	r5, r3
 80056e0:	461a      	mov	r2, r3
 80056e2:	d32e      	bcc.n	8005742 <quorem+0xfa>
 80056e4:	613c      	str	r4, [r7, #16]
 80056e6:	4638      	mov	r0, r7
 80056e8:	f001 f8c4 	bl	8006874 <__mcmp>
 80056ec:	2800      	cmp	r0, #0
 80056ee:	db24      	blt.n	800573a <quorem+0xf2>
 80056f0:	3601      	adds	r6, #1
 80056f2:	4628      	mov	r0, r5
 80056f4:	f04f 0c00 	mov.w	ip, #0
 80056f8:	f858 2b04 	ldr.w	r2, [r8], #4
 80056fc:	f8d0 e000 	ldr.w	lr, [r0]
 8005700:	b293      	uxth	r3, r2
 8005702:	ebac 0303 	sub.w	r3, ip, r3
 8005706:	0c12      	lsrs	r2, r2, #16
 8005708:	fa13 f38e 	uxtah	r3, r3, lr
 800570c:	ebc2 421e 	rsb	r2, r2, lr, lsr #16
 8005710:	eb02 4223 	add.w	r2, r2, r3, asr #16
 8005714:	b29b      	uxth	r3, r3
 8005716:	ea43 4302 	orr.w	r3, r3, r2, lsl #16
 800571a:	45c1      	cmp	r9, r8
 800571c:	f840 3b04 	str.w	r3, [r0], #4
 8005720:	ea4f 4c22 	mov.w	ip, r2, asr #16
 8005724:	d2e8      	bcs.n	80056f8 <quorem+0xb0>
 8005726:	f855 2024 	ldr.w	r2, [r5, r4, lsl #2]
 800572a:	eb05 0384 	add.w	r3, r5, r4, lsl #2
 800572e:	b922      	cbnz	r2, 800573a <quorem+0xf2>
 8005730:	3b04      	subs	r3, #4
 8005732:	429d      	cmp	r5, r3
 8005734:	461a      	mov	r2, r3
 8005736:	d30a      	bcc.n	800574e <quorem+0x106>
 8005738:	613c      	str	r4, [r7, #16]
 800573a:	4630      	mov	r0, r6
 800573c:	b003      	add	sp, #12
 800573e:	e8bd 8ff0 	ldmia.w	sp!, {r4, r5, r6, r7, r8, r9, sl, fp, pc}
 8005742:	6812      	ldr	r2, [r2, #0]
 8005744:	3b04      	subs	r3, #4
 8005746:	2a00      	cmp	r2, #0
 8005748:	d1cc      	bne.n	80056e4 <quorem+0x9c>
 800574a:	3c01      	subs	r4, #1
 800574c:	e7c7      	b.n	80056de <quorem+0x96>
 800574e:	6812      	ldr	r2, [r2, #0]
 8005750:	3b04      	subs	r3, #4
 8005752:	2a00      	cmp	r2, #0
 8005754:	d1f0      	bne.n	8005738 <quorem+0xf0>
 8005756:	3c01      	subs	r4, #1
 8005758:	e7eb      	b.n	8005732 <quorem+0xea>
 800575a:	2000      	movs	r0, #0
 800575c:	e7ee      	b.n	800573c <quorem+0xf4>
	...

08005760 <_dtoa_r>:
 8005760:	e92d 4ff0 	stmdb	sp!, {r4, r5, r6, r7, r8, r9, sl, fp, lr}
 8005764:	ed2d 8b04 	vpush	{d8-d9}
 8005768:	ec57 6b10 	vmov	r6, r7, d0
 800576c:	b093      	sub	sp, #76	; 0x4c
 800576e:	6a45      	ldr	r5, [r0, #36]	; 0x24
 8005770:	f8dd 8080 	ldr.w	r8, [sp, #128]	; 0x80
 8005774:	9106      	str	r1, [sp, #24]
 8005776:	ee10 aa10 	vmov	sl, s0
 800577a:	4604      	mov	r4, r0
 800577c:	9209      	str	r2, [sp, #36]	; 0x24
 800577e:	930c      	str	r3, [sp, #48]	; 0x30
 8005780:	46bb      	mov	fp, r7
 8005782:	b975      	cbnz	r5, 80057a2 <_dtoa_r+0x42>
 8005784:	2010      	movs	r0, #16
 8005786:	f000 fddd 	bl	8006344 <malloc>
 800578a:	4602      	mov	r2, r0
 800578c:	6260      	str	r0, [r4, #36]	; 0x24
 800578e:	b920      	cbnz	r0, 800579a <_dtoa_r+0x3a>
 8005790:	4ba7      	ldr	r3, [pc, #668]	; (8005a30 <_dtoa_r+0x2d0>)
 8005792:	21ea      	movs	r1, #234	; 0xea
 8005794:	48a7      	ldr	r0, [pc, #668]	; (8005a34 <_dtoa_r+0x2d4>)
 8005796:	f001 fa75 	bl	8006c84 <__assert_func>
 800579a:	e9c0 5501 	strd	r5, r5, [r0, #4]
 800579e:	6005      	str	r5, [r0, #0]
 80057a0:	60c5      	str	r5, [r0, #12]
 80057a2:	6a63      	ldr	r3, [r4, #36]	; 0x24
 80057a4:	6819      	ldr	r1, [r3, #0]
 80057a6:	b151      	cbz	r1, 80057be <_dtoa_r+0x5e>
 80057a8:	685a      	ldr	r2, [r3, #4]
 80057aa:	604a      	str	r2, [r1, #4]
 80057ac:	2301      	movs	r3, #1
 80057ae:	4093      	lsls	r3, r2
 80057b0:	608b      	str	r3, [r1, #8]
 80057b2:	4620      	mov	r0, r4
 80057b4:	f000 fe1c 	bl	80063f0 <_Bfree>
 80057b8:	6a63      	ldr	r3, [r4, #36]	; 0x24
 80057ba:	2200      	movs	r2, #0
 80057bc:	601a      	str	r2, [r3, #0]
 80057be:	1e3b      	subs	r3, r7, #0
 80057c0:	bfaa      	itet	ge
 80057c2:	2300      	movge	r3, #0
 80057c4:	f023 4b00 	biclt.w	fp, r3, #2147483648	; 0x80000000
 80057c8:	f8c8 3000 	strge.w	r3, [r8]
 80057cc:	4b9a      	ldr	r3, [pc, #616]	; (8005a38 <_dtoa_r+0x2d8>)
 80057ce:	bfbc      	itt	lt
 80057d0:	2201      	movlt	r2, #1
 80057d2:	f8c8 2000 	strlt.w	r2, [r8]
 80057d6:	ea33 030b 	bics.w	r3, r3, fp
 80057da:	d11b      	bne.n	8005814 <_dtoa_r+0xb4>
 80057dc:	9a0c      	ldr	r2, [sp, #48]	; 0x30
 80057de:	f242 730f 	movw	r3, #9999	; 0x270f
 80057e2:	6013      	str	r3, [r2, #0]
 80057e4:	f3cb 0313 	ubfx	r3, fp, #0, #20
 80057e8:	4333      	orrs	r3, r6
 80057ea:	f000 8592 	beq.w	8006312 <_dtoa_r+0xbb2>
 80057ee:	9b21      	ldr	r3, [sp, #132]	; 0x84
 80057f0:	b963      	cbnz	r3, 800580c <_dtoa_r+0xac>
 80057f2:	4b92      	ldr	r3, [pc, #584]	; (8005a3c <_dtoa_r+0x2dc>)
 80057f4:	e022      	b.n	800583c <_dtoa_r+0xdc>
 80057f6:	4b92      	ldr	r3, [pc, #584]	; (8005a40 <_dtoa_r+0x2e0>)
 80057f8:	9301      	str	r3, [sp, #4]
 80057fa:	3308      	adds	r3, #8
 80057fc:	9a21      	ldr	r2, [sp, #132]	; 0x84
 80057fe:	6013      	str	r3, [r2, #0]
 8005800:	9801      	ldr	r0, [sp, #4]
 8005802:	b013      	add	sp, #76	; 0x4c
 8005804:	ecbd 8b04 	vpop	{d8-d9}
 8005808:	e8bd 8ff0 	ldmia.w	sp!, {r4, r5, r6, r7, r8, r9, sl, fp, pc}
 800580c:	4b8b      	ldr	r3, [pc, #556]	; (8005a3c <_dtoa_r+0x2dc>)
 800580e:	9301      	str	r3, [sp, #4]
 8005810:	3303      	adds	r3, #3
 8005812:	e7f3      	b.n	80057fc <_dtoa_r+0x9c>
 8005814:	2200      	movs	r2, #0
 8005816:	2300      	movs	r3, #0
 8005818:	4650      	mov	r0, sl
 800581a:	4659      	mov	r1, fp
 800581c:	f7fb f96c 	bl	8000af8 <__aeabi_dcmpeq>
 8005820:	ec4b ab19 	vmov	d9, sl, fp
 8005824:	4680      	mov	r8, r0
 8005826:	b158      	cbz	r0, 8005840 <_dtoa_r+0xe0>
 8005828:	9a0c      	ldr	r2, [sp, #48]	; 0x30
 800582a:	2301      	movs	r3, #1
 800582c:	6013      	str	r3, [r2, #0]
 800582e:	9b21      	ldr	r3, [sp, #132]	; 0x84
 8005830:	2b00      	cmp	r3, #0
 8005832:	f000 856b 	beq.w	800630c <_dtoa_r+0xbac>
 8005836:	4883      	ldr	r0, [pc, #524]	; (8005a44 <_dtoa_r+0x2e4>)
 8005838:	6018      	str	r0, [r3, #0]
 800583a:	1e43      	subs	r3, r0, #1
 800583c:	9301      	str	r3, [sp, #4]
 800583e:	e7df      	b.n	8005800 <_dtoa_r+0xa0>
 8005840:	ec4b ab10 	vmov	d0, sl, fp
 8005844:	aa10      	add	r2, sp, #64	; 0x40
 8005846:	a911      	add	r1, sp, #68	; 0x44
 8005848:	4620      	mov	r0, r4
 800584a:	f001 f8b9 	bl	80069c0 <__d2b>
 800584e:	f3cb 550a 	ubfx	r5, fp, #20, #11
 8005852:	ee08 0a10 	vmov	s16, r0
 8005856:	2d00      	cmp	r5, #0
 8005858:	f000 8084 	beq.w	8005964 <_dtoa_r+0x204>
 800585c:	ee19 3a90 	vmov	r3, s19
 8005860:	f3c3 0313 	ubfx	r3, r3, #0, #20
 8005864:	f043 577f 	orr.w	r7, r3, #1069547520	; 0x3fc00000
 8005868:	4656      	mov	r6, sl
 800586a:	f447 1740 	orr.w	r7, r7, #3145728	; 0x300000
 800586e:	f2a5 35ff 	subw	r5, r5, #1023	; 0x3ff
 8005872:	f8cd 8038 	str.w	r8, [sp, #56]	; 0x38
 8005876:	4b74      	ldr	r3, [pc, #464]	; (8005a48 <_dtoa_r+0x2e8>)
 8005878:	2200      	movs	r2, #0
 800587a:	4630      	mov	r0, r6
 800587c:	4639      	mov	r1, r7
 800587e:	f7fa fd1b 	bl	80002b8 <__aeabi_dsub>
 8005882:	a365      	add	r3, pc, #404	; (adr r3, 8005a18 <_dtoa_r+0x2b8>)
 8005884:	e9d3 2300 	ldrd	r2, r3, [r3]
 8005888:	f7fa fece 	bl	8000628 <__aeabi_dmul>
 800588c:	a364      	add	r3, pc, #400	; (adr r3, 8005a20 <_dtoa_r+0x2c0>)
 800588e:	e9d3 2300 	ldrd	r2, r3, [r3]
 8005892:	f7fa fd13 	bl	80002bc <__adddf3>
 8005896:	4606      	mov	r6, r0
 8005898:	4628      	mov	r0, r5
 800589a:	460f      	mov	r7, r1
 800589c:	f7fa fe5a 	bl	8000554 <__aeabi_i2d>
 80058a0:	a361      	add	r3, pc, #388	; (adr r3, 8005a28 <_dtoa_r+0x2c8>)
 80058a2:	e9d3 2300 	ldrd	r2, r3, [r3]
 80058a6:	f7fa febf 	bl	8000628 <__aeabi_dmul>
 80058aa:	4602      	mov	r2, r0
 80058ac:	460b      	mov	r3, r1
 80058ae:	4630      	mov	r0, r6
 80058b0:	4639      	mov	r1, r7
 80058b2:	f7fa fd03 	bl	80002bc <__adddf3>
 80058b6:	4606      	mov	r6, r0
 80058b8:	460f      	mov	r7, r1
 80058ba:	f7fb f965 	bl	8000b88 <__aeabi_d2iz>
 80058be:	2200      	movs	r2, #0
 80058c0:	9000      	str	r0, [sp, #0]
 80058c2:	2300      	movs	r3, #0
 80058c4:	4630      	mov	r0, r6
 80058c6:	4639      	mov	r1, r7
 80058c8:	f7fb f920 	bl	8000b0c <__aeabi_dcmplt>
 80058cc:	b150      	cbz	r0, 80058e4 <_dtoa_r+0x184>
 80058ce:	9800      	ldr	r0, [sp, #0]
 80058d0:	f7fa fe40 	bl	8000554 <__aeabi_i2d>
 80058d4:	4632      	mov	r2, r6
 80058d6:	463b      	mov	r3, r7
 80058d8:	f7fb f90e 	bl	8000af8 <__aeabi_dcmpeq>
 80058dc:	b910      	cbnz	r0, 80058e4 <_dtoa_r+0x184>
 80058de:	9b00      	ldr	r3, [sp, #0]
 80058e0:	3b01      	subs	r3, #1
 80058e2:	9300      	str	r3, [sp, #0]
 80058e4:	9b00      	ldr	r3, [sp, #0]
 80058e6:	2b16      	cmp	r3, #22
 80058e8:	d85a      	bhi.n	80059a0 <_dtoa_r+0x240>
 80058ea:	9a00      	ldr	r2, [sp, #0]
 80058ec:	4b57      	ldr	r3, [pc, #348]	; (8005a4c <_dtoa_r+0x2ec>)
 80058ee:	eb03 03c2 	add.w	r3, r3, r2, lsl #3
 80058f2:	e9d3 2300 	ldrd	r2, r3, [r3]
 80058f6:	ec51 0b19 	vmov	r0, r1, d9
 80058fa:	f7fb f907 	bl	8000b0c <__aeabi_dcmplt>
 80058fe:	2800      	cmp	r0, #0
 8005900:	d050      	beq.n	80059a4 <_dtoa_r+0x244>
 8005902:	9b00      	ldr	r3, [sp, #0]
 8005904:	3b01      	subs	r3, #1
 8005906:	9300      	str	r3, [sp, #0]
 8005908:	2300      	movs	r3, #0
 800590a:	930b      	str	r3, [sp, #44]	; 0x2c
 800590c:	9b10      	ldr	r3, [sp, #64]	; 0x40
 800590e:	1b5d      	subs	r5, r3, r5
 8005910:	1e6b      	subs	r3, r5, #1
 8005912:	9305      	str	r3, [sp, #20]
 8005914:	bf45      	ittet	mi
 8005916:	f1c5 0301 	rsbmi	r3, r5, #1
 800591a:	9304      	strmi	r3, [sp, #16]
 800591c:	2300      	movpl	r3, #0
 800591e:	2300      	movmi	r3, #0
 8005920:	bf4c      	ite	mi
 8005922:	9305      	strmi	r3, [sp, #20]
 8005924:	9304      	strpl	r3, [sp, #16]
 8005926:	9b00      	ldr	r3, [sp, #0]
 8005928:	2b00      	cmp	r3, #0
 800592a:	db3d      	blt.n	80059a8 <_dtoa_r+0x248>
 800592c:	9b05      	ldr	r3, [sp, #20]
 800592e:	9a00      	ldr	r2, [sp, #0]
 8005930:	920a      	str	r2, [sp, #40]	; 0x28
 8005932:	4413      	add	r3, r2
 8005934:	9305      	str	r3, [sp, #20]
 8005936:	2300      	movs	r3, #0
 8005938:	9307      	str	r3, [sp, #28]
 800593a:	9b06      	ldr	r3, [sp, #24]
 800593c:	2b09      	cmp	r3, #9
 800593e:	f200 8089 	bhi.w	8005a54 <_dtoa_r+0x2f4>
 8005942:	2b05      	cmp	r3, #5
 8005944:	bfc4      	itt	gt
 8005946:	3b04      	subgt	r3, #4
 8005948:	9306      	strgt	r3, [sp, #24]
 800594a:	9b06      	ldr	r3, [sp, #24]
 800594c:	f1a3 0302 	sub.w	r3, r3, #2
 8005950:	bfcc      	ite	gt
 8005952:	2500      	movgt	r5, #0
 8005954:	2501      	movle	r5, #1
 8005956:	2b03      	cmp	r3, #3
 8005958:	f200 8087 	bhi.w	8005a6a <_dtoa_r+0x30a>
 800595c:	e8df f003 	tbb	[pc, r3]
 8005960:	59383a2d 	.word	0x59383a2d
 8005964:	e9dd 5310 	ldrd	r5, r3, [sp, #64]	; 0x40
 8005968:	441d      	add	r5, r3
 800596a:	f205 4332 	addw	r3, r5, #1074	; 0x432
 800596e:	2b20      	cmp	r3, #32
 8005970:	bfc1      	itttt	gt
 8005972:	f1c3 0340 	rsbgt	r3, r3, #64	; 0x40
 8005976:	f205 4012 	addwgt	r0, r5, #1042	; 0x412
 800597a:	fa0b f303 	lslgt.w	r3, fp, r3
 800597e:	fa26 f000 	lsrgt.w	r0, r6, r0
 8005982:	bfda      	itte	le
 8005984:	f1c3 0320 	rsble	r3, r3, #32
 8005988:	fa06 f003 	lslle.w	r0, r6, r3
 800598c:	4318      	orrgt	r0, r3
 800598e:	f7fa fdd1 	bl	8000534 <__aeabi_ui2d>
 8005992:	2301      	movs	r3, #1
 8005994:	4606      	mov	r6, r0
 8005996:	f1a1 77f8 	sub.w	r7, r1, #32505856	; 0x1f00000
 800599a:	3d01      	subs	r5, #1
 800599c:	930e      	str	r3, [sp, #56]	; 0x38
 800599e:	e76a      	b.n	8005876 <_dtoa_r+0x116>
 80059a0:	2301      	movs	r3, #1
 80059a2:	e7b2      	b.n	800590a <_dtoa_r+0x1aa>
 80059a4:	900b      	str	r0, [sp, #44]	; 0x2c
 80059a6:	e7b1      	b.n	800590c <_dtoa_r+0x1ac>
 80059a8:	9b04      	ldr	r3, [sp, #16]
 80059aa:	9a00      	ldr	r2, [sp, #0]
 80059ac:	1a9b      	subs	r3, r3, r2
 80059ae:	9304      	str	r3, [sp, #16]
 80059b0:	4253      	negs	r3, r2
 80059b2:	9307      	str	r3, [sp, #28]
 80059b4:	2300      	movs	r3, #0
 80059b6:	930a      	str	r3, [sp, #40]	; 0x28
 80059b8:	e7bf      	b.n	800593a <_dtoa_r+0x1da>
 80059ba:	2300      	movs	r3, #0
 80059bc:	9308      	str	r3, [sp, #32]
 80059be:	9b09      	ldr	r3, [sp, #36]	; 0x24
 80059c0:	2b00      	cmp	r3, #0
 80059c2:	dc55      	bgt.n	8005a70 <_dtoa_r+0x310>
 80059c4:	2301      	movs	r3, #1
 80059c6:	e9cd 3302 	strd	r3, r3, [sp, #8]
 80059ca:	461a      	mov	r2, r3
 80059cc:	9209      	str	r2, [sp, #36]	; 0x24
 80059ce:	e00c      	b.n	80059ea <_dtoa_r+0x28a>
 80059d0:	2301      	movs	r3, #1
 80059d2:	e7f3      	b.n	80059bc <_dtoa_r+0x25c>
 80059d4:	2300      	movs	r3, #0
 80059d6:	9a09      	ldr	r2, [sp, #36]	; 0x24
 80059d8:	9308      	str	r3, [sp, #32]
 80059da:	9b00      	ldr	r3, [sp, #0]
 80059dc:	4413      	add	r3, r2
 80059de:	9302      	str	r3, [sp, #8]
 80059e0:	3301      	adds	r3, #1
 80059e2:	2b01      	cmp	r3, #1
 80059e4:	9303      	str	r3, [sp, #12]
 80059e6:	bfb8      	it	lt
 80059e8:	2301      	movlt	r3, #1
 80059ea:	6a60      	ldr	r0, [r4, #36]	; 0x24
 80059ec:	2200      	movs	r2, #0
 80059ee:	6042      	str	r2, [r0, #4]
 80059f0:	2204      	movs	r2, #4
 80059f2:	f102 0614 	add.w	r6, r2, #20
 80059f6:	429e      	cmp	r6, r3
 80059f8:	6841      	ldr	r1, [r0, #4]
 80059fa:	d93d      	bls.n	8005a78 <_dtoa_r+0x318>
 80059fc:	4620      	mov	r0, r4
 80059fe:	f000 fcb7 	bl	8006370 <_Balloc>
 8005a02:	9001      	str	r0, [sp, #4]
 8005a04:	2800      	cmp	r0, #0
 8005a06:	d13b      	bne.n	8005a80 <_dtoa_r+0x320>
 8005a08:	4b11      	ldr	r3, [pc, #68]	; (8005a50 <_dtoa_r+0x2f0>)
 8005a0a:	4602      	mov	r2, r0
 8005a0c:	f44f 71d5 	mov.w	r1, #426	; 0x1aa
 8005a10:	e6c0      	b.n	8005794 <_dtoa_r+0x34>
 8005a12:	2301      	movs	r3, #1
 8005a14:	e7df      	b.n	80059d6 <_dtoa_r+0x276>
 8005a16:	bf00      	nop
 8005a18:	636f4361 	.word	0x636f4361
 8005a1c:	3fd287a7 	.word	0x3fd287a7
 8005a20:	8b60c8b3 	.word	0x8b60c8b3
 8005a24:	3fc68a28 	.word	0x3fc68a28
 8005a28:	509f79fb 	.word	0x509f79fb
 8005a2c:	3fd34413 	.word	0x3fd34413
 8005a30:	08008675 	.word	0x08008675
 8005a34:	0800868c 	.word	0x0800868c
 8005a38:	7ff00000 	.word	0x7ff00000
 8005a3c:	08008671 	.word	0x08008671
 8005a40:	08008668 	.word	0x08008668
 8005a44:	08008645 	.word	0x08008645
 8005a48:	3ff80000 	.word	0x3ff80000
 8005a4c:	08008780 	.word	0x08008780
 8005a50:	080086e7 	.word	0x080086e7
 8005a54:	2501      	movs	r5, #1
 8005a56:	2300      	movs	r3, #0
 8005a58:	9306      	str	r3, [sp, #24]
 8005a5a:	9508      	str	r5, [sp, #32]
 8005a5c:	f04f 33ff 	mov.w	r3, #4294967295
 8005a60:	e9cd 3302 	strd	r3, r3, [sp, #8]
 8005a64:	2200      	movs	r2, #0
 8005a66:	2312      	movs	r3, #18
 8005a68:	e7b0      	b.n	80059cc <_dtoa_r+0x26c>
 8005a6a:	2301      	movs	r3, #1
 8005a6c:	9308      	str	r3, [sp, #32]
 8005a6e:	e7f5      	b.n	8005a5c <_dtoa_r+0x2fc>
 8005a70:	9b09      	ldr	r3, [sp, #36]	; 0x24
 8005a72:	e9cd 3302 	strd	r3, r3, [sp, #8]
 8005a76:	e7b8      	b.n	80059ea <_dtoa_r+0x28a>
 8005a78:	3101      	adds	r1, #1
 8005a7a:	6041      	str	r1, [r0, #4]
 8005a7c:	0052      	lsls	r2, r2, #1
 8005a7e:	e7b8      	b.n	80059f2 <_dtoa_r+0x292>
 8005a80:	6a63      	ldr	r3, [r4, #36]	; 0x24
 8005a82:	9a01      	ldr	r2, [sp, #4]
 8005a84:	601a      	str	r2, [r3, #0]
 8005a86:	9b03      	ldr	r3, [sp, #12]
 8005a88:	2b0e      	cmp	r3, #14
 8005a8a:	f200 809d 	bhi.w	8005bc8 <_dtoa_r+0x468>
 8005a8e:	2d00      	cmp	r5, #0
 8005a90:	f000 809a 	beq.w	8005bc8 <_dtoa_r+0x468>
 8005a94:	9b00      	ldr	r3, [sp, #0]
 8005a96:	2b00      	cmp	r3, #0
 8005a98:	dd32      	ble.n	8005b00 <_dtoa_r+0x3a0>
 8005a9a:	4ab7      	ldr	r2, [pc, #732]	; (8005d78 <_dtoa_r+0x618>)
 8005a9c:	f003 030f 	and.w	r3, r3, #15
 8005aa0:	eb02 03c3 	add.w	r3, r2, r3, lsl #3
 8005aa4:	e9d3 8900 	ldrd	r8, r9, [r3]
 8005aa8:	9b00      	ldr	r3, [sp, #0]
 8005aaa:	05d8      	lsls	r0, r3, #23
 8005aac:	ea4f 1723 	mov.w	r7, r3, asr #4
 8005ab0:	d516      	bpl.n	8005ae0 <_dtoa_r+0x380>
 8005ab2:	4bb2      	ldr	r3, [pc, #712]	; (8005d7c <_dtoa_r+0x61c>)
 8005ab4:	ec51 0b19 	vmov	r0, r1, d9
 8005ab8:	e9d3 2308 	ldrd	r2, r3, [r3, #32]
 8005abc:	f7fa fede 	bl	800087c <__aeabi_ddiv>
 8005ac0:	f007 070f 	and.w	r7, r7, #15
 8005ac4:	4682      	mov	sl, r0
 8005ac6:	468b      	mov	fp, r1
 8005ac8:	2503      	movs	r5, #3
 8005aca:	4eac      	ldr	r6, [pc, #688]	; (8005d7c <_dtoa_r+0x61c>)
 8005acc:	b957      	cbnz	r7, 8005ae4 <_dtoa_r+0x384>
 8005ace:	4642      	mov	r2, r8
 8005ad0:	464b      	mov	r3, r9
 8005ad2:	4650      	mov	r0, sl
 8005ad4:	4659      	mov	r1, fp
 8005ad6:	f7fa fed1 	bl	800087c <__aeabi_ddiv>
 8005ada:	4682      	mov	sl, r0
 8005adc:	468b      	mov	fp, r1
 8005ade:	e028      	b.n	8005b32 <_dtoa_r+0x3d2>
 8005ae0:	2502      	movs	r5, #2
 8005ae2:	e7f2      	b.n	8005aca <_dtoa_r+0x36a>
 8005ae4:	07f9      	lsls	r1, r7, #31
 8005ae6:	d508      	bpl.n	8005afa <_dtoa_r+0x39a>
 8005ae8:	4640      	mov	r0, r8
 8005aea:	4649      	mov	r1, r9
 8005aec:	e9d6 2300 	ldrd	r2, r3, [r6]
 8005af0:	f7fa fd9a 	bl	8000628 <__aeabi_dmul>
 8005af4:	3501      	adds	r5, #1
 8005af6:	4680      	mov	r8, r0
 8005af8:	4689      	mov	r9, r1
 8005afa:	107f      	asrs	r7, r7, #1
 8005afc:	3608      	adds	r6, #8
 8005afe:	e7e5      	b.n	8005acc <_dtoa_r+0x36c>
 8005b00:	f000 809b 	beq.w	8005c3a <_dtoa_r+0x4da>
 8005b04:	9b00      	ldr	r3, [sp, #0]
 8005b06:	4f9d      	ldr	r7, [pc, #628]	; (8005d7c <_dtoa_r+0x61c>)
 8005b08:	425e      	negs	r6, r3
 8005b0a:	4b9b      	ldr	r3, [pc, #620]	; (8005d78 <_dtoa_r+0x618>)
 8005b0c:	f006 020f 	and.w	r2, r6, #15
 8005b10:	eb03 03c2 	add.w	r3, r3, r2, lsl #3
 8005b14:	e9d3 2300 	ldrd	r2, r3, [r3]
 8005b18:	ec51 0b19 	vmov	r0, r1, d9
 8005b1c:	f7fa fd84 	bl	8000628 <__aeabi_dmul>
 8005b20:	1136      	asrs	r6, r6, #4
 8005b22:	4682      	mov	sl, r0
 8005b24:	468b      	mov	fp, r1
 8005b26:	2300      	movs	r3, #0
 8005b28:	2502      	movs	r5, #2
 8005b2a:	2e00      	cmp	r6, #0
 8005b2c:	d17a      	bne.n	8005c24 <_dtoa_r+0x4c4>
 8005b2e:	2b00      	cmp	r3, #0
 8005b30:	d1d3      	bne.n	8005ada <_dtoa_r+0x37a>
 8005b32:	9b0b      	ldr	r3, [sp, #44]	; 0x2c
 8005b34:	2b00      	cmp	r3, #0
 8005b36:	f000 8082 	beq.w	8005c3e <_dtoa_r+0x4de>
 8005b3a:	4b91      	ldr	r3, [pc, #580]	; (8005d80 <_dtoa_r+0x620>)
 8005b3c:	2200      	movs	r2, #0
 8005b3e:	4650      	mov	r0, sl
 8005b40:	4659      	mov	r1, fp
 8005b42:	f7fa ffe3 	bl	8000b0c <__aeabi_dcmplt>
 8005b46:	2800      	cmp	r0, #0
 8005b48:	d079      	beq.n	8005c3e <_dtoa_r+0x4de>
 8005b4a:	9b03      	ldr	r3, [sp, #12]
 8005b4c:	2b00      	cmp	r3, #0
 8005b4e:	d076      	beq.n	8005c3e <_dtoa_r+0x4de>
 8005b50:	9b02      	ldr	r3, [sp, #8]
 8005b52:	2b00      	cmp	r3, #0
 8005b54:	dd36      	ble.n	8005bc4 <_dtoa_r+0x464>
 8005b56:	9b00      	ldr	r3, [sp, #0]
 8005b58:	4650      	mov	r0, sl
 8005b5a:	4659      	mov	r1, fp
 8005b5c:	1e5f      	subs	r7, r3, #1
 8005b5e:	2200      	movs	r2, #0
 8005b60:	4b88      	ldr	r3, [pc, #544]	; (8005d84 <_dtoa_r+0x624>)
 8005b62:	f7fa fd61 	bl	8000628 <__aeabi_dmul>
 8005b66:	9e02      	ldr	r6, [sp, #8]
 8005b68:	4682      	mov	sl, r0
 8005b6a:	468b      	mov	fp, r1
 8005b6c:	3501      	adds	r5, #1
 8005b6e:	4628      	mov	r0, r5
 8005b70:	f7fa fcf0 	bl	8000554 <__aeabi_i2d>
 8005b74:	4652      	mov	r2, sl
 8005b76:	465b      	mov	r3, fp
 8005b78:	f7fa fd56 	bl	8000628 <__aeabi_dmul>
 8005b7c:	4b82      	ldr	r3, [pc, #520]	; (8005d88 <_dtoa_r+0x628>)
 8005b7e:	2200      	movs	r2, #0
 8005b80:	f7fa fb9c 	bl	80002bc <__adddf3>
 8005b84:	46d0      	mov	r8, sl
 8005b86:	46d9      	mov	r9, fp
 8005b88:	4682      	mov	sl, r0
 8005b8a:	f1a1 7b50 	sub.w	fp, r1, #54525952	; 0x3400000
 8005b8e:	2e00      	cmp	r6, #0
 8005b90:	d158      	bne.n	8005c44 <_dtoa_r+0x4e4>
 8005b92:	4b7e      	ldr	r3, [pc, #504]	; (8005d8c <_dtoa_r+0x62c>)
 8005b94:	2200      	movs	r2, #0
 8005b96:	4640      	mov	r0, r8
 8005b98:	4649      	mov	r1, r9
 8005b9a:	f7fa fb8d 	bl	80002b8 <__aeabi_dsub>
 8005b9e:	4652      	mov	r2, sl
 8005ba0:	465b      	mov	r3, fp
 8005ba2:	4680      	mov	r8, r0
 8005ba4:	4689      	mov	r9, r1
 8005ba6:	f7fa ffcf 	bl	8000b48 <__aeabi_dcmpgt>
 8005baa:	2800      	cmp	r0, #0
 8005bac:	f040 8295 	bne.w	80060da <_dtoa_r+0x97a>
 8005bb0:	4652      	mov	r2, sl
 8005bb2:	f10b 4300 	add.w	r3, fp, #2147483648	; 0x80000000
 8005bb6:	4640      	mov	r0, r8
 8005bb8:	4649      	mov	r1, r9
 8005bba:	f7fa ffa7 	bl	8000b0c <__aeabi_dcmplt>
 8005bbe:	2800      	cmp	r0, #0
 8005bc0:	f040 8289 	bne.w	80060d6 <_dtoa_r+0x976>
 8005bc4:	ec5b ab19 	vmov	sl, fp, d9
 8005bc8:	9b11      	ldr	r3, [sp, #68]	; 0x44
 8005bca:	2b00      	cmp	r3, #0
 8005bcc:	f2c0 8148 	blt.w	8005e60 <_dtoa_r+0x700>
 8005bd0:	9a00      	ldr	r2, [sp, #0]
 8005bd2:	2a0e      	cmp	r2, #14
 8005bd4:	f300 8144 	bgt.w	8005e60 <_dtoa_r+0x700>
 8005bd8:	4b67      	ldr	r3, [pc, #412]	; (8005d78 <_dtoa_r+0x618>)
 8005bda:	eb03 03c2 	add.w	r3, r3, r2, lsl #3
 8005bde:	e9d3 8900 	ldrd	r8, r9, [r3]
 8005be2:	9b09      	ldr	r3, [sp, #36]	; 0x24
 8005be4:	2b00      	cmp	r3, #0
 8005be6:	f280 80d5 	bge.w	8005d94 <_dtoa_r+0x634>
 8005bea:	9b03      	ldr	r3, [sp, #12]
 8005bec:	2b00      	cmp	r3, #0
 8005bee:	f300 80d1 	bgt.w	8005d94 <_dtoa_r+0x634>
 8005bf2:	f040 826f 	bne.w	80060d4 <_dtoa_r+0x974>
 8005bf6:	4b65      	ldr	r3, [pc, #404]	; (8005d8c <_dtoa_r+0x62c>)
 8005bf8:	2200      	movs	r2, #0
 8005bfa:	4640      	mov	r0, r8
 8005bfc:	4649      	mov	r1, r9
 8005bfe:	f7fa fd13 	bl	8000628 <__aeabi_dmul>
 8005c02:	4652      	mov	r2, sl
 8005c04:	465b      	mov	r3, fp
 8005c06:	f7fa ff95 	bl	8000b34 <__aeabi_dcmpge>
 8005c0a:	9e03      	ldr	r6, [sp, #12]
 8005c0c:	4637      	mov	r7, r6
 8005c0e:	2800      	cmp	r0, #0
 8005c10:	f040 8245 	bne.w	800609e <_dtoa_r+0x93e>
 8005c14:	9d01      	ldr	r5, [sp, #4]
 8005c16:	2331      	movs	r3, #49	; 0x31
 8005c18:	f805 3b01 	strb.w	r3, [r5], #1
 8005c1c:	9b00      	ldr	r3, [sp, #0]
 8005c1e:	3301      	adds	r3, #1
 8005c20:	9300      	str	r3, [sp, #0]
 8005c22:	e240      	b.n	80060a6 <_dtoa_r+0x946>
 8005c24:	07f2      	lsls	r2, r6, #31
 8005c26:	d505      	bpl.n	8005c34 <_dtoa_r+0x4d4>
 8005c28:	e9d7 2300 	ldrd	r2, r3, [r7]
 8005c2c:	f7fa fcfc 	bl	8000628 <__aeabi_dmul>
 8005c30:	3501      	adds	r5, #1
 8005c32:	2301      	movs	r3, #1
 8005c34:	1076      	asrs	r6, r6, #1
 8005c36:	3708      	adds	r7, #8
 8005c38:	e777      	b.n	8005b2a <_dtoa_r+0x3ca>
 8005c3a:	2502      	movs	r5, #2
 8005c3c:	e779      	b.n	8005b32 <_dtoa_r+0x3d2>
 8005c3e:	9f00      	ldr	r7, [sp, #0]
 8005c40:	9e03      	ldr	r6, [sp, #12]
 8005c42:	e794      	b.n	8005b6e <_dtoa_r+0x40e>
 8005c44:	9901      	ldr	r1, [sp, #4]
 8005c46:	4b4c      	ldr	r3, [pc, #304]	; (8005d78 <_dtoa_r+0x618>)
 8005c48:	4431      	add	r1, r6
 8005c4a:	910d      	str	r1, [sp, #52]	; 0x34
 8005c4c:	9908      	ldr	r1, [sp, #32]
 8005c4e:	eb03 03c6 	add.w	r3, r3, r6, lsl #3
 8005c52:	e953 2302 	ldrd	r2, r3, [r3, #-8]
 8005c56:	2900      	cmp	r1, #0
 8005c58:	d043      	beq.n	8005ce2 <_dtoa_r+0x582>
 8005c5a:	494d      	ldr	r1, [pc, #308]	; (8005d90 <_dtoa_r+0x630>)
 8005c5c:	2000      	movs	r0, #0
 8005c5e:	f7fa fe0d 	bl	800087c <__aeabi_ddiv>
 8005c62:	4652      	mov	r2, sl
 8005c64:	465b      	mov	r3, fp
 8005c66:	f7fa fb27 	bl	80002b8 <__aeabi_dsub>
 8005c6a:	9d01      	ldr	r5, [sp, #4]
 8005c6c:	4682      	mov	sl, r0
 8005c6e:	468b      	mov	fp, r1
 8005c70:	4649      	mov	r1, r9
 8005c72:	4640      	mov	r0, r8
 8005c74:	f7fa ff88 	bl	8000b88 <__aeabi_d2iz>
 8005c78:	4606      	mov	r6, r0
 8005c7a:	f7fa fc6b 	bl	8000554 <__aeabi_i2d>
 8005c7e:	4602      	mov	r2, r0
 8005c80:	460b      	mov	r3, r1
 8005c82:	4640      	mov	r0, r8
 8005c84:	4649      	mov	r1, r9
 8005c86:	f7fa fb17 	bl	80002b8 <__aeabi_dsub>
 8005c8a:	3630      	adds	r6, #48	; 0x30
 8005c8c:	f805 6b01 	strb.w	r6, [r5], #1
 8005c90:	4652      	mov	r2, sl
 8005c92:	465b      	mov	r3, fp
 8005c94:	4680      	mov	r8, r0
 8005c96:	4689      	mov	r9, r1
 8005c98:	f7fa ff38 	bl	8000b0c <__aeabi_dcmplt>
 8005c9c:	2800      	cmp	r0, #0
 8005c9e:	d163      	bne.n	8005d68 <_dtoa_r+0x608>
 8005ca0:	4642      	mov	r2, r8
 8005ca2:	464b      	mov	r3, r9
 8005ca4:	4936      	ldr	r1, [pc, #216]	; (8005d80 <_dtoa_r+0x620>)
 8005ca6:	2000      	movs	r0, #0
 8005ca8:	f7fa fb06 	bl	80002b8 <__aeabi_dsub>
 8005cac:	4652      	mov	r2, sl
 8005cae:	465b      	mov	r3, fp
 8005cb0:	f7fa ff2c 	bl	8000b0c <__aeabi_dcmplt>
 8005cb4:	2800      	cmp	r0, #0
 8005cb6:	f040 80b5 	bne.w	8005e24 <_dtoa_r+0x6c4>
 8005cba:	9b0d      	ldr	r3, [sp, #52]	; 0x34
 8005cbc:	429d      	cmp	r5, r3
 8005cbe:	d081      	beq.n	8005bc4 <_dtoa_r+0x464>
 8005cc0:	4b30      	ldr	r3, [pc, #192]	; (8005d84 <_dtoa_r+0x624>)
 8005cc2:	2200      	movs	r2, #0
 8005cc4:	4650      	mov	r0, sl
 8005cc6:	4659      	mov	r1, fp
 8005cc8:	f7fa fcae 	bl	8000628 <__aeabi_dmul>
 8005ccc:	4b2d      	ldr	r3, [pc, #180]	; (8005d84 <_dtoa_r+0x624>)
 8005cce:	4682      	mov	sl, r0
 8005cd0:	468b      	mov	fp, r1
 8005cd2:	4640      	mov	r0, r8
 8005cd4:	4649      	mov	r1, r9
 8005cd6:	2200      	movs	r2, #0
 8005cd8:	f7fa fca6 	bl	8000628 <__aeabi_dmul>
 8005cdc:	4680      	mov	r8, r0
 8005cde:	4689      	mov	r9, r1
 8005ce0:	e7c6      	b.n	8005c70 <_dtoa_r+0x510>
 8005ce2:	4650      	mov	r0, sl
 8005ce4:	4659      	mov	r1, fp
 8005ce6:	f7fa fc9f 	bl	8000628 <__aeabi_dmul>
 8005cea:	9b0d      	ldr	r3, [sp, #52]	; 0x34
 8005cec:	9d01      	ldr	r5, [sp, #4]
 8005cee:	930f      	str	r3, [sp, #60]	; 0x3c
 8005cf0:	4682      	mov	sl, r0
 8005cf2:	468b      	mov	fp, r1
 8005cf4:	4649      	mov	r1, r9
 8005cf6:	4640      	mov	r0, r8
 8005cf8:	f7fa ff46 	bl	8000b88 <__aeabi_d2iz>
 8005cfc:	4606      	mov	r6, r0
 8005cfe:	f7fa fc29 	bl	8000554 <__aeabi_i2d>
 8005d02:	3630      	adds	r6, #48	; 0x30
 8005d04:	4602      	mov	r2, r0
 8005d06:	460b      	mov	r3, r1
 8005d08:	4640      	mov	r0, r8
 8005d0a:	4649      	mov	r1, r9
 8005d0c:	f7fa fad4 	bl	80002b8 <__aeabi_dsub>
 8005d10:	f805 6b01 	strb.w	r6, [r5], #1
 8005d14:	9b0d      	ldr	r3, [sp, #52]	; 0x34
 8005d16:	429d      	cmp	r5, r3
 8005d18:	4680      	mov	r8, r0
 8005d1a:	4689      	mov	r9, r1
 8005d1c:	f04f 0200 	mov.w	r2, #0
 8005d20:	d124      	bne.n	8005d6c <_dtoa_r+0x60c>
 8005d22:	4b1b      	ldr	r3, [pc, #108]	; (8005d90 <_dtoa_r+0x630>)
 8005d24:	4650      	mov	r0, sl
 8005d26:	4659      	mov	r1, fp
 8005d28:	f7fa fac8 	bl	80002bc <__adddf3>
 8005d2c:	4602      	mov	r2, r0
 8005d2e:	460b      	mov	r3, r1
 8005d30:	4640      	mov	r0, r8
 8005d32:	4649      	mov	r1, r9
 8005d34:	f7fa ff08 	bl	8000b48 <__aeabi_dcmpgt>
 8005d38:	2800      	cmp	r0, #0
 8005d3a:	d173      	bne.n	8005e24 <_dtoa_r+0x6c4>
 8005d3c:	4652      	mov	r2, sl
 8005d3e:	465b      	mov	r3, fp
 8005d40:	4913      	ldr	r1, [pc, #76]	; (8005d90 <_dtoa_r+0x630>)
 8005d42:	2000      	movs	r0, #0
 8005d44:	f7fa fab8 	bl	80002b8 <__aeabi_dsub>
 8005d48:	4602      	mov	r2, r0
 8005d4a:	460b      	mov	r3, r1
 8005d4c:	4640      	mov	r0, r8
 8005d4e:	4649      	mov	r1, r9
 8005d50:	f7fa fedc 	bl	8000b0c <__aeabi_dcmplt>
 8005d54:	2800      	cmp	r0, #0
 8005d56:	f43f af35 	beq.w	8005bc4 <_dtoa_r+0x464>
 8005d5a:	9d0f      	ldr	r5, [sp, #60]	; 0x3c
 8005d5c:	1e6b      	subs	r3, r5, #1
 8005d5e:	930f      	str	r3, [sp, #60]	; 0x3c
 8005d60:	f815 3c01 	ldrb.w	r3, [r5, #-1]
 8005d64:	2b30      	cmp	r3, #48	; 0x30
 8005d66:	d0f8      	beq.n	8005d5a <_dtoa_r+0x5fa>
 8005d68:	9700      	str	r7, [sp, #0]
 8005d6a:	e049      	b.n	8005e00 <_dtoa_r+0x6a0>
 8005d6c:	4b05      	ldr	r3, [pc, #20]	; (8005d84 <_dtoa_r+0x624>)
 8005d6e:	f7fa fc5b 	bl	8000628 <__aeabi_dmul>
 8005d72:	4680      	mov	r8, r0
 8005d74:	4689      	mov	r9, r1
 8005d76:	e7bd      	b.n	8005cf4 <_dtoa_r+0x594>
 8005d78:	08008780 	.word	0x08008780
 8005d7c:	08008758 	.word	0x08008758
 8005d80:	3ff00000 	.word	0x3ff00000
 8005d84:	40240000 	.word	0x40240000
 8005d88:	401c0000 	.word	0x401c0000
 8005d8c:	40140000 	.word	0x40140000
 8005d90:	3fe00000 	.word	0x3fe00000
 8005d94:	9d01      	ldr	r5, [sp, #4]
 8005d96:	4656      	mov	r6, sl
 8005d98:	465f      	mov	r7, fp
 8005d9a:	4642      	mov	r2, r8
 8005d9c:	464b      	mov	r3, r9
 8005d9e:	4630      	mov	r0, r6
 8005da0:	4639      	mov	r1, r7
 8005da2:	f7fa fd6b 	bl	800087c <__aeabi_ddiv>
 8005da6:	f7fa feef 	bl	8000b88 <__aeabi_d2iz>
 8005daa:	4682      	mov	sl, r0
 8005dac:	f7fa fbd2 	bl	8000554 <__aeabi_i2d>
 8005db0:	4642      	mov	r2, r8
 8005db2:	464b      	mov	r3, r9
 8005db4:	f7fa fc38 	bl	8000628 <__aeabi_dmul>
 8005db8:	4602      	mov	r2, r0
 8005dba:	460b      	mov	r3, r1
 8005dbc:	4630      	mov	r0, r6
 8005dbe:	4639      	mov	r1, r7
 8005dc0:	f10a 0630 	add.w	r6, sl, #48	; 0x30
 8005dc4:	f7fa fa78 	bl	80002b8 <__aeabi_dsub>
 8005dc8:	f805 6b01 	strb.w	r6, [r5], #1
 8005dcc:	9e01      	ldr	r6, [sp, #4]
 8005dce:	9f03      	ldr	r7, [sp, #12]
 8005dd0:	1bae      	subs	r6, r5, r6
 8005dd2:	42b7      	cmp	r7, r6
 8005dd4:	4602      	mov	r2, r0
 8005dd6:	460b      	mov	r3, r1
 8005dd8:	d135      	bne.n	8005e46 <_dtoa_r+0x6e6>
 8005dda:	f7fa fa6f 	bl	80002bc <__adddf3>
 8005dde:	4642      	mov	r2, r8
 8005de0:	464b      	mov	r3, r9
 8005de2:	4606      	mov	r6, r0
 8005de4:	460f      	mov	r7, r1
 8005de6:	f7fa feaf 	bl	8000b48 <__aeabi_dcmpgt>
 8005dea:	b9d0      	cbnz	r0, 8005e22 <_dtoa_r+0x6c2>
 8005dec:	4642      	mov	r2, r8
 8005dee:	464b      	mov	r3, r9
 8005df0:	4630      	mov	r0, r6
 8005df2:	4639      	mov	r1, r7
 8005df4:	f7fa fe80 	bl	8000af8 <__aeabi_dcmpeq>
 8005df8:	b110      	cbz	r0, 8005e00 <_dtoa_r+0x6a0>
 8005dfa:	f01a 0f01 	tst.w	sl, #1
 8005dfe:	d110      	bne.n	8005e22 <_dtoa_r+0x6c2>
 8005e00:	4620      	mov	r0, r4
 8005e02:	ee18 1a10 	vmov	r1, s16
 8005e06:	f000 faf3 	bl	80063f0 <_Bfree>
 8005e0a:	2300      	movs	r3, #0
 8005e0c:	9800      	ldr	r0, [sp, #0]
 8005e0e:	702b      	strb	r3, [r5, #0]
 8005e10:	9b0c      	ldr	r3, [sp, #48]	; 0x30
 8005e12:	3001      	adds	r0, #1
 8005e14:	6018      	str	r0, [r3, #0]
 8005e16:	9b21      	ldr	r3, [sp, #132]	; 0x84
 8005e18:	2b00      	cmp	r3, #0
 8005e1a:	f43f acf1 	beq.w	8005800 <_dtoa_r+0xa0>
 8005e1e:	601d      	str	r5, [r3, #0]
 8005e20:	e4ee      	b.n	8005800 <_dtoa_r+0xa0>
 8005e22:	9f00      	ldr	r7, [sp, #0]
 8005e24:	462b      	mov	r3, r5
 8005e26:	461d      	mov	r5, r3
 8005e28:	f813 2d01 	ldrb.w	r2, [r3, #-1]!
 8005e2c:	2a39      	cmp	r2, #57	; 0x39
 8005e2e:	d106      	bne.n	8005e3e <_dtoa_r+0x6de>
 8005e30:	9a01      	ldr	r2, [sp, #4]
 8005e32:	429a      	cmp	r2, r3
 8005e34:	d1f7      	bne.n	8005e26 <_dtoa_r+0x6c6>
 8005e36:	9901      	ldr	r1, [sp, #4]
 8005e38:	2230      	movs	r2, #48	; 0x30
 8005e3a:	3701      	adds	r7, #1
 8005e3c:	700a      	strb	r2, [r1, #0]
 8005e3e:	781a      	ldrb	r2, [r3, #0]
 8005e40:	3201      	adds	r2, #1
 8005e42:	701a      	strb	r2, [r3, #0]
 8005e44:	e790      	b.n	8005d68 <_dtoa_r+0x608>
 8005e46:	4ba6      	ldr	r3, [pc, #664]	; (80060e0 <_dtoa_r+0x980>)
 8005e48:	2200      	movs	r2, #0
 8005e4a:	f7fa fbed 	bl	8000628 <__aeabi_dmul>
 8005e4e:	2200      	movs	r2, #0
 8005e50:	2300      	movs	r3, #0
 8005e52:	4606      	mov	r6, r0
 8005e54:	460f      	mov	r7, r1
 8005e56:	f7fa fe4f 	bl	8000af8 <__aeabi_dcmpeq>
 8005e5a:	2800      	cmp	r0, #0
 8005e5c:	d09d      	beq.n	8005d9a <_dtoa_r+0x63a>
 8005e5e:	e7cf      	b.n	8005e00 <_dtoa_r+0x6a0>
 8005e60:	9a08      	ldr	r2, [sp, #32]
 8005e62:	2a00      	cmp	r2, #0
 8005e64:	f000 80d7 	beq.w	8006016 <_dtoa_r+0x8b6>
 8005e68:	9a06      	ldr	r2, [sp, #24]
 8005e6a:	2a01      	cmp	r2, #1
 8005e6c:	f300 80ba 	bgt.w	8005fe4 <_dtoa_r+0x884>
 8005e70:	9a0e      	ldr	r2, [sp, #56]	; 0x38
 8005e72:	2a00      	cmp	r2, #0
 8005e74:	f000 80b2 	beq.w	8005fdc <_dtoa_r+0x87c>
 8005e78:	f203 4333 	addw	r3, r3, #1075	; 0x433
 8005e7c:	9e07      	ldr	r6, [sp, #28]
 8005e7e:	9d04      	ldr	r5, [sp, #16]
 8005e80:	9a04      	ldr	r2, [sp, #16]
 8005e82:	441a      	add	r2, r3
 8005e84:	9204      	str	r2, [sp, #16]
 8005e86:	9a05      	ldr	r2, [sp, #20]
 8005e88:	2101      	movs	r1, #1
 8005e8a:	441a      	add	r2, r3
 8005e8c:	4620      	mov	r0, r4
 8005e8e:	9205      	str	r2, [sp, #20]
 8005e90:	f000 fb66 	bl	8006560 <__i2b>
 8005e94:	4607      	mov	r7, r0
 8005e96:	2d00      	cmp	r5, #0
 8005e98:	dd0c      	ble.n	8005eb4 <_dtoa_r+0x754>
 8005e9a:	9b05      	ldr	r3, [sp, #20]
 8005e9c:	2b00      	cmp	r3, #0
 8005e9e:	dd09      	ble.n	8005eb4 <_dtoa_r+0x754>
 8005ea0:	42ab      	cmp	r3, r5
 8005ea2:	9a04      	ldr	r2, [sp, #16]
 8005ea4:	bfa8      	it	ge
 8005ea6:	462b      	movge	r3, r5
 8005ea8:	1ad2      	subs	r2, r2, r3
 8005eaa:	9204      	str	r2, [sp, #16]
 8005eac:	9a05      	ldr	r2, [sp, #20]
 8005eae:	1aed      	subs	r5, r5, r3
 8005eb0:	1ad3      	subs	r3, r2, r3
 8005eb2:	9305      	str	r3, [sp, #20]
 8005eb4:	9b07      	ldr	r3, [sp, #28]
 8005eb6:	b31b      	cbz	r3, 8005f00 <_dtoa_r+0x7a0>
 8005eb8:	9b08      	ldr	r3, [sp, #32]
 8005eba:	2b00      	cmp	r3, #0
 8005ebc:	f000 80af 	beq.w	800601e <_dtoa_r+0x8be>
 8005ec0:	2e00      	cmp	r6, #0
 8005ec2:	dd13      	ble.n	8005eec <_dtoa_r+0x78c>
 8005ec4:	4639      	mov	r1, r7
 8005ec6:	4632      	mov	r2, r6
 8005ec8:	4620      	mov	r0, r4
 8005eca:	f000 fc09 	bl	80066e0 <__pow5mult>
 8005ece:	ee18 2a10 	vmov	r2, s16
 8005ed2:	4601      	mov	r1, r0
 8005ed4:	4607      	mov	r7, r0
 8005ed6:	4620      	mov	r0, r4
 8005ed8:	f000 fb58 	bl	800658c <__multiply>
 8005edc:	ee18 1a10 	vmov	r1, s16
 8005ee0:	4680      	mov	r8, r0
 8005ee2:	4620      	mov	r0, r4
 8005ee4:	f000 fa84 	bl	80063f0 <_Bfree>
 8005ee8:	ee08 8a10 	vmov	s16, r8
 8005eec:	9b07      	ldr	r3, [sp, #28]
 8005eee:	1b9a      	subs	r2, r3, r6
 8005ef0:	d006      	beq.n	8005f00 <_dtoa_r+0x7a0>
 8005ef2:	ee18 1a10 	vmov	r1, s16
 8005ef6:	4620      	mov	r0, r4
 8005ef8:	f000 fbf2 	bl	80066e0 <__pow5mult>
 8005efc:	ee08 0a10 	vmov	s16, r0
 8005f00:	2101      	movs	r1, #1
 8005f02:	4620      	mov	r0, r4
 8005f04:	f000 fb2c 	bl	8006560 <__i2b>
 8005f08:	9b0a      	ldr	r3, [sp, #40]	; 0x28
 8005f0a:	2b00      	cmp	r3, #0
 8005f0c:	4606      	mov	r6, r0
 8005f0e:	f340 8088 	ble.w	8006022 <_dtoa_r+0x8c2>
 8005f12:	461a      	mov	r2, r3
 8005f14:	4601      	mov	r1, r0
 8005f16:	4620      	mov	r0, r4
 8005f18:	f000 fbe2 	bl	80066e0 <__pow5mult>
 8005f1c:	9b06      	ldr	r3, [sp, #24]
 8005f1e:	2b01      	cmp	r3, #1
 8005f20:	4606      	mov	r6, r0
 8005f22:	f340 8081 	ble.w	8006028 <_dtoa_r+0x8c8>
 8005f26:	f04f 0800 	mov.w	r8, #0
 8005f2a:	6933      	ldr	r3, [r6, #16]
 8005f2c:	eb06 0383 	add.w	r3, r6, r3, lsl #2
 8005f30:	6918      	ldr	r0, [r3, #16]
 8005f32:	f000 fac5 	bl	80064c0 <__hi0bits>
 8005f36:	f1c0 0020 	rsb	r0, r0, #32
 8005f3a:	9b05      	ldr	r3, [sp, #20]
 8005f3c:	4418      	add	r0, r3
 8005f3e:	f010 001f 	ands.w	r0, r0, #31
 8005f42:	f000 8092 	beq.w	800606a <_dtoa_r+0x90a>
 8005f46:	f1c0 0320 	rsb	r3, r0, #32
 8005f4a:	2b04      	cmp	r3, #4
 8005f4c:	f340 808a 	ble.w	8006064 <_dtoa_r+0x904>
 8005f50:	f1c0 001c 	rsb	r0, r0, #28
 8005f54:	9b04      	ldr	r3, [sp, #16]
 8005f56:	4403      	add	r3, r0
 8005f58:	9304      	str	r3, [sp, #16]
 8005f5a:	9b05      	ldr	r3, [sp, #20]
 8005f5c:	4403      	add	r3, r0
 8005f5e:	4405      	add	r5, r0
 8005f60:	9305      	str	r3, [sp, #20]
 8005f62:	9b04      	ldr	r3, [sp, #16]
 8005f64:	2b00      	cmp	r3, #0
 8005f66:	dd07      	ble.n	8005f78 <_dtoa_r+0x818>
 8005f68:	ee18 1a10 	vmov	r1, s16
 8005f6c:	461a      	mov	r2, r3
 8005f6e:	4620      	mov	r0, r4
 8005f70:	f000 fc10 	bl	8006794 <__lshift>
 8005f74:	ee08 0a10 	vmov	s16, r0
 8005f78:	9b05      	ldr	r3, [sp, #20]
 8005f7a:	2b00      	cmp	r3, #0
 8005f7c:	dd05      	ble.n	8005f8a <_dtoa_r+0x82a>
 8005f7e:	4631      	mov	r1, r6
 8005f80:	461a      	mov	r2, r3
 8005f82:	4620      	mov	r0, r4
 8005f84:	f000 fc06 	bl	8006794 <__lshift>
 8005f88:	4606      	mov	r6, r0
 8005f8a:	9b0b      	ldr	r3, [sp, #44]	; 0x2c
 8005f8c:	2b00      	cmp	r3, #0
 8005f8e:	d06e      	beq.n	800606e <_dtoa_r+0x90e>
 8005f90:	ee18 0a10 	vmov	r0, s16
 8005f94:	4631      	mov	r1, r6
 8005f96:	f000 fc6d 	bl	8006874 <__mcmp>
 8005f9a:	2800      	cmp	r0, #0
 8005f9c:	da67      	bge.n	800606e <_dtoa_r+0x90e>
 8005f9e:	9b00      	ldr	r3, [sp, #0]
 8005fa0:	3b01      	subs	r3, #1
 8005fa2:	ee18 1a10 	vmov	r1, s16
 8005fa6:	9300      	str	r3, [sp, #0]
 8005fa8:	220a      	movs	r2, #10
 8005faa:	2300      	movs	r3, #0
 8005fac:	4620      	mov	r0, r4
 8005fae:	f000 fa41 	bl	8006434 <__multadd>
 8005fb2:	9b08      	ldr	r3, [sp, #32]
 8005fb4:	ee08 0a10 	vmov	s16, r0
 8005fb8:	2b00      	cmp	r3, #0
 8005fba:	f000 81b1 	beq.w	8006320 <_dtoa_r+0xbc0>
 8005fbe:	2300      	movs	r3, #0
 8005fc0:	4639      	mov	r1, r7
 8005fc2:	220a      	movs	r2, #10
 8005fc4:	4620      	mov	r0, r4
 8005fc6:	f000 fa35 	bl	8006434 <__multadd>
 8005fca:	9b02      	ldr	r3, [sp, #8]
 8005fcc:	2b00      	cmp	r3, #0
 8005fce:	4607      	mov	r7, r0
 8005fd0:	f300 808e 	bgt.w	80060f0 <_dtoa_r+0x990>
 8005fd4:	9b06      	ldr	r3, [sp, #24]
 8005fd6:	2b02      	cmp	r3, #2
 8005fd8:	dc51      	bgt.n	800607e <_dtoa_r+0x91e>
 8005fda:	e089      	b.n	80060f0 <_dtoa_r+0x990>
 8005fdc:	9b10      	ldr	r3, [sp, #64]	; 0x40
 8005fde:	f1c3 0336 	rsb	r3, r3, #54	; 0x36
 8005fe2:	e74b      	b.n	8005e7c <_dtoa_r+0x71c>
 8005fe4:	9b03      	ldr	r3, [sp, #12]
 8005fe6:	1e5e      	subs	r6, r3, #1
 8005fe8:	9b07      	ldr	r3, [sp, #28]
 8005fea:	42b3      	cmp	r3, r6
 8005fec:	bfbf      	itttt	lt
 8005fee:	9b07      	ldrlt	r3, [sp, #28]
 8005ff0:	9607      	strlt	r6, [sp, #28]
 8005ff2:	1af2      	sublt	r2, r6, r3
 8005ff4:	9b0a      	ldrlt	r3, [sp, #40]	; 0x28
 8005ff6:	bfb6      	itet	lt
 8005ff8:	189b      	addlt	r3, r3, r2
 8005ffa:	1b9e      	subge	r6, r3, r6
 8005ffc:	930a      	strlt	r3, [sp, #40]	; 0x28
 8005ffe:	9b03      	ldr	r3, [sp, #12]
 8006000:	bfb8      	it	lt
 8006002:	2600      	movlt	r6, #0
 8006004:	2b00      	cmp	r3, #0
 8006006:	bfb7      	itett	lt
 8006008:	e9dd 2303 	ldrdlt	r2, r3, [sp, #12]
 800600c:	e9dd 3503 	ldrdge	r3, r5, [sp, #12]
 8006010:	1a9d      	sublt	r5, r3, r2
 8006012:	2300      	movlt	r3, #0
 8006014:	e734      	b.n	8005e80 <_dtoa_r+0x720>
 8006016:	9e07      	ldr	r6, [sp, #28]
 8006018:	9d04      	ldr	r5, [sp, #16]
 800601a:	9f08      	ldr	r7, [sp, #32]
 800601c:	e73b      	b.n	8005e96 <_dtoa_r+0x736>
 800601e:	9a07      	ldr	r2, [sp, #28]
 8006020:	e767      	b.n	8005ef2 <_dtoa_r+0x792>
 8006022:	9b06      	ldr	r3, [sp, #24]
 8006024:	2b01      	cmp	r3, #1
 8006026:	dc18      	bgt.n	800605a <_dtoa_r+0x8fa>
 8006028:	f1ba 0f00 	cmp.w	sl, #0
 800602c:	d115      	bne.n	800605a <_dtoa_r+0x8fa>
 800602e:	f3cb 0313 	ubfx	r3, fp, #0, #20
 8006032:	b993      	cbnz	r3, 800605a <_dtoa_r+0x8fa>
 8006034:	f02b 4300 	bic.w	r3, fp, #2147483648	; 0x80000000
 8006038:	0d1b      	lsrs	r3, r3, #20
 800603a:	051b      	lsls	r3, r3, #20
 800603c:	b183      	cbz	r3, 8006060 <_dtoa_r+0x900>
 800603e:	9b04      	ldr	r3, [sp, #16]
 8006040:	3301      	adds	r3, #1
 8006042:	9304      	str	r3, [sp, #16]
 8006044:	9b05      	ldr	r3, [sp, #20]
 8006046:	3301      	adds	r3, #1
 8006048:	9305      	str	r3, [sp, #20]
 800604a:	f04f 0801 	mov.w	r8, #1
 800604e:	9b0a      	ldr	r3, [sp, #40]	; 0x28
 8006050:	2b00      	cmp	r3, #0
 8006052:	f47f af6a 	bne.w	8005f2a <_dtoa_r+0x7ca>
 8006056:	2001      	movs	r0, #1
 8006058:	e76f      	b.n	8005f3a <_dtoa_r+0x7da>
 800605a:	f04f 0800 	mov.w	r8, #0
 800605e:	e7f6      	b.n	800604e <_dtoa_r+0x8ee>
 8006060:	4698      	mov	r8, r3
 8006062:	e7f4      	b.n	800604e <_dtoa_r+0x8ee>
 8006064:	f43f af7d 	beq.w	8005f62 <_dtoa_r+0x802>
 8006068:	4618      	mov	r0, r3
 800606a:	301c      	adds	r0, #28
 800606c:	e772      	b.n	8005f54 <_dtoa_r+0x7f4>
 800606e:	9b03      	ldr	r3, [sp, #12]
 8006070:	2b00      	cmp	r3, #0
 8006072:	dc37      	bgt.n	80060e4 <_dtoa_r+0x984>
 8006074:	9b06      	ldr	r3, [sp, #24]
 8006076:	2b02      	cmp	r3, #2
 8006078:	dd34      	ble.n	80060e4 <_dtoa_r+0x984>
 800607a:	9b03      	ldr	r3, [sp, #12]
 800607c:	9302      	str	r3, [sp, #8]
 800607e:	9b02      	ldr	r3, [sp, #8]
 8006080:	b96b      	cbnz	r3, 800609e <_dtoa_r+0x93e>
 8006082:	4631      	mov	r1, r6
 8006084:	2205      	movs	r2, #5
 8006086:	4620      	mov	r0, r4
 8006088:	f000 f9d4 	bl	8006434 <__multadd>
 800608c:	4601      	mov	r1, r0
 800608e:	4606      	mov	r6, r0
 8006090:	ee18 0a10 	vmov	r0, s16
 8006094:	f000 fbee 	bl	8006874 <__mcmp>
 8006098:	2800      	cmp	r0, #0
 800609a:	f73f adbb 	bgt.w	8005c14 <_dtoa_r+0x4b4>
 800609e:	9b09      	ldr	r3, [sp, #36]	; 0x24
 80060a0:	9d01      	ldr	r5, [sp, #4]
 80060a2:	43db      	mvns	r3, r3
 80060a4:	9300      	str	r3, [sp, #0]
 80060a6:	f04f 0800 	mov.w	r8, #0
 80060aa:	4631      	mov	r1, r6
 80060ac:	4620      	mov	r0, r4
 80060ae:	f000 f99f 	bl	80063f0 <_Bfree>
 80060b2:	2f00      	cmp	r7, #0
 80060b4:	f43f aea4 	beq.w	8005e00 <_dtoa_r+0x6a0>
 80060b8:	f1b8 0f00 	cmp.w	r8, #0
 80060bc:	d005      	beq.n	80060ca <_dtoa_r+0x96a>
 80060be:	45b8      	cmp	r8, r7
 80060c0:	d003      	beq.n	80060ca <_dtoa_r+0x96a>
 80060c2:	4641      	mov	r1, r8
 80060c4:	4620      	mov	r0, r4
 80060c6:	f000 f993 	bl	80063f0 <_Bfree>
 80060ca:	4639      	mov	r1, r7
 80060cc:	4620      	mov	r0, r4
 80060ce:	f000 f98f 	bl	80063f0 <_Bfree>
 80060d2:	e695      	b.n	8005e00 <_dtoa_r+0x6a0>
 80060d4:	2600      	movs	r6, #0
 80060d6:	4637      	mov	r7, r6
 80060d8:	e7e1      	b.n	800609e <_dtoa_r+0x93e>
 80060da:	9700      	str	r7, [sp, #0]
 80060dc:	4637      	mov	r7, r6
 80060de:	e599      	b.n	8005c14 <_dtoa_r+0x4b4>
 80060e0:	40240000 	.word	0x40240000
 80060e4:	9b08      	ldr	r3, [sp, #32]
 80060e6:	2b00      	cmp	r3, #0
 80060e8:	f000 80ca 	beq.w	8006280 <_dtoa_r+0xb20>
 80060ec:	9b03      	ldr	r3, [sp, #12]
 80060ee:	9302      	str	r3, [sp, #8]
 80060f0:	2d00      	cmp	r5, #0
 80060f2:	dd05      	ble.n	8006100 <_dtoa_r+0x9a0>
 80060f4:	4639      	mov	r1, r7
 80060f6:	462a      	mov	r2, r5
 80060f8:	4620      	mov	r0, r4
 80060fa:	f000 fb4b 	bl	8006794 <__lshift>
 80060fe:	4607      	mov	r7, r0
 8006100:	f1b8 0f00 	cmp.w	r8, #0
 8006104:	d05b      	beq.n	80061be <_dtoa_r+0xa5e>
 8006106:	6879      	ldr	r1, [r7, #4]
 8006108:	4620      	mov	r0, r4
 800610a:	f000 f931 	bl	8006370 <_Balloc>
 800610e:	4605      	mov	r5, r0
 8006110:	b928      	cbnz	r0, 800611e <_dtoa_r+0x9be>
 8006112:	4b87      	ldr	r3, [pc, #540]	; (8006330 <_dtoa_r+0xbd0>)
 8006114:	4602      	mov	r2, r0
 8006116:	f240 21ea 	movw	r1, #746	; 0x2ea
 800611a:	f7ff bb3b 	b.w	8005794 <_dtoa_r+0x34>
 800611e:	693a      	ldr	r2, [r7, #16]
 8006120:	3202      	adds	r2, #2
 8006122:	0092      	lsls	r2, r2, #2
 8006124:	f107 010c 	add.w	r1, r7, #12
 8006128:	300c      	adds	r0, #12
 800612a:	f000 f913 	bl	8006354 <memcpy>
 800612e:	2201      	movs	r2, #1
 8006130:	4629      	mov	r1, r5
 8006132:	4620      	mov	r0, r4
 8006134:	f000 fb2e 	bl	8006794 <__lshift>
 8006138:	9b01      	ldr	r3, [sp, #4]
 800613a:	f103 0901 	add.w	r9, r3, #1
 800613e:	e9dd 2301 	ldrd	r2, r3, [sp, #4]
 8006142:	4413      	add	r3, r2
 8006144:	9305      	str	r3, [sp, #20]
 8006146:	f00a 0301 	and.w	r3, sl, #1
 800614a:	46b8      	mov	r8, r7
 800614c:	9304      	str	r3, [sp, #16]
 800614e:	4607      	mov	r7, r0
 8006150:	4631      	mov	r1, r6
 8006152:	ee18 0a10 	vmov	r0, s16
 8006156:	f7ff fa77 	bl	8005648 <quorem>
 800615a:	4641      	mov	r1, r8
 800615c:	9002      	str	r0, [sp, #8]
 800615e:	f100 0a30 	add.w	sl, r0, #48	; 0x30
 8006162:	ee18 0a10 	vmov	r0, s16
 8006166:	f000 fb85 	bl	8006874 <__mcmp>
 800616a:	463a      	mov	r2, r7
 800616c:	9003      	str	r0, [sp, #12]
 800616e:	4631      	mov	r1, r6
 8006170:	4620      	mov	r0, r4
 8006172:	f000 fb9b 	bl	80068ac <__mdiff>
 8006176:	68c2      	ldr	r2, [r0, #12]
 8006178:	f109 3bff 	add.w	fp, r9, #4294967295
 800617c:	4605      	mov	r5, r0
 800617e:	bb02      	cbnz	r2, 80061c2 <_dtoa_r+0xa62>
 8006180:	4601      	mov	r1, r0
 8006182:	ee18 0a10 	vmov	r0, s16
 8006186:	f000 fb75 	bl	8006874 <__mcmp>
 800618a:	4602      	mov	r2, r0
 800618c:	4629      	mov	r1, r5
 800618e:	4620      	mov	r0, r4
 8006190:	9207      	str	r2, [sp, #28]
 8006192:	f000 f92d 	bl	80063f0 <_Bfree>
 8006196:	e9dd 3206 	ldrd	r3, r2, [sp, #24]
 800619a:	ea43 0102 	orr.w	r1, r3, r2
 800619e:	9b04      	ldr	r3, [sp, #16]
 80061a0:	430b      	orrs	r3, r1
 80061a2:	464d      	mov	r5, r9
 80061a4:	d10f      	bne.n	80061c6 <_dtoa_r+0xa66>
 80061a6:	f1ba 0f39 	cmp.w	sl, #57	; 0x39
 80061aa:	d02a      	beq.n	8006202 <_dtoa_r+0xaa2>
 80061ac:	9b03      	ldr	r3, [sp, #12]
 80061ae:	2b00      	cmp	r3, #0
 80061b0:	dd02      	ble.n	80061b8 <_dtoa_r+0xa58>
 80061b2:	9b02      	ldr	r3, [sp, #8]
 80061b4:	f103 0a31 	add.w	sl, r3, #49	; 0x31
 80061b8:	f88b a000 	strb.w	sl, [fp]
 80061bc:	e775      	b.n	80060aa <_dtoa_r+0x94a>
 80061be:	4638      	mov	r0, r7
 80061c0:	e7ba      	b.n	8006138 <_dtoa_r+0x9d8>
 80061c2:	2201      	movs	r2, #1
 80061c4:	e7e2      	b.n	800618c <_dtoa_r+0xa2c>
 80061c6:	9b03      	ldr	r3, [sp, #12]
 80061c8:	2b00      	cmp	r3, #0
 80061ca:	db04      	blt.n	80061d6 <_dtoa_r+0xa76>
 80061cc:	9906      	ldr	r1, [sp, #24]
 80061ce:	430b      	orrs	r3, r1
 80061d0:	9904      	ldr	r1, [sp, #16]
 80061d2:	430b      	orrs	r3, r1
 80061d4:	d122      	bne.n	800621c <_dtoa_r+0xabc>
 80061d6:	2a00      	cmp	r2, #0
 80061d8:	ddee      	ble.n	80061b8 <_dtoa_r+0xa58>
 80061da:	ee18 1a10 	vmov	r1, s16
 80061de:	2201      	movs	r2, #1
 80061e0:	4620      	mov	r0, r4
 80061e2:	f000 fad7 	bl	8006794 <__lshift>
 80061e6:	4631      	mov	r1, r6
 80061e8:	ee08 0a10 	vmov	s16, r0
 80061ec:	f000 fb42 	bl	8006874 <__mcmp>
 80061f0:	2800      	cmp	r0, #0
 80061f2:	dc03      	bgt.n	80061fc <_dtoa_r+0xa9c>
 80061f4:	d1e0      	bne.n	80061b8 <_dtoa_r+0xa58>
 80061f6:	f01a 0f01 	tst.w	sl, #1
 80061fa:	d0dd      	beq.n	80061b8 <_dtoa_r+0xa58>
 80061fc:	f1ba 0f39 	cmp.w	sl, #57	; 0x39
 8006200:	d1d7      	bne.n	80061b2 <_dtoa_r+0xa52>
 8006202:	2339      	movs	r3, #57	; 0x39
 8006204:	f88b 3000 	strb.w	r3, [fp]
 8006208:	462b      	mov	r3, r5
 800620a:	461d      	mov	r5, r3
 800620c:	3b01      	subs	r3, #1
 800620e:	f815 2c01 	ldrb.w	r2, [r5, #-1]
 8006212:	2a39      	cmp	r2, #57	; 0x39
 8006214:	d071      	beq.n	80062fa <_dtoa_r+0xb9a>
 8006216:	3201      	adds	r2, #1
 8006218:	701a      	strb	r2, [r3, #0]
 800621a:	e746      	b.n	80060aa <_dtoa_r+0x94a>
 800621c:	2a00      	cmp	r2, #0
 800621e:	dd07      	ble.n	8006230 <_dtoa_r+0xad0>
 8006220:	f1ba 0f39 	cmp.w	sl, #57	; 0x39
 8006224:	d0ed      	beq.n	8006202 <_dtoa_r+0xaa2>
 8006226:	f10a 0301 	add.w	r3, sl, #1
 800622a:	f88b 3000 	strb.w	r3, [fp]
 800622e:	e73c      	b.n	80060aa <_dtoa_r+0x94a>
 8006230:	9b05      	ldr	r3, [sp, #20]
 8006232:	f809 ac01 	strb.w	sl, [r9, #-1]
 8006236:	4599      	cmp	r9, r3
 8006238:	d047      	beq.n	80062ca <_dtoa_r+0xb6a>
 800623a:	ee18 1a10 	vmov	r1, s16
 800623e:	2300      	movs	r3, #0
 8006240:	220a      	movs	r2, #10
 8006242:	4620      	mov	r0, r4
 8006244:	f000 f8f6 	bl	8006434 <__multadd>
 8006248:	45b8      	cmp	r8, r7
 800624a:	ee08 0a10 	vmov	s16, r0
 800624e:	f04f 0300 	mov.w	r3, #0
 8006252:	f04f 020a 	mov.w	r2, #10
 8006256:	4641      	mov	r1, r8
 8006258:	4620      	mov	r0, r4
 800625a:	d106      	bne.n	800626a <_dtoa_r+0xb0a>
 800625c:	f000 f8ea 	bl	8006434 <__multadd>
 8006260:	4680      	mov	r8, r0
 8006262:	4607      	mov	r7, r0
 8006264:	f109 0901 	add.w	r9, r9, #1
 8006268:	e772      	b.n	8006150 <_dtoa_r+0x9f0>
 800626a:	f000 f8e3 	bl	8006434 <__multadd>
 800626e:	4639      	mov	r1, r7
 8006270:	4680      	mov	r8, r0
 8006272:	2300      	movs	r3, #0
 8006274:	220a      	movs	r2, #10
 8006276:	4620      	mov	r0, r4
 8006278:	f000 f8dc 	bl	8006434 <__multadd>
 800627c:	4607      	mov	r7, r0
 800627e:	e7f1      	b.n	8006264 <_dtoa_r+0xb04>
 8006280:	9b03      	ldr	r3, [sp, #12]
 8006282:	9302      	str	r3, [sp, #8]
 8006284:	9d01      	ldr	r5, [sp, #4]
 8006286:	ee18 0a10 	vmov	r0, s16
 800628a:	4631      	mov	r1, r6
 800628c:	f7ff f9dc 	bl	8005648 <quorem>
 8006290:	f100 0a30 	add.w	sl, r0, #48	; 0x30
 8006294:	9b01      	ldr	r3, [sp, #4]
 8006296:	f805 ab01 	strb.w	sl, [r5], #1
 800629a:	1aea      	subs	r2, r5, r3
 800629c:	9b02      	ldr	r3, [sp, #8]
 800629e:	4293      	cmp	r3, r2
 80062a0:	dd09      	ble.n	80062b6 <_dtoa_r+0xb56>
 80062a2:	ee18 1a10 	vmov	r1, s16
 80062a6:	2300      	movs	r3, #0
 80062a8:	220a      	movs	r2, #10
 80062aa:	4620      	mov	r0, r4
 80062ac:	f000 f8c2 	bl	8006434 <__multadd>
 80062b0:	ee08 0a10 	vmov	s16, r0
 80062b4:	e7e7      	b.n	8006286 <_dtoa_r+0xb26>
 80062b6:	9b02      	ldr	r3, [sp, #8]
 80062b8:	2b00      	cmp	r3, #0
 80062ba:	bfc8      	it	gt
 80062bc:	461d      	movgt	r5, r3
 80062be:	9b01      	ldr	r3, [sp, #4]
 80062c0:	bfd8      	it	le
 80062c2:	2501      	movle	r5, #1
 80062c4:	441d      	add	r5, r3
 80062c6:	f04f 0800 	mov.w	r8, #0
 80062ca:	ee18 1a10 	vmov	r1, s16
 80062ce:	2201      	movs	r2, #1
 80062d0:	4620      	mov	r0, r4
 80062d2:	f000 fa5f 	bl	8006794 <__lshift>
 80062d6:	4631      	mov	r1, r6
 80062d8:	ee08 0a10 	vmov	s16, r0
 80062dc:	f000 faca 	bl	8006874 <__mcmp>
 80062e0:	2800      	cmp	r0, #0
 80062e2:	dc91      	bgt.n	8006208 <_dtoa_r+0xaa8>
 80062e4:	d102      	bne.n	80062ec <_dtoa_r+0xb8c>
 80062e6:	f01a 0f01 	tst.w	sl, #1
 80062ea:	d18d      	bne.n	8006208 <_dtoa_r+0xaa8>
 80062ec:	462b      	mov	r3, r5
 80062ee:	461d      	mov	r5, r3
 80062f0:	f813 2d01 	ldrb.w	r2, [r3, #-1]!
 80062f4:	2a30      	cmp	r2, #48	; 0x30
 80062f6:	d0fa      	beq.n	80062ee <_dtoa_r+0xb8e>
 80062f8:	e6d7      	b.n	80060aa <_dtoa_r+0x94a>
 80062fa:	9a01      	ldr	r2, [sp, #4]
 80062fc:	429a      	cmp	r2, r3
 80062fe:	d184      	bne.n	800620a <_dtoa_r+0xaaa>
 8006300:	9b00      	ldr	r3, [sp, #0]
 8006302:	3301      	adds	r3, #1
 8006304:	9300      	str	r3, [sp, #0]
 8006306:	2331      	movs	r3, #49	; 0x31
 8006308:	7013      	strb	r3, [r2, #0]
 800630a:	e6ce      	b.n	80060aa <_dtoa_r+0x94a>
 800630c:	4b09      	ldr	r3, [pc, #36]	; (8006334 <_dtoa_r+0xbd4>)
 800630e:	f7ff ba95 	b.w	800583c <_dtoa_r+0xdc>
 8006312:	9b21      	ldr	r3, [sp, #132]	; 0x84
 8006314:	2b00      	cmp	r3, #0
 8006316:	f47f aa6e 	bne.w	80057f6 <_dtoa_r+0x96>
 800631a:	4b07      	ldr	r3, [pc, #28]	; (8006338 <_dtoa_r+0xbd8>)
 800631c:	f7ff ba8e 	b.w	800583c <_dtoa_r+0xdc>
 8006320:	9b02      	ldr	r3, [sp, #8]
 8006322:	2b00      	cmp	r3, #0
 8006324:	dcae      	bgt.n	8006284 <_dtoa_r+0xb24>
 8006326:	9b06      	ldr	r3, [sp, #24]
 8006328:	2b02      	cmp	r3, #2
 800632a:	f73f aea8 	bgt.w	800607e <_dtoa_r+0x91e>
 800632e:	e7a9      	b.n	8006284 <_dtoa_r+0xb24>
 8006330:	080086e7 	.word	0x080086e7
 8006334:	08008644 	.word	0x08008644
 8006338:	08008668 	.word	0x08008668

0800633c <_localeconv_r>:
 800633c:	4800      	ldr	r0, [pc, #0]	; (8006340 <_localeconv_r+0x4>)
 800633e:	4770      	bx	lr
 8006340:	200011a0 	.word	0x200011a0

08006344 <malloc>:
 8006344:	4b02      	ldr	r3, [pc, #8]	; (8006350 <malloc+0xc>)
 8006346:	4601      	mov	r1, r0
 8006348:	6818      	ldr	r0, [r3, #0]
 800634a:	f000 bc17 	b.w	8006b7c <_malloc_r>
 800634e:	bf00      	nop
 8006350:	2000104c 	.word	0x2000104c

08006354 <memcpy>:
 8006354:	440a      	add	r2, r1
 8006356:	4291      	cmp	r1, r2
 8006358:	f100 33ff 	add.w	r3, r0, #4294967295
 800635c:	d100      	bne.n	8006360 <memcpy+0xc>
 800635e:	4770      	bx	lr
 8006360:	b510      	push	{r4, lr}
 8006362:	f811 4b01 	ldrb.w	r4, [r1], #1
 8006366:	f803 4f01 	strb.w	r4, [r3, #1]!
 800636a:	4291      	cmp	r1, r2
 800636c:	d1f9      	bne.n	8006362 <memcpy+0xe>
 800636e:	bd10      	pop	{r4, pc}

08006370 <_Balloc>:
 8006370:	b570      	push	{r4, r5, r6, lr}
 8006372:	6a46      	ldr	r6, [r0, #36]	; 0x24
 8006374:	4604      	mov	r4, r0
 8006376:	460d      	mov	r5, r1
 8006378:	b976      	cbnz	r6, 8006398 <_Balloc+0x28>
 800637a:	2010      	movs	r0, #16
 800637c:	f7ff ffe2 	bl	8006344 <malloc>
 8006380:	4602      	mov	r2, r0
 8006382:	6260      	str	r0, [r4, #36]	; 0x24
 8006384:	b920      	cbnz	r0, 8006390 <_Balloc+0x20>
 8006386:	4b18      	ldr	r3, [pc, #96]	; (80063e8 <_Balloc+0x78>)
 8006388:	4818      	ldr	r0, [pc, #96]	; (80063ec <_Balloc+0x7c>)
 800638a:	2166      	movs	r1, #102	; 0x66
 800638c:	f000 fc7a 	bl	8006c84 <__assert_func>
 8006390:	e9c0 6601 	strd	r6, r6, [r0, #4]
 8006394:	6006      	str	r6, [r0, #0]
 8006396:	60c6      	str	r6, [r0, #12]
 8006398:	6a66      	ldr	r6, [r4, #36]	; 0x24
 800639a:	68f3      	ldr	r3, [r6, #12]
 800639c:	b183      	cbz	r3, 80063c0 <_Balloc+0x50>
 800639e:	6a63      	ldr	r3, [r4, #36]	; 0x24
 80063a0:	68db      	ldr	r3, [r3, #12]
 80063a2:	f853 0025 	ldr.w	r0, [r3, r5, lsl #2]
 80063a6:	b9b8      	cbnz	r0, 80063d8 <_Balloc+0x68>
 80063a8:	2101      	movs	r1, #1
 80063aa:	fa01 f605 	lsl.w	r6, r1, r5
 80063ae:	1d72      	adds	r2, r6, #5
 80063b0:	0092      	lsls	r2, r2, #2
 80063b2:	4620      	mov	r0, r4
 80063b4:	f000 fb60 	bl	8006a78 <_calloc_r>
 80063b8:	b160      	cbz	r0, 80063d4 <_Balloc+0x64>
 80063ba:	e9c0 5601 	strd	r5, r6, [r0, #4]
 80063be:	e00e      	b.n	80063de <_Balloc+0x6e>
 80063c0:	2221      	movs	r2, #33	; 0x21
 80063c2:	2104      	movs	r1, #4
 80063c4:	4620      	mov	r0, r4
 80063c6:	f000 fb57 	bl	8006a78 <_calloc_r>
 80063ca:	6a63      	ldr	r3, [r4, #36]	; 0x24
 80063cc:	60f0      	str	r0, [r6, #12]
 80063ce:	68db      	ldr	r3, [r3, #12]
 80063d0:	2b00      	cmp	r3, #0
 80063d2:	d1e4      	bne.n	800639e <_Balloc+0x2e>
 80063d4:	2000      	movs	r0, #0
 80063d6:	bd70      	pop	{r4, r5, r6, pc}
 80063d8:	6802      	ldr	r2, [r0, #0]
 80063da:	f843 2025 	str.w	r2, [r3, r5, lsl #2]
 80063de:	2300      	movs	r3, #0
 80063e0:	e9c0 3303 	strd	r3, r3, [r0, #12]
 80063e4:	e7f7      	b.n	80063d6 <_Balloc+0x66>
 80063e6:	bf00      	nop
 80063e8:	08008675 	.word	0x08008675
 80063ec:	080086f8 	.word	0x080086f8

080063f0 <_Bfree>:
 80063f0:	b570      	push	{r4, r5, r6, lr}
 80063f2:	6a46      	ldr	r6, [r0, #36]	; 0x24
 80063f4:	4605      	mov	r5, r0
 80063f6:	460c      	mov	r4, r1
 80063f8:	b976      	cbnz	r6, 8006418 <_Bfree+0x28>
 80063fa:	2010      	movs	r0, #16
 80063fc:	f7ff ffa2 	bl	8006344 <malloc>
 8006400:	4602      	mov	r2, r0
 8006402:	6268      	str	r0, [r5, #36]	; 0x24
 8006404:	b920      	cbnz	r0, 8006410 <_Bfree+0x20>
 8006406:	4b09      	ldr	r3, [pc, #36]	; (800642c <_Bfree+0x3c>)
 8006408:	4809      	ldr	r0, [pc, #36]	; (8006430 <_Bfree+0x40>)
 800640a:	218a      	movs	r1, #138	; 0x8a
 800640c:	f000 fc3a 	bl	8006c84 <__assert_func>
 8006410:	e9c0 6601 	strd	r6, r6, [r0, #4]
 8006414:	6006      	str	r6, [r0, #0]
 8006416:	60c6      	str	r6, [r0, #12]
 8006418:	b13c      	cbz	r4, 800642a <_Bfree+0x3a>
 800641a:	6a6b      	ldr	r3, [r5, #36]	; 0x24
 800641c:	6862      	ldr	r2, [r4, #4]
 800641e:	68db      	ldr	r3, [r3, #12]
 8006420:	f853 1022 	ldr.w	r1, [r3, r2, lsl #2]
 8006424:	6021      	str	r1, [r4, #0]
 8006426:	f843 4022 	str.w	r4, [r3, r2, lsl #2]
 800642a:	bd70      	pop	{r4, r5, r6, pc}
 800642c:	08008675 	.word	0x08008675
 8006430:	080086f8 	.word	0x080086f8

08006434 <__multadd>:
 8006434:	e92d 41f0 	stmdb	sp!, {r4, r5, r6, r7, r8, lr}
 8006438:	690d      	ldr	r5, [r1, #16]
 800643a:	4607      	mov	r7, r0
 800643c:	460c      	mov	r4, r1
 800643e:	461e      	mov	r6, r3
 8006440:	f101 0c14 	add.w	ip, r1, #20
 8006444:	2000      	movs	r0, #0
 8006446:	f8dc 3000 	ldr.w	r3, [ip]
 800644a:	b299      	uxth	r1, r3
 800644c:	fb02 6101 	mla	r1, r2, r1, r6
 8006450:	0c1e      	lsrs	r6, r3, #16
 8006452:	0c0b      	lsrs	r3, r1, #16
 8006454:	fb02 3306 	mla	r3, r2, r6, r3
 8006458:	b289      	uxth	r1, r1
 800645a:	3001      	adds	r0, #1
 800645c:	eb01 4103 	add.w	r1, r1, r3, lsl #16
 8006460:	4285      	cmp	r5, r0
 8006462:	f84c 1b04 	str.w	r1, [ip], #4
 8006466:	ea4f 4613 	mov.w	r6, r3, lsr #16
 800646a:	dcec      	bgt.n	8006446 <__multadd+0x12>
 800646c:	b30e      	cbz	r6, 80064b2 <__multadd+0x7e>
 800646e:	68a3      	ldr	r3, [r4, #8]
 8006470:	42ab      	cmp	r3, r5
 8006472:	dc19      	bgt.n	80064a8 <__multadd+0x74>
 8006474:	6861      	ldr	r1, [r4, #4]
 8006476:	4638      	mov	r0, r7
 8006478:	3101      	adds	r1, #1
 800647a:	f7ff ff79 	bl	8006370 <_Balloc>
 800647e:	4680      	mov	r8, r0
 8006480:	b928      	cbnz	r0, 800648e <__multadd+0x5a>
 8006482:	4602      	mov	r2, r0
 8006484:	4b0c      	ldr	r3, [pc, #48]	; (80064b8 <__multadd+0x84>)
 8006486:	480d      	ldr	r0, [pc, #52]	; (80064bc <__multadd+0x88>)
 8006488:	21b5      	movs	r1, #181	; 0xb5
 800648a:	f000 fbfb 	bl	8006c84 <__assert_func>
 800648e:	6922      	ldr	r2, [r4, #16]
 8006490:	3202      	adds	r2, #2
 8006492:	f104 010c 	add.w	r1, r4, #12
 8006496:	0092      	lsls	r2, r2, #2
 8006498:	300c      	adds	r0, #12
 800649a:	f7ff ff5b 	bl	8006354 <memcpy>
 800649e:	4621      	mov	r1, r4
 80064a0:	4638      	mov	r0, r7
 80064a2:	f7ff ffa5 	bl	80063f0 <_Bfree>
 80064a6:	4644      	mov	r4, r8
 80064a8:	eb04 0385 	add.w	r3, r4, r5, lsl #2
 80064ac:	3501      	adds	r5, #1
 80064ae:	615e      	str	r6, [r3, #20]
 80064b0:	6125      	str	r5, [r4, #16]
 80064b2:	4620      	mov	r0, r4
 80064b4:	e8bd 81f0 	ldmia.w	sp!, {r4, r5, r6, r7, r8, pc}
 80064b8:	080086e7 	.word	0x080086e7
 80064bc:	080086f8 	.word	0x080086f8

080064c0 <__hi0bits>:
 80064c0:	0c03      	lsrs	r3, r0, #16
 80064c2:	041b      	lsls	r3, r3, #16
 80064c4:	b9d3      	cbnz	r3, 80064fc <__hi0bits+0x3c>
 80064c6:	0400      	lsls	r0, r0, #16
 80064c8:	2310      	movs	r3, #16
 80064ca:	f010 4f7f 	tst.w	r0, #4278190080	; 0xff000000
 80064ce:	bf04      	itt	eq
 80064d0:	0200      	lsleq	r0, r0, #8
 80064d2:	3308      	addeq	r3, #8
 80064d4:	f010 4f70 	tst.w	r0, #4026531840	; 0xf0000000
 80064d8:	bf04      	itt	eq
 80064da:	0100      	lsleq	r0, r0, #4
 80064dc:	3304      	addeq	r3, #4
 80064de:	f010 4f40 	tst.w	r0, #3221225472	; 0xc0000000
 80064e2:	bf04      	itt	eq
 80064e4:	0080      	lsleq	r0, r0, #2
 80064e6:	3302      	addeq	r3, #2
 80064e8:	2800      	cmp	r0, #0
 80064ea:	db05      	blt.n	80064f8 <__hi0bits+0x38>
 80064ec:	f010 4f80 	tst.w	r0, #1073741824	; 0x40000000
 80064f0:	f103 0301 	add.w	r3, r3, #1
 80064f4:	bf08      	it	eq
 80064f6:	2320      	moveq	r3, #32
 80064f8:	4618      	mov	r0, r3
 80064fa:	4770      	bx	lr
 80064fc:	2300      	movs	r3, #0
 80064fe:	e7e4      	b.n	80064ca <__hi0bits+0xa>

08006500 <__lo0bits>:
 8006500:	6803      	ldr	r3, [r0, #0]
 8006502:	f013 0207 	ands.w	r2, r3, #7
 8006506:	4601      	mov	r1, r0
 8006508:	d00b      	beq.n	8006522 <__lo0bits+0x22>
 800650a:	07da      	lsls	r2, r3, #31
 800650c:	d423      	bmi.n	8006556 <__lo0bits+0x56>
 800650e:	0798      	lsls	r0, r3, #30
 8006510:	bf49      	itett	mi
 8006512:	085b      	lsrmi	r3, r3, #1
 8006514:	089b      	lsrpl	r3, r3, #2
 8006516:	2001      	movmi	r0, #1
 8006518:	600b      	strmi	r3, [r1, #0]
 800651a:	bf5c      	itt	pl
 800651c:	600b      	strpl	r3, [r1, #0]
 800651e:	2002      	movpl	r0, #2
 8006520:	4770      	bx	lr
 8006522:	b298      	uxth	r0, r3
 8006524:	b9a8      	cbnz	r0, 8006552 <__lo0bits+0x52>
 8006526:	0c1b      	lsrs	r3, r3, #16
 8006528:	2010      	movs	r0, #16
 800652a:	b2da      	uxtb	r2, r3
 800652c:	b90a      	cbnz	r2, 8006532 <__lo0bits+0x32>
 800652e:	3008      	adds	r0, #8
 8006530:	0a1b      	lsrs	r3, r3, #8
 8006532:	071a      	lsls	r2, r3, #28
 8006534:	bf04      	itt	eq
 8006536:	091b      	lsreq	r3, r3, #4
 8006538:	3004      	addeq	r0, #4
 800653a:	079a      	lsls	r2, r3, #30
 800653c:	bf04      	itt	eq
 800653e:	089b      	lsreq	r3, r3, #2
 8006540:	3002      	addeq	r0, #2
 8006542:	07da      	lsls	r2, r3, #31
 8006544:	d403      	bmi.n	800654e <__lo0bits+0x4e>
 8006546:	085b      	lsrs	r3, r3, #1
 8006548:	f100 0001 	add.w	r0, r0, #1
 800654c:	d005      	beq.n	800655a <__lo0bits+0x5a>
 800654e:	600b      	str	r3, [r1, #0]
 8006550:	4770      	bx	lr
 8006552:	4610      	mov	r0, r2
 8006554:	e7e9      	b.n	800652a <__lo0bits+0x2a>
 8006556:	2000      	movs	r0, #0
 8006558:	4770      	bx	lr
 800655a:	2020      	movs	r0, #32
 800655c:	4770      	bx	lr
	...

08006560 <__i2b>:
 8006560:	b510      	push	{r4, lr}
 8006562:	460c      	mov	r4, r1
 8006564:	2101      	movs	r1, #1
 8006566:	f7ff ff03 	bl	8006370 <_Balloc>
 800656a:	4602      	mov	r2, r0
 800656c:	b928      	cbnz	r0, 800657a <__i2b+0x1a>
 800656e:	4b05      	ldr	r3, [pc, #20]	; (8006584 <__i2b+0x24>)
 8006570:	4805      	ldr	r0, [pc, #20]	; (8006588 <__i2b+0x28>)
 8006572:	f44f 71a0 	mov.w	r1, #320	; 0x140
 8006576:	f000 fb85 	bl	8006c84 <__assert_func>
 800657a:	2301      	movs	r3, #1
 800657c:	6144      	str	r4, [r0, #20]
 800657e:	6103      	str	r3, [r0, #16]
 8006580:	bd10      	pop	{r4, pc}
 8006582:	bf00      	nop
 8006584:	080086e7 	.word	0x080086e7
 8006588:	080086f8 	.word	0x080086f8

0800658c <__multiply>:
 800658c:	e92d 4ff0 	stmdb	sp!, {r4, r5, r6, r7, r8, r9, sl, fp, lr}
 8006590:	4691      	mov	r9, r2
 8006592:	690a      	ldr	r2, [r1, #16]
 8006594:	f8d9 3010 	ldr.w	r3, [r9, #16]
 8006598:	429a      	cmp	r2, r3
 800659a:	bfb8      	it	lt
 800659c:	460b      	movlt	r3, r1
 800659e:	460c      	mov	r4, r1
 80065a0:	bfbc      	itt	lt
 80065a2:	464c      	movlt	r4, r9
 80065a4:	4699      	movlt	r9, r3
 80065a6:	6927      	ldr	r7, [r4, #16]
 80065a8:	f8d9 a010 	ldr.w	sl, [r9, #16]
 80065ac:	68a3      	ldr	r3, [r4, #8]
 80065ae:	6861      	ldr	r1, [r4, #4]
 80065b0:	eb07 060a 	add.w	r6, r7, sl
 80065b4:	42b3      	cmp	r3, r6
 80065b6:	b085      	sub	sp, #20
 80065b8:	bfb8      	it	lt
 80065ba:	3101      	addlt	r1, #1
 80065bc:	f7ff fed8 	bl	8006370 <_Balloc>
 80065c0:	b930      	cbnz	r0, 80065d0 <__multiply+0x44>
 80065c2:	4602      	mov	r2, r0
 80065c4:	4b44      	ldr	r3, [pc, #272]	; (80066d8 <__multiply+0x14c>)
 80065c6:	4845      	ldr	r0, [pc, #276]	; (80066dc <__multiply+0x150>)
 80065c8:	f240 115d 	movw	r1, #349	; 0x15d
 80065cc:	f000 fb5a 	bl	8006c84 <__assert_func>
 80065d0:	f100 0514 	add.w	r5, r0, #20
 80065d4:	eb05 0886 	add.w	r8, r5, r6, lsl #2
 80065d8:	462b      	mov	r3, r5
 80065da:	2200      	movs	r2, #0
 80065dc:	4543      	cmp	r3, r8
 80065de:	d321      	bcc.n	8006624 <__multiply+0x98>
 80065e0:	f104 0314 	add.w	r3, r4, #20
 80065e4:	eb03 0787 	add.w	r7, r3, r7, lsl #2
 80065e8:	f109 0314 	add.w	r3, r9, #20
 80065ec:	eb03 028a 	add.w	r2, r3, sl, lsl #2
 80065f0:	9202      	str	r2, [sp, #8]
 80065f2:	1b3a      	subs	r2, r7, r4
 80065f4:	3a15      	subs	r2, #21
 80065f6:	f022 0203 	bic.w	r2, r2, #3
 80065fa:	3204      	adds	r2, #4
 80065fc:	f104 0115 	add.w	r1, r4, #21
 8006600:	428f      	cmp	r7, r1
 8006602:	bf38      	it	cc
 8006604:	2204      	movcc	r2, #4
 8006606:	9201      	str	r2, [sp, #4]
 8006608:	9a02      	ldr	r2, [sp, #8]
 800660a:	9303      	str	r3, [sp, #12]
 800660c:	429a      	cmp	r2, r3
 800660e:	d80c      	bhi.n	800662a <__multiply+0x9e>
 8006610:	2e00      	cmp	r6, #0
 8006612:	dd03      	ble.n	800661c <__multiply+0x90>
 8006614:	f858 3d04 	ldr.w	r3, [r8, #-4]!
 8006618:	2b00      	cmp	r3, #0
 800661a:	d05a      	beq.n	80066d2 <__multiply+0x146>
 800661c:	6106      	str	r6, [r0, #16]
 800661e:	b005      	add	sp, #20
 8006620:	e8bd 8ff0 	ldmia.w	sp!, {r4, r5, r6, r7, r8, r9, sl, fp, pc}
 8006624:	f843 2b04 	str.w	r2, [r3], #4
 8006628:	e7d8      	b.n	80065dc <__multiply+0x50>
 800662a:	f8b3 a000 	ldrh.w	sl, [r3]
 800662e:	f1ba 0f00 	cmp.w	sl, #0
 8006632:	d024      	beq.n	800667e <__multiply+0xf2>
 8006634:	f104 0e14 	add.w	lr, r4, #20
 8006638:	46a9      	mov	r9, r5
 800663a:	f04f 0c00 	mov.w	ip, #0
 800663e:	f85e 2b04 	ldr.w	r2, [lr], #4
 8006642:	f8d9 1000 	ldr.w	r1, [r9]
 8006646:	fa1f fb82 	uxth.w	fp, r2
 800664a:	b289      	uxth	r1, r1
 800664c:	fb0a 110b 	mla	r1, sl, fp, r1
 8006650:	ea4f 4b12 	mov.w	fp, r2, lsr #16
 8006654:	f8d9 2000 	ldr.w	r2, [r9]
 8006658:	4461      	add	r1, ip
 800665a:	ea4f 4c12 	mov.w	ip, r2, lsr #16
 800665e:	fb0a c20b 	mla	r2, sl, fp, ip
 8006662:	eb02 4211 	add.w	r2, r2, r1, lsr #16
 8006666:	b289      	uxth	r1, r1
 8006668:	ea41 4102 	orr.w	r1, r1, r2, lsl #16
 800666c:	4577      	cmp	r7, lr
 800666e:	f849 1b04 	str.w	r1, [r9], #4
 8006672:	ea4f 4c12 	mov.w	ip, r2, lsr #16
 8006676:	d8e2      	bhi.n	800663e <__multiply+0xb2>
 8006678:	9a01      	ldr	r2, [sp, #4]
 800667a:	f845 c002 	str.w	ip, [r5, r2]
 800667e:	9a03      	ldr	r2, [sp, #12]
 8006680:	f8b2 9002 	ldrh.w	r9, [r2, #2]
 8006684:	3304      	adds	r3, #4
 8006686:	f1b9 0f00 	cmp.w	r9, #0
 800668a:	d020      	beq.n	80066ce <__multiply+0x142>
 800668c:	6829      	ldr	r1, [r5, #0]
 800668e:	f104 0c14 	add.w	ip, r4, #20
 8006692:	46ae      	mov	lr, r5
 8006694:	f04f 0a00 	mov.w	sl, #0
 8006698:	f8bc b000 	ldrh.w	fp, [ip]
 800669c:	f8be 2002 	ldrh.w	r2, [lr, #2]
 80066a0:	fb09 220b 	mla	r2, r9, fp, r2
 80066a4:	4492      	add	sl, r2
 80066a6:	b289      	uxth	r1, r1
 80066a8:	ea41 410a 	orr.w	r1, r1, sl, lsl #16
 80066ac:	f84e 1b04 	str.w	r1, [lr], #4
 80066b0:	f85c 2b04 	ldr.w	r2, [ip], #4
 80066b4:	f8be 1000 	ldrh.w	r1, [lr]
 80066b8:	0c12      	lsrs	r2, r2, #16
 80066ba:	fb09 1102 	mla	r1, r9, r2, r1
 80066be:	eb01 411a 	add.w	r1, r1, sl, lsr #16
 80066c2:	4567      	cmp	r7, ip
 80066c4:	ea4f 4a11 	mov.w	sl, r1, lsr #16
 80066c8:	d8e6      	bhi.n	8006698 <__multiply+0x10c>
 80066ca:	9a01      	ldr	r2, [sp, #4]
 80066cc:	50a9      	str	r1, [r5, r2]
 80066ce:	3504      	adds	r5, #4
 80066d0:	e79a      	b.n	8006608 <__multiply+0x7c>
 80066d2:	3e01      	subs	r6, #1
 80066d4:	e79c      	b.n	8006610 <__multiply+0x84>
 80066d6:	bf00      	nop
 80066d8:	080086e7 	.word	0x080086e7
 80066dc:	080086f8 	.word	0x080086f8

080066e0 <__pow5mult>:
 80066e0:	e92d 43f8 	stmdb	sp!, {r3, r4, r5, r6, r7, r8, r9, lr}
 80066e4:	4615      	mov	r5, r2
 80066e6:	f012 0203 	ands.w	r2, r2, #3
 80066ea:	4606      	mov	r6, r0
 80066ec:	460f      	mov	r7, r1
 80066ee:	d007      	beq.n	8006700 <__pow5mult+0x20>
 80066f0:	4c25      	ldr	r4, [pc, #148]	; (8006788 <__pow5mult+0xa8>)
 80066f2:	3a01      	subs	r2, #1
 80066f4:	2300      	movs	r3, #0
 80066f6:	f854 2022 	ldr.w	r2, [r4, r2, lsl #2]
 80066fa:	f7ff fe9b 	bl	8006434 <__multadd>
 80066fe:	4607      	mov	r7, r0
 8006700:	10ad      	asrs	r5, r5, #2
 8006702:	d03d      	beq.n	8006780 <__pow5mult+0xa0>
 8006704:	6a74      	ldr	r4, [r6, #36]	; 0x24
 8006706:	b97c      	cbnz	r4, 8006728 <__pow5mult+0x48>
 8006708:	2010      	movs	r0, #16
 800670a:	f7ff fe1b 	bl	8006344 <malloc>
 800670e:	4602      	mov	r2, r0
 8006710:	6270      	str	r0, [r6, #36]	; 0x24
 8006712:	b928      	cbnz	r0, 8006720 <__pow5mult+0x40>
 8006714:	4b1d      	ldr	r3, [pc, #116]	; (800678c <__pow5mult+0xac>)
 8006716:	481e      	ldr	r0, [pc, #120]	; (8006790 <__pow5mult+0xb0>)
 8006718:	f44f 71d7 	mov.w	r1, #430	; 0x1ae
 800671c:	f000 fab2 	bl	8006c84 <__assert_func>
 8006720:	e9c0 4401 	strd	r4, r4, [r0, #4]
 8006724:	6004      	str	r4, [r0, #0]
 8006726:	60c4      	str	r4, [r0, #12]
 8006728:	f8d6 8024 	ldr.w	r8, [r6, #36]	; 0x24
 800672c:	f8d8 4008 	ldr.w	r4, [r8, #8]
 8006730:	b94c      	cbnz	r4, 8006746 <__pow5mult+0x66>
 8006732:	f240 2171 	movw	r1, #625	; 0x271
 8006736:	4630      	mov	r0, r6
 8006738:	f7ff ff12 	bl	8006560 <__i2b>
 800673c:	2300      	movs	r3, #0
 800673e:	f8c8 0008 	str.w	r0, [r8, #8]
 8006742:	4604      	mov	r4, r0
 8006744:	6003      	str	r3, [r0, #0]
 8006746:	f04f 0900 	mov.w	r9, #0
 800674a:	07eb      	lsls	r3, r5, #31
 800674c:	d50a      	bpl.n	8006764 <__pow5mult+0x84>
 800674e:	4639      	mov	r1, r7
 8006750:	4622      	mov	r2, r4
 8006752:	4630      	mov	r0, r6
 8006754:	f7ff ff1a 	bl	800658c <__multiply>
 8006758:	4639      	mov	r1, r7
 800675a:	4680      	mov	r8, r0
 800675c:	4630      	mov	r0, r6
 800675e:	f7ff fe47 	bl	80063f0 <_Bfree>
 8006762:	4647      	mov	r7, r8
 8006764:	106d      	asrs	r5, r5, #1
 8006766:	d00b      	beq.n	8006780 <__pow5mult+0xa0>
 8006768:	6820      	ldr	r0, [r4, #0]
 800676a:	b938      	cbnz	r0, 800677c <__pow5mult+0x9c>
 800676c:	4622      	mov	r2, r4
 800676e:	4621      	mov	r1, r4
 8006770:	4630      	mov	r0, r6
 8006772:	f7ff ff0b 	bl	800658c <__multiply>
 8006776:	6020      	str	r0, [r4, #0]
 8006778:	f8c0 9000 	str.w	r9, [r0]
 800677c:	4604      	mov	r4, r0
 800677e:	e7e4      	b.n	800674a <__pow5mult+0x6a>
 8006780:	4638      	mov	r0, r7
 8006782:	e8bd 83f8 	ldmia.w	sp!, {r3, r4, r5, r6, r7, r8, r9, pc}
 8006786:	bf00      	nop
 8006788:	08008848 	.word	0x08008848
 800678c:	08008675 	.word	0x08008675
 8006790:	080086f8 	.word	0x080086f8

08006794 <__lshift>:
 8006794:	e92d 47f0 	stmdb	sp!, {r4, r5, r6, r7, r8, r9, sl, lr}
 8006798:	460c      	mov	r4, r1
 800679a:	6849      	ldr	r1, [r1, #4]
 800679c:	6923      	ldr	r3, [r4, #16]
 800679e:	eb03 1862 	add.w	r8, r3, r2, asr #5
 80067a2:	68a3      	ldr	r3, [r4, #8]
 80067a4:	4607      	mov	r7, r0
 80067a6:	4691      	mov	r9, r2
 80067a8:	ea4f 1a62 	mov.w	sl, r2, asr #5
 80067ac:	f108 0601 	add.w	r6, r8, #1
 80067b0:	42b3      	cmp	r3, r6
 80067b2:	db0b      	blt.n	80067cc <__lshift+0x38>
 80067b4:	4638      	mov	r0, r7
 80067b6:	f7ff fddb 	bl	8006370 <_Balloc>
 80067ba:	4605      	mov	r5, r0
 80067bc:	b948      	cbnz	r0, 80067d2 <__lshift+0x3e>
 80067be:	4602      	mov	r2, r0
 80067c0:	4b2a      	ldr	r3, [pc, #168]	; (800686c <__lshift+0xd8>)
 80067c2:	482b      	ldr	r0, [pc, #172]	; (8006870 <__lshift+0xdc>)
 80067c4:	f240 11d9 	movw	r1, #473	; 0x1d9
 80067c8:	f000 fa5c 	bl	8006c84 <__assert_func>
 80067cc:	3101      	adds	r1, #1
 80067ce:	005b      	lsls	r3, r3, #1
 80067d0:	e7ee      	b.n	80067b0 <__lshift+0x1c>
 80067d2:	2300      	movs	r3, #0
 80067d4:	f100 0114 	add.w	r1, r0, #20
 80067d8:	f100 0210 	add.w	r2, r0, #16
 80067dc:	4618      	mov	r0, r3
 80067de:	4553      	cmp	r3, sl
 80067e0:	db37      	blt.n	8006852 <__lshift+0xbe>
 80067e2:	6920      	ldr	r0, [r4, #16]
 80067e4:	ea2a 7aea 	bic.w	sl, sl, sl, asr #31
 80067e8:	f104 0314 	add.w	r3, r4, #20
 80067ec:	f019 091f 	ands.w	r9, r9, #31
 80067f0:	eb01 018a 	add.w	r1, r1, sl, lsl #2
 80067f4:	eb03 0080 	add.w	r0, r3, r0, lsl #2
 80067f8:	d02f      	beq.n	800685a <__lshift+0xc6>
 80067fa:	f1c9 0e20 	rsb	lr, r9, #32
 80067fe:	468a      	mov	sl, r1
 8006800:	f04f 0c00 	mov.w	ip, #0
 8006804:	681a      	ldr	r2, [r3, #0]
 8006806:	fa02 f209 	lsl.w	r2, r2, r9
 800680a:	ea42 020c 	orr.w	r2, r2, ip
 800680e:	f84a 2b04 	str.w	r2, [sl], #4
 8006812:	f853 2b04 	ldr.w	r2, [r3], #4
 8006816:	4298      	cmp	r0, r3
 8006818:	fa22 fc0e 	lsr.w	ip, r2, lr
 800681c:	d8f2      	bhi.n	8006804 <__lshift+0x70>
 800681e:	1b03      	subs	r3, r0, r4
 8006820:	3b15      	subs	r3, #21
 8006822:	f023 0303 	bic.w	r3, r3, #3
 8006826:	3304      	adds	r3, #4
 8006828:	f104 0215 	add.w	r2, r4, #21
 800682c:	4290      	cmp	r0, r2
 800682e:	bf38      	it	cc
 8006830:	2304      	movcc	r3, #4
 8006832:	f841 c003 	str.w	ip, [r1, r3]
 8006836:	f1bc 0f00 	cmp.w	ip, #0
 800683a:	d001      	beq.n	8006840 <__lshift+0xac>
 800683c:	f108 0602 	add.w	r6, r8, #2
 8006840:	3e01      	subs	r6, #1
 8006842:	4638      	mov	r0, r7
 8006844:	612e      	str	r6, [r5, #16]
 8006846:	4621      	mov	r1, r4
 8006848:	f7ff fdd2 	bl	80063f0 <_Bfree>
 800684c:	4628      	mov	r0, r5
 800684e:	e8bd 87f0 	ldmia.w	sp!, {r4, r5, r6, r7, r8, r9, sl, pc}
 8006852:	f842 0f04 	str.w	r0, [r2, #4]!
 8006856:	3301      	adds	r3, #1
 8006858:	e7c1      	b.n	80067de <__lshift+0x4a>
 800685a:	3904      	subs	r1, #4
 800685c:	f853 2b04 	ldr.w	r2, [r3], #4
 8006860:	f841 2f04 	str.w	r2, [r1, #4]!
 8006864:	4298      	cmp	r0, r3
 8006866:	d8f9      	bhi.n	800685c <__lshift+0xc8>
 8006868:	e7ea      	b.n	8006840 <__lshift+0xac>
 800686a:	bf00      	nop
 800686c:	080086e7 	.word	0x080086e7
 8006870:	080086f8 	.word	0x080086f8

08006874 <__mcmp>:
 8006874:	b530      	push	{r4, r5, lr}
 8006876:	6902      	ldr	r2, [r0, #16]
 8006878:	690c      	ldr	r4, [r1, #16]
 800687a:	1b12      	subs	r2, r2, r4
 800687c:	d10e      	bne.n	800689c <__mcmp+0x28>
 800687e:	f100 0314 	add.w	r3, r0, #20
 8006882:	3114      	adds	r1, #20
 8006884:	eb03 0084 	add.w	r0, r3, r4, lsl #2
 8006888:	eb01 0184 	add.w	r1, r1, r4, lsl #2
 800688c:	f850 5d04 	ldr.w	r5, [r0, #-4]!
 8006890:	f851 4d04 	ldr.w	r4, [r1, #-4]!
 8006894:	42a5      	cmp	r5, r4
 8006896:	d003      	beq.n	80068a0 <__mcmp+0x2c>
 8006898:	d305      	bcc.n	80068a6 <__mcmp+0x32>
 800689a:	2201      	movs	r2, #1
 800689c:	4610      	mov	r0, r2
 800689e:	bd30      	pop	{r4, r5, pc}
 80068a0:	4283      	cmp	r3, r0
 80068a2:	d3f3      	bcc.n	800688c <__mcmp+0x18>
 80068a4:	e7fa      	b.n	800689c <__mcmp+0x28>
 80068a6:	f04f 32ff 	mov.w	r2, #4294967295
 80068aa:	e7f7      	b.n	800689c <__mcmp+0x28>

080068ac <__mdiff>:
 80068ac:	e92d 4ff8 	stmdb	sp!, {r3, r4, r5, r6, r7, r8, r9, sl, fp, lr}
 80068b0:	460c      	mov	r4, r1
 80068b2:	4606      	mov	r6, r0
 80068b4:	4611      	mov	r1, r2
 80068b6:	4620      	mov	r0, r4
 80068b8:	4690      	mov	r8, r2
 80068ba:	f7ff ffdb 	bl	8006874 <__mcmp>
 80068be:	1e05      	subs	r5, r0, #0
 80068c0:	d110      	bne.n	80068e4 <__mdiff+0x38>
 80068c2:	4629      	mov	r1, r5
 80068c4:	4630      	mov	r0, r6
 80068c6:	f7ff fd53 	bl	8006370 <_Balloc>
 80068ca:	b930      	cbnz	r0, 80068da <__mdiff+0x2e>
 80068cc:	4b3a      	ldr	r3, [pc, #232]	; (80069b8 <__mdiff+0x10c>)
 80068ce:	4602      	mov	r2, r0
 80068d0:	f240 2132 	movw	r1, #562	; 0x232
 80068d4:	4839      	ldr	r0, [pc, #228]	; (80069bc <__mdiff+0x110>)
 80068d6:	f000 f9d5 	bl	8006c84 <__assert_func>
 80068da:	2301      	movs	r3, #1
 80068dc:	e9c0 3504 	strd	r3, r5, [r0, #16]
 80068e0:	e8bd 8ff8 	ldmia.w	sp!, {r3, r4, r5, r6, r7, r8, r9, sl, fp, pc}
 80068e4:	bfa4      	itt	ge
 80068e6:	4643      	movge	r3, r8
 80068e8:	46a0      	movge	r8, r4
 80068ea:	4630      	mov	r0, r6
 80068ec:	f8d8 1004 	ldr.w	r1, [r8, #4]
 80068f0:	bfa6      	itte	ge
 80068f2:	461c      	movge	r4, r3
 80068f4:	2500      	movge	r5, #0
 80068f6:	2501      	movlt	r5, #1
 80068f8:	f7ff fd3a 	bl	8006370 <_Balloc>
 80068fc:	b920      	cbnz	r0, 8006908 <__mdiff+0x5c>
 80068fe:	4b2e      	ldr	r3, [pc, #184]	; (80069b8 <__mdiff+0x10c>)
 8006900:	4602      	mov	r2, r0
 8006902:	f44f 7110 	mov.w	r1, #576	; 0x240
 8006906:	e7e5      	b.n	80068d4 <__mdiff+0x28>
 8006908:	f8d8 7010 	ldr.w	r7, [r8, #16]
 800690c:	6926      	ldr	r6, [r4, #16]
 800690e:	60c5      	str	r5, [r0, #12]
 8006910:	f104 0914 	add.w	r9, r4, #20
 8006914:	f108 0514 	add.w	r5, r8, #20
 8006918:	f100 0e14 	add.w	lr, r0, #20
 800691c:	eb05 0c87 	add.w	ip, r5, r7, lsl #2
 8006920:	eb09 0686 	add.w	r6, r9, r6, lsl #2
 8006924:	f108 0210 	add.w	r2, r8, #16
 8006928:	46f2      	mov	sl, lr
 800692a:	2100      	movs	r1, #0
 800692c:	f859 3b04 	ldr.w	r3, [r9], #4
 8006930:	f852 bf04 	ldr.w	fp, [r2, #4]!
 8006934:	fa1f f883 	uxth.w	r8, r3
 8006938:	fa11 f18b 	uxtah	r1, r1, fp
 800693c:	0c1b      	lsrs	r3, r3, #16
 800693e:	eba1 0808 	sub.w	r8, r1, r8
 8006942:	ebc3 431b 	rsb	r3, r3, fp, lsr #16
 8006946:	eb03 4328 	add.w	r3, r3, r8, asr #16
 800694a:	fa1f f888 	uxth.w	r8, r8
 800694e:	1419      	asrs	r1, r3, #16
 8006950:	454e      	cmp	r6, r9
 8006952:	ea48 4303 	orr.w	r3, r8, r3, lsl #16
 8006956:	f84a 3b04 	str.w	r3, [sl], #4
 800695a:	d8e7      	bhi.n	800692c <__mdiff+0x80>
 800695c:	1b33      	subs	r3, r6, r4
 800695e:	3b15      	subs	r3, #21
 8006960:	f023 0303 	bic.w	r3, r3, #3
 8006964:	3304      	adds	r3, #4
 8006966:	3415      	adds	r4, #21
 8006968:	42a6      	cmp	r6, r4
 800696a:	bf38      	it	cc
 800696c:	2304      	movcc	r3, #4
 800696e:	441d      	add	r5, r3
 8006970:	4473      	add	r3, lr
 8006972:	469e      	mov	lr, r3
 8006974:	462e      	mov	r6, r5
 8006976:	4566      	cmp	r6, ip
 8006978:	d30e      	bcc.n	8006998 <__mdiff+0xec>
 800697a:	f10c 0203 	add.w	r2, ip, #3
 800697e:	1b52      	subs	r2, r2, r5
 8006980:	f022 0203 	bic.w	r2, r2, #3
 8006984:	3d03      	subs	r5, #3
 8006986:	45ac      	cmp	ip, r5
 8006988:	bf38      	it	cc
 800698a:	2200      	movcc	r2, #0
 800698c:	441a      	add	r2, r3
 800698e:	f852 3d04 	ldr.w	r3, [r2, #-4]!
 8006992:	b17b      	cbz	r3, 80069b4 <__mdiff+0x108>
 8006994:	6107      	str	r7, [r0, #16]
 8006996:	e7a3      	b.n	80068e0 <__mdiff+0x34>
 8006998:	f856 8b04 	ldr.w	r8, [r6], #4
 800699c:	fa11 f288 	uxtah	r2, r1, r8
 80069a0:	1414      	asrs	r4, r2, #16
 80069a2:	eb04 4418 	add.w	r4, r4, r8, lsr #16
 80069a6:	b292      	uxth	r2, r2
 80069a8:	ea42 4204 	orr.w	r2, r2, r4, lsl #16
 80069ac:	f84e 2b04 	str.w	r2, [lr], #4
 80069b0:	1421      	asrs	r1, r4, #16
 80069b2:	e7e0      	b.n	8006976 <__mdiff+0xca>
 80069b4:	3f01      	subs	r7, #1
 80069b6:	e7ea      	b.n	800698e <__mdiff+0xe2>
 80069b8:	080086e7 	.word	0x080086e7
 80069bc:	080086f8 	.word	0x080086f8

080069c0 <__d2b>:
 80069c0:	e92d 43f7 	stmdb	sp!, {r0, r1, r2, r4, r5, r6, r7, r8, r9, lr}
 80069c4:	4689      	mov	r9, r1
 80069c6:	2101      	movs	r1, #1
 80069c8:	ec57 6b10 	vmov	r6, r7, d0
 80069cc:	4690      	mov	r8, r2
 80069ce:	f7ff fccf 	bl	8006370 <_Balloc>
 80069d2:	4604      	mov	r4, r0
 80069d4:	b930      	cbnz	r0, 80069e4 <__d2b+0x24>
 80069d6:	4602      	mov	r2, r0
 80069d8:	4b25      	ldr	r3, [pc, #148]	; (8006a70 <__d2b+0xb0>)
 80069da:	4826      	ldr	r0, [pc, #152]	; (8006a74 <__d2b+0xb4>)
 80069dc:	f240 310a 	movw	r1, #778	; 0x30a
 80069e0:	f000 f950 	bl	8006c84 <__assert_func>
 80069e4:	f3c7 550a 	ubfx	r5, r7, #20, #11
 80069e8:	f3c7 0313 	ubfx	r3, r7, #0, #20
 80069ec:	bb35      	cbnz	r5, 8006a3c <__d2b+0x7c>
 80069ee:	2e00      	cmp	r6, #0
 80069f0:	9301      	str	r3, [sp, #4]
 80069f2:	d028      	beq.n	8006a46 <__d2b+0x86>
 80069f4:	4668      	mov	r0, sp
 80069f6:	9600      	str	r6, [sp, #0]
 80069f8:	f7ff fd82 	bl	8006500 <__lo0bits>
 80069fc:	9900      	ldr	r1, [sp, #0]
 80069fe:	b300      	cbz	r0, 8006a42 <__d2b+0x82>
 8006a00:	9a01      	ldr	r2, [sp, #4]
 8006a02:	f1c0 0320 	rsb	r3, r0, #32
 8006a06:	fa02 f303 	lsl.w	r3, r2, r3
 8006a0a:	430b      	orrs	r3, r1
 8006a0c:	40c2      	lsrs	r2, r0
 8006a0e:	6163      	str	r3, [r4, #20]
 8006a10:	9201      	str	r2, [sp, #4]
 8006a12:	9b01      	ldr	r3, [sp, #4]
 8006a14:	61a3      	str	r3, [r4, #24]
 8006a16:	2b00      	cmp	r3, #0
 8006a18:	bf14      	ite	ne
 8006a1a:	2202      	movne	r2, #2
 8006a1c:	2201      	moveq	r2, #1
 8006a1e:	6122      	str	r2, [r4, #16]
 8006a20:	b1d5      	cbz	r5, 8006a58 <__d2b+0x98>
 8006a22:	f2a5 4533 	subw	r5, r5, #1075	; 0x433
 8006a26:	4405      	add	r5, r0
 8006a28:	f8c9 5000 	str.w	r5, [r9]
 8006a2c:	f1c0 0035 	rsb	r0, r0, #53	; 0x35
 8006a30:	f8c8 0000 	str.w	r0, [r8]
 8006a34:	4620      	mov	r0, r4
 8006a36:	b003      	add	sp, #12
 8006a38:	e8bd 83f0 	ldmia.w	sp!, {r4, r5, r6, r7, r8, r9, pc}
 8006a3c:	f443 1380 	orr.w	r3, r3, #1048576	; 0x100000
 8006a40:	e7d5      	b.n	80069ee <__d2b+0x2e>
 8006a42:	6161      	str	r1, [r4, #20]
 8006a44:	e7e5      	b.n	8006a12 <__d2b+0x52>
 8006a46:	a801      	add	r0, sp, #4
 8006a48:	f7ff fd5a 	bl	8006500 <__lo0bits>
 8006a4c:	9b01      	ldr	r3, [sp, #4]
 8006a4e:	6163      	str	r3, [r4, #20]
 8006a50:	2201      	movs	r2, #1
 8006a52:	6122      	str	r2, [r4, #16]
 8006a54:	3020      	adds	r0, #32
 8006a56:	e7e3      	b.n	8006a20 <__d2b+0x60>
 8006a58:	eb04 0382 	add.w	r3, r4, r2, lsl #2
 8006a5c:	f2a0 4032 	subw	r0, r0, #1074	; 0x432
 8006a60:	f8c9 0000 	str.w	r0, [r9]
 8006a64:	6918      	ldr	r0, [r3, #16]
 8006a66:	f7ff fd2b 	bl	80064c0 <__hi0bits>
 8006a6a:	ebc0 1042 	rsb	r0, r0, r2, lsl #5
 8006a6e:	e7df      	b.n	8006a30 <__d2b+0x70>
 8006a70:	080086e7 	.word	0x080086e7
 8006a74:	080086f8 	.word	0x080086f8

08006a78 <_calloc_r>:
 8006a78:	b537      	push	{r0, r1, r2, r4, r5, lr}
 8006a7a:	fba1 2402 	umull	r2, r4, r1, r2
 8006a7e:	b94c      	cbnz	r4, 8006a94 <_calloc_r+0x1c>
 8006a80:	4611      	mov	r1, r2
 8006a82:	9201      	str	r2, [sp, #4]
 8006a84:	f000 f87a 	bl	8006b7c <_malloc_r>
 8006a88:	9a01      	ldr	r2, [sp, #4]
 8006a8a:	4605      	mov	r5, r0
 8006a8c:	b930      	cbnz	r0, 8006a9c <_calloc_r+0x24>
 8006a8e:	4628      	mov	r0, r5
 8006a90:	b003      	add	sp, #12
 8006a92:	bd30      	pop	{r4, r5, pc}
 8006a94:	220c      	movs	r2, #12
 8006a96:	6002      	str	r2, [r0, #0]
 8006a98:	2500      	movs	r5, #0
 8006a9a:	e7f8      	b.n	8006a8e <_calloc_r+0x16>
 8006a9c:	4621      	mov	r1, r4
 8006a9e:	f7fe f961 	bl	8004d64 <memset>
 8006aa2:	e7f4      	b.n	8006a8e <_calloc_r+0x16>

08006aa4 <_free_r>:
 8006aa4:	b537      	push	{r0, r1, r2, r4, r5, lr}
 8006aa6:	2900      	cmp	r1, #0
 8006aa8:	d044      	beq.n	8006b34 <_free_r+0x90>
 8006aaa:	f851 3c04 	ldr.w	r3, [r1, #-4]
 8006aae:	9001      	str	r0, [sp, #4]
 8006ab0:	2b00      	cmp	r3, #0
 8006ab2:	f1a1 0404 	sub.w	r4, r1, #4
 8006ab6:	bfb8      	it	lt
 8006ab8:	18e4      	addlt	r4, r4, r3
 8006aba:	f000 f925 	bl	8006d08 <__malloc_lock>
 8006abe:	4a1e      	ldr	r2, [pc, #120]	; (8006b38 <_free_r+0x94>)
 8006ac0:	9801      	ldr	r0, [sp, #4]
 8006ac2:	6813      	ldr	r3, [r2, #0]
 8006ac4:	b933      	cbnz	r3, 8006ad4 <_free_r+0x30>
 8006ac6:	6063      	str	r3, [r4, #4]
 8006ac8:	6014      	str	r4, [r2, #0]
 8006aca:	b003      	add	sp, #12
 8006acc:	e8bd 4030 	ldmia.w	sp!, {r4, r5, lr}
 8006ad0:	f000 b920 	b.w	8006d14 <__malloc_unlock>
 8006ad4:	42a3      	cmp	r3, r4
 8006ad6:	d908      	bls.n	8006aea <_free_r+0x46>
 8006ad8:	6825      	ldr	r5, [r4, #0]
 8006ada:	1961      	adds	r1, r4, r5
 8006adc:	428b      	cmp	r3, r1
 8006ade:	bf01      	itttt	eq
 8006ae0:	6819      	ldreq	r1, [r3, #0]
 8006ae2:	685b      	ldreq	r3, [r3, #4]
 8006ae4:	1949      	addeq	r1, r1, r5
 8006ae6:	6021      	streq	r1, [r4, #0]
 8006ae8:	e7ed      	b.n	8006ac6 <_free_r+0x22>
 8006aea:	461a      	mov	r2, r3
 8006aec:	685b      	ldr	r3, [r3, #4]
 8006aee:	b10b      	cbz	r3, 8006af4 <_free_r+0x50>
 8006af0:	42a3      	cmp	r3, r4
 8006af2:	d9fa      	bls.n	8006aea <_free_r+0x46>
 8006af4:	6811      	ldr	r1, [r2, #0]
 8006af6:	1855      	adds	r5, r2, r1
 8006af8:	42a5      	cmp	r5, r4
 8006afa:	d10b      	bne.n	8006b14 <_free_r+0x70>
 8006afc:	6824      	ldr	r4, [r4, #0]
 8006afe:	4421      	add	r1, r4
 8006b00:	1854      	adds	r4, r2, r1
 8006b02:	42a3      	cmp	r3, r4
 8006b04:	6011      	str	r1, [r2, #0]
 8006b06:	d1e0      	bne.n	8006aca <_free_r+0x26>
 8006b08:	681c      	ldr	r4, [r3, #0]
 8006b0a:	685b      	ldr	r3, [r3, #4]
 8006b0c:	6053      	str	r3, [r2, #4]
 8006b0e:	4421      	add	r1, r4
 8006b10:	6011      	str	r1, [r2, #0]
 8006b12:	e7da      	b.n	8006aca <_free_r+0x26>
 8006b14:	d902      	bls.n	8006b1c <_free_r+0x78>
 8006b16:	230c      	movs	r3, #12
 8006b18:	6003      	str	r3, [r0, #0]
 8006b1a:	e7d6      	b.n	8006aca <_free_r+0x26>
 8006b1c:	6825      	ldr	r5, [r4, #0]
 8006b1e:	1961      	adds	r1, r4, r5
 8006b20:	428b      	cmp	r3, r1
 8006b22:	bf04      	itt	eq
 8006b24:	6819      	ldreq	r1, [r3, #0]
 8006b26:	685b      	ldreq	r3, [r3, #4]
 8006b28:	6063      	str	r3, [r4, #4]
 8006b2a:	bf04      	itt	eq
 8006b2c:	1949      	addeq	r1, r1, r5
 8006b2e:	6021      	streq	r1, [r4, #0]
 8006b30:	6054      	str	r4, [r2, #4]
 8006b32:	e7ca      	b.n	8006aca <_free_r+0x26>
 8006b34:	b003      	add	sp, #12
 8006b36:	bd30      	pop	{r4, r5, pc}
 8006b38:	200012c4 	.word	0x200012c4

08006b3c <sbrk_aligned>:
 8006b3c:	b570      	push	{r4, r5, r6, lr}
 8006b3e:	4e0e      	ldr	r6, [pc, #56]	; (8006b78 <sbrk_aligned+0x3c>)
 8006b40:	460c      	mov	r4, r1
 8006b42:	6831      	ldr	r1, [r6, #0]
 8006b44:	4605      	mov	r5, r0
 8006b46:	b911      	cbnz	r1, 8006b4e <sbrk_aligned+0x12>
 8006b48:	f000 f88c 	bl	8006c64 <_sbrk_r>
 8006b4c:	6030      	str	r0, [r6, #0]
 8006b4e:	4621      	mov	r1, r4
 8006b50:	4628      	mov	r0, r5
 8006b52:	f000 f887 	bl	8006c64 <_sbrk_r>
 8006b56:	1c43      	adds	r3, r0, #1
 8006b58:	d00a      	beq.n	8006b70 <sbrk_aligned+0x34>
 8006b5a:	1cc4      	adds	r4, r0, #3
 8006b5c:	f024 0403 	bic.w	r4, r4, #3
 8006b60:	42a0      	cmp	r0, r4
 8006b62:	d007      	beq.n	8006b74 <sbrk_aligned+0x38>
 8006b64:	1a21      	subs	r1, r4, r0
 8006b66:	4628      	mov	r0, r5
 8006b68:	f000 f87c 	bl	8006c64 <_sbrk_r>
 8006b6c:	3001      	adds	r0, #1
 8006b6e:	d101      	bne.n	8006b74 <sbrk_aligned+0x38>
 8006b70:	f04f 34ff 	mov.w	r4, #4294967295
 8006b74:	4620      	mov	r0, r4
 8006b76:	bd70      	pop	{r4, r5, r6, pc}
 8006b78:	200012c8 	.word	0x200012c8

08006b7c <_malloc_r>:
 8006b7c:	e92d 41f0 	stmdb	sp!, {r4, r5, r6, r7, r8, lr}
 8006b80:	1ccd      	adds	r5, r1, #3
 8006b82:	f025 0503 	bic.w	r5, r5, #3
 8006b86:	3508      	adds	r5, #8
 8006b88:	2d0c      	cmp	r5, #12
 8006b8a:	bf38      	it	cc
 8006b8c:	250c      	movcc	r5, #12
 8006b8e:	2d00      	cmp	r5, #0
 8006b90:	4607      	mov	r7, r0
 8006b92:	db01      	blt.n	8006b98 <_malloc_r+0x1c>
 8006b94:	42a9      	cmp	r1, r5
 8006b96:	d905      	bls.n	8006ba4 <_malloc_r+0x28>
 8006b98:	230c      	movs	r3, #12
 8006b9a:	603b      	str	r3, [r7, #0]
 8006b9c:	2600      	movs	r6, #0
 8006b9e:	4630      	mov	r0, r6
 8006ba0:	e8bd 81f0 	ldmia.w	sp!, {r4, r5, r6, r7, r8, pc}
 8006ba4:	4e2e      	ldr	r6, [pc, #184]	; (8006c60 <_malloc_r+0xe4>)
 8006ba6:	f000 f8af 	bl	8006d08 <__malloc_lock>
 8006baa:	6833      	ldr	r3, [r6, #0]
 8006bac:	461c      	mov	r4, r3
 8006bae:	bb34      	cbnz	r4, 8006bfe <_malloc_r+0x82>
 8006bb0:	4629      	mov	r1, r5
 8006bb2:	4638      	mov	r0, r7
 8006bb4:	f7ff ffc2 	bl	8006b3c <sbrk_aligned>
 8006bb8:	1c43      	adds	r3, r0, #1
 8006bba:	4604      	mov	r4, r0
 8006bbc:	d14d      	bne.n	8006c5a <_malloc_r+0xde>
 8006bbe:	6834      	ldr	r4, [r6, #0]
 8006bc0:	4626      	mov	r6, r4
 8006bc2:	2e00      	cmp	r6, #0
 8006bc4:	d140      	bne.n	8006c48 <_malloc_r+0xcc>
 8006bc6:	6823      	ldr	r3, [r4, #0]
 8006bc8:	4631      	mov	r1, r6
 8006bca:	4638      	mov	r0, r7
 8006bcc:	eb04 0803 	add.w	r8, r4, r3
 8006bd0:	f000 f848 	bl	8006c64 <_sbrk_r>
 8006bd4:	4580      	cmp	r8, r0
 8006bd6:	d13a      	bne.n	8006c4e <_malloc_r+0xd2>
 8006bd8:	6821      	ldr	r1, [r4, #0]
 8006bda:	3503      	adds	r5, #3
 8006bdc:	1a6d      	subs	r5, r5, r1
 8006bde:	f025 0503 	bic.w	r5, r5, #3
 8006be2:	3508      	adds	r5, #8
 8006be4:	2d0c      	cmp	r5, #12
 8006be6:	bf38      	it	cc
 8006be8:	250c      	movcc	r5, #12
 8006bea:	4629      	mov	r1, r5
 8006bec:	4638      	mov	r0, r7
 8006bee:	f7ff ffa5 	bl	8006b3c <sbrk_aligned>
 8006bf2:	3001      	adds	r0, #1
 8006bf4:	d02b      	beq.n	8006c4e <_malloc_r+0xd2>
 8006bf6:	6823      	ldr	r3, [r4, #0]
 8006bf8:	442b      	add	r3, r5
 8006bfa:	6023      	str	r3, [r4, #0]
 8006bfc:	e00e      	b.n	8006c1c <_malloc_r+0xa0>
 8006bfe:	6822      	ldr	r2, [r4, #0]
 8006c00:	1b52      	subs	r2, r2, r5
 8006c02:	d41e      	bmi.n	8006c42 <_malloc_r+0xc6>
 8006c04:	2a0b      	cmp	r2, #11
 8006c06:	d916      	bls.n	8006c36 <_malloc_r+0xba>
 8006c08:	1961      	adds	r1, r4, r5
 8006c0a:	42a3      	cmp	r3, r4
 8006c0c:	6025      	str	r5, [r4, #0]
 8006c0e:	bf18      	it	ne
 8006c10:	6059      	strne	r1, [r3, #4]
 8006c12:	6863      	ldr	r3, [r4, #4]
 8006c14:	bf08      	it	eq
 8006c16:	6031      	streq	r1, [r6, #0]
 8006c18:	5162      	str	r2, [r4, r5]
 8006c1a:	604b      	str	r3, [r1, #4]
 8006c1c:	4638      	mov	r0, r7
 8006c1e:	f104 060b 	add.w	r6, r4, #11
 8006c22:	f000 f877 	bl	8006d14 <__malloc_unlock>
 8006c26:	f026 0607 	bic.w	r6, r6, #7
 8006c2a:	1d23      	adds	r3, r4, #4
 8006c2c:	1af2      	subs	r2, r6, r3
 8006c2e:	d0b6      	beq.n	8006b9e <_malloc_r+0x22>
 8006c30:	1b9b      	subs	r3, r3, r6
 8006c32:	50a3      	str	r3, [r4, r2]
 8006c34:	e7b3      	b.n	8006b9e <_malloc_r+0x22>
 8006c36:	6862      	ldr	r2, [r4, #4]
 8006c38:	42a3      	cmp	r3, r4
 8006c3a:	bf0c      	ite	eq
 8006c3c:	6032      	streq	r2, [r6, #0]
 8006c3e:	605a      	strne	r2, [r3, #4]
 8006c40:	e7ec      	b.n	8006c1c <_malloc_r+0xa0>
 8006c42:	4623      	mov	r3, r4
 8006c44:	6864      	ldr	r4, [r4, #4]
 8006c46:	e7b2      	b.n	8006bae <_malloc_r+0x32>
 8006c48:	4634      	mov	r4, r6
 8006c4a:	6876      	ldr	r6, [r6, #4]
 8006c4c:	e7b9      	b.n	8006bc2 <_malloc_r+0x46>
 8006c4e:	230c      	movs	r3, #12
 8006c50:	603b      	str	r3, [r7, #0]
 8006c52:	4638      	mov	r0, r7
 8006c54:	f000 f85e 	bl	8006d14 <__malloc_unlock>
 8006c58:	e7a1      	b.n	8006b9e <_malloc_r+0x22>
 8006c5a:	6025      	str	r5, [r4, #0]
 8006c5c:	e7de      	b.n	8006c1c <_malloc_r+0xa0>
 8006c5e:	bf00      	nop
 8006c60:	200012c4 	.word	0x200012c4

08006c64 <_sbrk_r>:
 8006c64:	b538      	push	{r3, r4, r5, lr}
 8006c66:	4d06      	ldr	r5, [pc, #24]	; (8006c80 <_sbrk_r+0x1c>)
 8006c68:	2300      	movs	r3, #0
 8006c6a:	4604      	mov	r4, r0
 8006c6c:	4608      	mov	r0, r1
 8006c6e:	602b      	str	r3, [r5, #0]
 8006c70:	f7fd ffdc 	bl	8004c2c <_sbrk>
 8006c74:	1c43      	adds	r3, r0, #1
 8006c76:	d102      	bne.n	8006c7e <_sbrk_r+0x1a>
 8006c78:	682b      	ldr	r3, [r5, #0]
 8006c7a:	b103      	cbz	r3, 8006c7e <_sbrk_r+0x1a>
 8006c7c:	6023      	str	r3, [r4, #0]
 8006c7e:	bd38      	pop	{r3, r4, r5, pc}
 8006c80:	200012cc 	.word	0x200012cc

08006c84 <__assert_func>:
 8006c84:	b51f      	push	{r0, r1, r2, r3, r4, lr}
 8006c86:	4614      	mov	r4, r2
 8006c88:	461a      	mov	r2, r3
 8006c8a:	4b09      	ldr	r3, [pc, #36]	; (8006cb0 <__assert_func+0x2c>)
 8006c8c:	681b      	ldr	r3, [r3, #0]
 8006c8e:	4605      	mov	r5, r0
 8006c90:	68d8      	ldr	r0, [r3, #12]
 8006c92:	b14c      	cbz	r4, 8006ca8 <__assert_func+0x24>
 8006c94:	4b07      	ldr	r3, [pc, #28]	; (8006cb4 <__assert_func+0x30>)
 8006c96:	9100      	str	r1, [sp, #0]
 8006c98:	e9cd 3401 	strd	r3, r4, [sp, #4]
 8006c9c:	4906      	ldr	r1, [pc, #24]	; (8006cb8 <__assert_func+0x34>)
 8006c9e:	462b      	mov	r3, r5
 8006ca0:	f000 f80e 	bl	8006cc0 <fiprintf>
 8006ca4:	f000 fa64 	bl	8007170 <abort>
 8006ca8:	4b04      	ldr	r3, [pc, #16]	; (8006cbc <__assert_func+0x38>)
 8006caa:	461c      	mov	r4, r3
 8006cac:	e7f3      	b.n	8006c96 <__assert_func+0x12>
 8006cae:	bf00      	nop
 8006cb0:	2000104c 	.word	0x2000104c
 8006cb4:	08008854 	.word	0x08008854
 8006cb8:	08008861 	.word	0x08008861
 8006cbc:	0800888f 	.word	0x0800888f

08006cc0 <fiprintf>:
 8006cc0:	b40e      	push	{r1, r2, r3}
 8006cc2:	b503      	push	{r0, r1, lr}
 8006cc4:	4601      	mov	r1, r0
 8006cc6:	ab03      	add	r3, sp, #12
 8006cc8:	4805      	ldr	r0, [pc, #20]	; (8006ce0 <fiprintf+0x20>)
 8006cca:	f853 2b04 	ldr.w	r2, [r3], #4
 8006cce:	6800      	ldr	r0, [r0, #0]
 8006cd0:	9301      	str	r3, [sp, #4]
 8006cd2:	f000 f84f 	bl	8006d74 <_vfiprintf_r>
 8006cd6:	b002      	add	sp, #8
 8006cd8:	f85d eb04 	ldr.w	lr, [sp], #4
 8006cdc:	b003      	add	sp, #12
 8006cde:	4770      	bx	lr
 8006ce0:	2000104c 	.word	0x2000104c

08006ce4 <__ascii_mbtowc>:
 8006ce4:	b082      	sub	sp, #8
 8006ce6:	b901      	cbnz	r1, 8006cea <__ascii_mbtowc+0x6>
 8006ce8:	a901      	add	r1, sp, #4
 8006cea:	b142      	cbz	r2, 8006cfe <__ascii_mbtowc+0x1a>
 8006cec:	b14b      	cbz	r3, 8006d02 <__ascii_mbtowc+0x1e>
 8006cee:	7813      	ldrb	r3, [r2, #0]
 8006cf0:	600b      	str	r3, [r1, #0]
 8006cf2:	7812      	ldrb	r2, [r2, #0]
 8006cf4:	1e10      	subs	r0, r2, #0
 8006cf6:	bf18      	it	ne
 8006cf8:	2001      	movne	r0, #1
 8006cfa:	b002      	add	sp, #8
 8006cfc:	4770      	bx	lr
 8006cfe:	4610      	mov	r0, r2
 8006d00:	e7fb      	b.n	8006cfa <__ascii_mbtowc+0x16>
 8006d02:	f06f 0001 	mvn.w	r0, #1
 8006d06:	e7f8      	b.n	8006cfa <__ascii_mbtowc+0x16>

08006d08 <__malloc_lock>:
 8006d08:	4801      	ldr	r0, [pc, #4]	; (8006d10 <__malloc_lock+0x8>)
 8006d0a:	f000 bbf1 	b.w	80074f0 <__retarget_lock_acquire_recursive>
 8006d0e:	bf00      	nop
 8006d10:	200012d0 	.word	0x200012d0

08006d14 <__malloc_unlock>:
 8006d14:	4801      	ldr	r0, [pc, #4]	; (8006d1c <__malloc_unlock+0x8>)
 8006d16:	f000 bbec 	b.w	80074f2 <__retarget_lock_release_recursive>
 8006d1a:	bf00      	nop
 8006d1c:	200012d0 	.word	0x200012d0

08006d20 <__sfputc_r>:
 8006d20:	6893      	ldr	r3, [r2, #8]
 8006d22:	3b01      	subs	r3, #1
 8006d24:	2b00      	cmp	r3, #0
 8006d26:	b410      	push	{r4}
 8006d28:	6093      	str	r3, [r2, #8]
 8006d2a:	da08      	bge.n	8006d3e <__sfputc_r+0x1e>
 8006d2c:	6994      	ldr	r4, [r2, #24]
 8006d2e:	42a3      	cmp	r3, r4
 8006d30:	db01      	blt.n	8006d36 <__sfputc_r+0x16>
 8006d32:	290a      	cmp	r1, #10
 8006d34:	d103      	bne.n	8006d3e <__sfputc_r+0x1e>
 8006d36:	f85d 4b04 	ldr.w	r4, [sp], #4
 8006d3a:	f000 b94b 	b.w	8006fd4 <__swbuf_r>
 8006d3e:	6813      	ldr	r3, [r2, #0]
 8006d40:	1c58      	adds	r0, r3, #1
 8006d42:	6010      	str	r0, [r2, #0]
 8006d44:	7019      	strb	r1, [r3, #0]
 8006d46:	4608      	mov	r0, r1
 8006d48:	f85d 4b04 	ldr.w	r4, [sp], #4
 8006d4c:	4770      	bx	lr

08006d4e <__sfputs_r>:
 8006d4e:	b5f8      	push	{r3, r4, r5, r6, r7, lr}
 8006d50:	4606      	mov	r6, r0
 8006d52:	460f      	mov	r7, r1
 8006d54:	4614      	mov	r4, r2
 8006d56:	18d5      	adds	r5, r2, r3
 8006d58:	42ac      	cmp	r4, r5
 8006d5a:	d101      	bne.n	8006d60 <__sfputs_r+0x12>
 8006d5c:	2000      	movs	r0, #0
 8006d5e:	e007      	b.n	8006d70 <__sfputs_r+0x22>
 8006d60:	f814 1b01 	ldrb.w	r1, [r4], #1
 8006d64:	463a      	mov	r2, r7
 8006d66:	4630      	mov	r0, r6
 8006d68:	f7ff ffda 	bl	8006d20 <__sfputc_r>
 8006d6c:	1c43      	adds	r3, r0, #1
 8006d6e:	d1f3      	bne.n	8006d58 <__sfputs_r+0xa>
 8006d70:	bdf8      	pop	{r3, r4, r5, r6, r7, pc}
	...

08006d74 <_vfiprintf_r>:
 8006d74:	e92d 4ff0 	stmdb	sp!, {r4, r5, r6, r7, r8, r9, sl, fp, lr}
 8006d78:	460d      	mov	r5, r1
 8006d7a:	b09d      	sub	sp, #116	; 0x74
 8006d7c:	4614      	mov	r4, r2
 8006d7e:	4698      	mov	r8, r3
 8006d80:	4606      	mov	r6, r0
 8006d82:	b118      	cbz	r0, 8006d8c <_vfiprintf_r+0x18>
 8006d84:	6983      	ldr	r3, [r0, #24]
 8006d86:	b90b      	cbnz	r3, 8006d8c <_vfiprintf_r+0x18>
 8006d88:	f000 fb14 	bl	80073b4 <__sinit>
 8006d8c:	4b89      	ldr	r3, [pc, #548]	; (8006fb4 <_vfiprintf_r+0x240>)
 8006d8e:	429d      	cmp	r5, r3
 8006d90:	d11b      	bne.n	8006dca <_vfiprintf_r+0x56>
 8006d92:	6875      	ldr	r5, [r6, #4]
 8006d94:	6e6b      	ldr	r3, [r5, #100]	; 0x64
 8006d96:	07d9      	lsls	r1, r3, #31
 8006d98:	d405      	bmi.n	8006da6 <_vfiprintf_r+0x32>
 8006d9a:	89ab      	ldrh	r3, [r5, #12]
 8006d9c:	059a      	lsls	r2, r3, #22
 8006d9e:	d402      	bmi.n	8006da6 <_vfiprintf_r+0x32>
 8006da0:	6da8      	ldr	r0, [r5, #88]	; 0x58
 8006da2:	f000 fba5 	bl	80074f0 <__retarget_lock_acquire_recursive>
 8006da6:	89ab      	ldrh	r3, [r5, #12]
 8006da8:	071b      	lsls	r3, r3, #28
 8006daa:	d501      	bpl.n	8006db0 <_vfiprintf_r+0x3c>
 8006dac:	692b      	ldr	r3, [r5, #16]
 8006dae:	b9eb      	cbnz	r3, 8006dec <_vfiprintf_r+0x78>
 8006db0:	4629      	mov	r1, r5
 8006db2:	4630      	mov	r0, r6
 8006db4:	f000 f96e 	bl	8007094 <__swsetup_r>
 8006db8:	b1c0      	cbz	r0, 8006dec <_vfiprintf_r+0x78>
 8006dba:	6e6b      	ldr	r3, [r5, #100]	; 0x64
 8006dbc:	07dc      	lsls	r4, r3, #31
 8006dbe:	d50e      	bpl.n	8006dde <_vfiprintf_r+0x6a>
 8006dc0:	f04f 30ff 	mov.w	r0, #4294967295
 8006dc4:	b01d      	add	sp, #116	; 0x74
 8006dc6:	e8bd 8ff0 	ldmia.w	sp!, {r4, r5, r6, r7, r8, r9, sl, fp, pc}
 8006dca:	4b7b      	ldr	r3, [pc, #492]	; (8006fb8 <_vfiprintf_r+0x244>)
 8006dcc:	429d      	cmp	r5, r3
 8006dce:	d101      	bne.n	8006dd4 <_vfiprintf_r+0x60>
 8006dd0:	68b5      	ldr	r5, [r6, #8]
 8006dd2:	e7df      	b.n	8006d94 <_vfiprintf_r+0x20>
 8006dd4:	4b79      	ldr	r3, [pc, #484]	; (8006fbc <_vfiprintf_r+0x248>)
 8006dd6:	429d      	cmp	r5, r3
 8006dd8:	bf08      	it	eq
 8006dda:	68f5      	ldreq	r5, [r6, #12]
 8006ddc:	e7da      	b.n	8006d94 <_vfiprintf_r+0x20>
 8006dde:	89ab      	ldrh	r3, [r5, #12]
 8006de0:	0598      	lsls	r0, r3, #22
 8006de2:	d4ed      	bmi.n	8006dc0 <_vfiprintf_r+0x4c>
 8006de4:	6da8      	ldr	r0, [r5, #88]	; 0x58
 8006de6:	f000 fb84 	bl	80074f2 <__retarget_lock_release_recursive>
 8006dea:	e7e9      	b.n	8006dc0 <_vfiprintf_r+0x4c>
 8006dec:	2300      	movs	r3, #0
 8006dee:	9309      	str	r3, [sp, #36]	; 0x24
 8006df0:	2320      	movs	r3, #32
 8006df2:	f88d 3029 	strb.w	r3, [sp, #41]	; 0x29
 8006df6:	f8cd 800c 	str.w	r8, [sp, #12]
 8006dfa:	2330      	movs	r3, #48	; 0x30
 8006dfc:	f8df 81c0 	ldr.w	r8, [pc, #448]	; 8006fc0 <_vfiprintf_r+0x24c>
 8006e00:	f88d 302a 	strb.w	r3, [sp, #42]	; 0x2a
 8006e04:	f04f 0901 	mov.w	r9, #1
 8006e08:	4623      	mov	r3, r4
 8006e0a:	469a      	mov	sl, r3
 8006e0c:	f813 2b01 	ldrb.w	r2, [r3], #1
 8006e10:	b10a      	cbz	r2, 8006e16 <_vfiprintf_r+0xa2>
 8006e12:	2a25      	cmp	r2, #37	; 0x25
 8006e14:	d1f9      	bne.n	8006e0a <_vfiprintf_r+0x96>
 8006e16:	ebba 0b04 	subs.w	fp, sl, r4
 8006e1a:	d00b      	beq.n	8006e34 <_vfiprintf_r+0xc0>
 8006e1c:	465b      	mov	r3, fp
 8006e1e:	4622      	mov	r2, r4
 8006e20:	4629      	mov	r1, r5
 8006e22:	4630      	mov	r0, r6
 8006e24:	f7ff ff93 	bl	8006d4e <__sfputs_r>
 8006e28:	3001      	adds	r0, #1
 8006e2a:	f000 80aa 	beq.w	8006f82 <_vfiprintf_r+0x20e>
 8006e2e:	9a09      	ldr	r2, [sp, #36]	; 0x24
 8006e30:	445a      	add	r2, fp
 8006e32:	9209      	str	r2, [sp, #36]	; 0x24
 8006e34:	f89a 3000 	ldrb.w	r3, [sl]
 8006e38:	2b00      	cmp	r3, #0
 8006e3a:	f000 80a2 	beq.w	8006f82 <_vfiprintf_r+0x20e>
 8006e3e:	2300      	movs	r3, #0
 8006e40:	f04f 32ff 	mov.w	r2, #4294967295
 8006e44:	e9cd 2305 	strd	r2, r3, [sp, #20]
 8006e48:	f10a 0a01 	add.w	sl, sl, #1
 8006e4c:	9304      	str	r3, [sp, #16]
 8006e4e:	9307      	str	r3, [sp, #28]
 8006e50:	f88d 3053 	strb.w	r3, [sp, #83]	; 0x53
 8006e54:	931a      	str	r3, [sp, #104]	; 0x68
 8006e56:	4654      	mov	r4, sl
 8006e58:	2205      	movs	r2, #5
 8006e5a:	f814 1b01 	ldrb.w	r1, [r4], #1
 8006e5e:	4858      	ldr	r0, [pc, #352]	; (8006fc0 <_vfiprintf_r+0x24c>)
 8006e60:	f7f9 f9d6 	bl	8000210 <memchr>
 8006e64:	9a04      	ldr	r2, [sp, #16]
 8006e66:	b9d8      	cbnz	r0, 8006ea0 <_vfiprintf_r+0x12c>
 8006e68:	06d1      	lsls	r1, r2, #27
 8006e6a:	bf44      	itt	mi
 8006e6c:	2320      	movmi	r3, #32
 8006e6e:	f88d 3053 	strbmi.w	r3, [sp, #83]	; 0x53
 8006e72:	0713      	lsls	r3, r2, #28
 8006e74:	bf44      	itt	mi
 8006e76:	232b      	movmi	r3, #43	; 0x2b
 8006e78:	f88d 3053 	strbmi.w	r3, [sp, #83]	; 0x53
 8006e7c:	f89a 3000 	ldrb.w	r3, [sl]
 8006e80:	2b2a      	cmp	r3, #42	; 0x2a
 8006e82:	d015      	beq.n	8006eb0 <_vfiprintf_r+0x13c>
 8006e84:	9a07      	ldr	r2, [sp, #28]
 8006e86:	4654      	mov	r4, sl
 8006e88:	2000      	movs	r0, #0
 8006e8a:	f04f 0c0a 	mov.w	ip, #10
 8006e8e:	4621      	mov	r1, r4
 8006e90:	f811 3b01 	ldrb.w	r3, [r1], #1
 8006e94:	3b30      	subs	r3, #48	; 0x30
 8006e96:	2b09      	cmp	r3, #9
 8006e98:	d94e      	bls.n	8006f38 <_vfiprintf_r+0x1c4>
 8006e9a:	b1b0      	cbz	r0, 8006eca <_vfiprintf_r+0x156>
 8006e9c:	9207      	str	r2, [sp, #28]
 8006e9e:	e014      	b.n	8006eca <_vfiprintf_r+0x156>
 8006ea0:	eba0 0308 	sub.w	r3, r0, r8
 8006ea4:	fa09 f303 	lsl.w	r3, r9, r3
 8006ea8:	4313      	orrs	r3, r2
 8006eaa:	9304      	str	r3, [sp, #16]
 8006eac:	46a2      	mov	sl, r4
 8006eae:	e7d2      	b.n	8006e56 <_vfiprintf_r+0xe2>
 8006eb0:	9b03      	ldr	r3, [sp, #12]
 8006eb2:	1d19      	adds	r1, r3, #4
 8006eb4:	681b      	ldr	r3, [r3, #0]
 8006eb6:	9103      	str	r1, [sp, #12]
 8006eb8:	2b00      	cmp	r3, #0
 8006eba:	bfbb      	ittet	lt
 8006ebc:	425b      	neglt	r3, r3
 8006ebe:	f042 0202 	orrlt.w	r2, r2, #2
 8006ec2:	9307      	strge	r3, [sp, #28]
 8006ec4:	9307      	strlt	r3, [sp, #28]
 8006ec6:	bfb8      	it	lt
 8006ec8:	9204      	strlt	r2, [sp, #16]
 8006eca:	7823      	ldrb	r3, [r4, #0]
 8006ecc:	2b2e      	cmp	r3, #46	; 0x2e
 8006ece:	d10c      	bne.n	8006eea <_vfiprintf_r+0x176>
 8006ed0:	7863      	ldrb	r3, [r4, #1]
 8006ed2:	2b2a      	cmp	r3, #42	; 0x2a
 8006ed4:	d135      	bne.n	8006f42 <_vfiprintf_r+0x1ce>
 8006ed6:	9b03      	ldr	r3, [sp, #12]
 8006ed8:	1d1a      	adds	r2, r3, #4
 8006eda:	681b      	ldr	r3, [r3, #0]
 8006edc:	9203      	str	r2, [sp, #12]
 8006ede:	2b00      	cmp	r3, #0
 8006ee0:	bfb8      	it	lt
 8006ee2:	f04f 33ff 	movlt.w	r3, #4294967295
 8006ee6:	3402      	adds	r4, #2
 8006ee8:	9305      	str	r3, [sp, #20]
 8006eea:	f8df a0e4 	ldr.w	sl, [pc, #228]	; 8006fd0 <_vfiprintf_r+0x25c>
 8006eee:	7821      	ldrb	r1, [r4, #0]
 8006ef0:	2203      	movs	r2, #3
 8006ef2:	4650      	mov	r0, sl
 8006ef4:	f7f9 f98c 	bl	8000210 <memchr>
 8006ef8:	b140      	cbz	r0, 8006f0c <_vfiprintf_r+0x198>
 8006efa:	2340      	movs	r3, #64	; 0x40
 8006efc:	eba0 000a 	sub.w	r0, r0, sl
 8006f00:	fa03 f000 	lsl.w	r0, r3, r0
 8006f04:	9b04      	ldr	r3, [sp, #16]
 8006f06:	4303      	orrs	r3, r0
 8006f08:	3401      	adds	r4, #1
 8006f0a:	9304      	str	r3, [sp, #16]
 8006f0c:	f814 1b01 	ldrb.w	r1, [r4], #1
 8006f10:	482c      	ldr	r0, [pc, #176]	; (8006fc4 <_vfiprintf_r+0x250>)
 8006f12:	f88d 1028 	strb.w	r1, [sp, #40]	; 0x28
 8006f16:	2206      	movs	r2, #6
 8006f18:	f7f9 f97a 	bl	8000210 <memchr>
 8006f1c:	2800      	cmp	r0, #0
 8006f1e:	d03f      	beq.n	8006fa0 <_vfiprintf_r+0x22c>
 8006f20:	4b29      	ldr	r3, [pc, #164]	; (8006fc8 <_vfiprintf_r+0x254>)
 8006f22:	bb1b      	cbnz	r3, 8006f6c <_vfiprintf_r+0x1f8>
 8006f24:	9b03      	ldr	r3, [sp, #12]
 8006f26:	3307      	adds	r3, #7
 8006f28:	f023 0307 	bic.w	r3, r3, #7
 8006f2c:	3308      	adds	r3, #8
 8006f2e:	9303      	str	r3, [sp, #12]
 8006f30:	9b09      	ldr	r3, [sp, #36]	; 0x24
 8006f32:	443b      	add	r3, r7
 8006f34:	9309      	str	r3, [sp, #36]	; 0x24
 8006f36:	e767      	b.n	8006e08 <_vfiprintf_r+0x94>
 8006f38:	fb0c 3202 	mla	r2, ip, r2, r3
 8006f3c:	460c      	mov	r4, r1
 8006f3e:	2001      	movs	r0, #1
 8006f40:	e7a5      	b.n	8006e8e <_vfiprintf_r+0x11a>
 8006f42:	2300      	movs	r3, #0
 8006f44:	3401      	adds	r4, #1
 8006f46:	9305      	str	r3, [sp, #20]
 8006f48:	4619      	mov	r1, r3
 8006f4a:	f04f 0c0a 	mov.w	ip, #10
 8006f4e:	4620      	mov	r0, r4
 8006f50:	f810 2b01 	ldrb.w	r2, [r0], #1
 8006f54:	3a30      	subs	r2, #48	; 0x30
 8006f56:	2a09      	cmp	r2, #9
 8006f58:	d903      	bls.n	8006f62 <_vfiprintf_r+0x1ee>
 8006f5a:	2b00      	cmp	r3, #0
 8006f5c:	d0c5      	beq.n	8006eea <_vfiprintf_r+0x176>
 8006f5e:	9105      	str	r1, [sp, #20]
 8006f60:	e7c3      	b.n	8006eea <_vfiprintf_r+0x176>
 8006f62:	fb0c 2101 	mla	r1, ip, r1, r2
 8006f66:	4604      	mov	r4, r0
 8006f68:	2301      	movs	r3, #1
 8006f6a:	e7f0      	b.n	8006f4e <_vfiprintf_r+0x1da>
 8006f6c:	ab03      	add	r3, sp, #12
 8006f6e:	9300      	str	r3, [sp, #0]
 8006f70:	462a      	mov	r2, r5
 8006f72:	4b16      	ldr	r3, [pc, #88]	; (8006fcc <_vfiprintf_r+0x258>)
 8006f74:	a904      	add	r1, sp, #16
 8006f76:	4630      	mov	r0, r6
 8006f78:	f7fd ff9c 	bl	8004eb4 <_printf_float>
 8006f7c:	4607      	mov	r7, r0
 8006f7e:	1c78      	adds	r0, r7, #1
 8006f80:	d1d6      	bne.n	8006f30 <_vfiprintf_r+0x1bc>
 8006f82:	6e6b      	ldr	r3, [r5, #100]	; 0x64
 8006f84:	07d9      	lsls	r1, r3, #31
 8006f86:	d405      	bmi.n	8006f94 <_vfiprintf_r+0x220>
 8006f88:	89ab      	ldrh	r3, [r5, #12]
 8006f8a:	059a      	lsls	r2, r3, #22
 8006f8c:	d402      	bmi.n	8006f94 <_vfiprintf_r+0x220>
 8006f8e:	6da8      	ldr	r0, [r5, #88]	; 0x58
 8006f90:	f000 faaf 	bl	80074f2 <__retarget_lock_release_recursive>
 8006f94:	89ab      	ldrh	r3, [r5, #12]
 8006f96:	065b      	lsls	r3, r3, #25
 8006f98:	f53f af12 	bmi.w	8006dc0 <_vfiprintf_r+0x4c>
 8006f9c:	9809      	ldr	r0, [sp, #36]	; 0x24
 8006f9e:	e711      	b.n	8006dc4 <_vfiprintf_r+0x50>
 8006fa0:	ab03      	add	r3, sp, #12
 8006fa2:	9300      	str	r3, [sp, #0]
 8006fa4:	462a      	mov	r2, r5
 8006fa6:	4b09      	ldr	r3, [pc, #36]	; (8006fcc <_vfiprintf_r+0x258>)
 8006fa8:	a904      	add	r1, sp, #16
 8006faa:	4630      	mov	r0, r6
 8006fac:	f7fe fa26 	bl	80053fc <_printf_i>
 8006fb0:	e7e4      	b.n	8006f7c <_vfiprintf_r+0x208>
 8006fb2:	bf00      	nop
 8006fb4:	080089cc 	.word	0x080089cc
 8006fb8:	080089ec 	.word	0x080089ec
 8006fbc:	080089ac 	.word	0x080089ac
 8006fc0:	0800889a 	.word	0x0800889a
 8006fc4:	080088a4 	.word	0x080088a4
 8006fc8:	08004eb5 	.word	0x08004eb5
 8006fcc:	08006d4f 	.word	0x08006d4f
 8006fd0:	080088a0 	.word	0x080088a0

08006fd4 <__swbuf_r>:
 8006fd4:	b5f8      	push	{r3, r4, r5, r6, r7, lr}
 8006fd6:	460e      	mov	r6, r1
 8006fd8:	4614      	mov	r4, r2
 8006fda:	4605      	mov	r5, r0
 8006fdc:	b118      	cbz	r0, 8006fe6 <__swbuf_r+0x12>
 8006fde:	6983      	ldr	r3, [r0, #24]
 8006fe0:	b90b      	cbnz	r3, 8006fe6 <__swbuf_r+0x12>
 8006fe2:	f000 f9e7 	bl	80073b4 <__sinit>
 8006fe6:	4b21      	ldr	r3, [pc, #132]	; (800706c <__swbuf_r+0x98>)
 8006fe8:	429c      	cmp	r4, r3
 8006fea:	d12b      	bne.n	8007044 <__swbuf_r+0x70>
 8006fec:	686c      	ldr	r4, [r5, #4]
 8006fee:	69a3      	ldr	r3, [r4, #24]
 8006ff0:	60a3      	str	r3, [r4, #8]
 8006ff2:	89a3      	ldrh	r3, [r4, #12]
 8006ff4:	071a      	lsls	r2, r3, #28
 8006ff6:	d52f      	bpl.n	8007058 <__swbuf_r+0x84>
 8006ff8:	6923      	ldr	r3, [r4, #16]
 8006ffa:	b36b      	cbz	r3, 8007058 <__swbuf_r+0x84>
 8006ffc:	6923      	ldr	r3, [r4, #16]
 8006ffe:	6820      	ldr	r0, [r4, #0]
 8007000:	1ac0      	subs	r0, r0, r3
 8007002:	6963      	ldr	r3, [r4, #20]
 8007004:	b2f6      	uxtb	r6, r6
 8007006:	4283      	cmp	r3, r0
 8007008:	4637      	mov	r7, r6
 800700a:	dc04      	bgt.n	8007016 <__swbuf_r+0x42>
 800700c:	4621      	mov	r1, r4
 800700e:	4628      	mov	r0, r5
 8007010:	f000 f93c 	bl	800728c <_fflush_r>
 8007014:	bb30      	cbnz	r0, 8007064 <__swbuf_r+0x90>
 8007016:	68a3      	ldr	r3, [r4, #8]
 8007018:	3b01      	subs	r3, #1
 800701a:	60a3      	str	r3, [r4, #8]
 800701c:	6823      	ldr	r3, [r4, #0]
 800701e:	1c5a      	adds	r2, r3, #1
 8007020:	6022      	str	r2, [r4, #0]
 8007022:	701e      	strb	r6, [r3, #0]
 8007024:	6963      	ldr	r3, [r4, #20]
 8007026:	3001      	adds	r0, #1
 8007028:	4283      	cmp	r3, r0
 800702a:	d004      	beq.n	8007036 <__swbuf_r+0x62>
 800702c:	89a3      	ldrh	r3, [r4, #12]
 800702e:	07db      	lsls	r3, r3, #31
 8007030:	d506      	bpl.n	8007040 <__swbuf_r+0x6c>
 8007032:	2e0a      	cmp	r6, #10
 8007034:	d104      	bne.n	8007040 <__swbuf_r+0x6c>
 8007036:	4621      	mov	r1, r4
 8007038:	4628      	mov	r0, r5
 800703a:	f000 f927 	bl	800728c <_fflush_r>
 800703e:	b988      	cbnz	r0, 8007064 <__swbuf_r+0x90>
 8007040:	4638      	mov	r0, r7
 8007042:	bdf8      	pop	{r3, r4, r5, r6, r7, pc}
 8007044:	4b0a      	ldr	r3, [pc, #40]	; (8007070 <__swbuf_r+0x9c>)
 8007046:	429c      	cmp	r4, r3
 8007048:	d101      	bne.n	800704e <__swbuf_r+0x7a>
 800704a:	68ac      	ldr	r4, [r5, #8]
 800704c:	e7cf      	b.n	8006fee <__swbuf_r+0x1a>
 800704e:	4b09      	ldr	r3, [pc, #36]	; (8007074 <__swbuf_r+0xa0>)
 8007050:	429c      	cmp	r4, r3
 8007052:	bf08      	it	eq
 8007054:	68ec      	ldreq	r4, [r5, #12]
 8007056:	e7ca      	b.n	8006fee <__swbuf_r+0x1a>
 8007058:	4621      	mov	r1, r4
 800705a:	4628      	mov	r0, r5
 800705c:	f000 f81a 	bl	8007094 <__swsetup_r>
 8007060:	2800      	cmp	r0, #0
 8007062:	d0cb      	beq.n	8006ffc <__swbuf_r+0x28>
 8007064:	f04f 37ff 	mov.w	r7, #4294967295
 8007068:	e7ea      	b.n	8007040 <__swbuf_r+0x6c>
 800706a:	bf00      	nop
 800706c:	080089cc 	.word	0x080089cc
 8007070:	080089ec 	.word	0x080089ec
 8007074:	080089ac 	.word	0x080089ac

08007078 <__ascii_wctomb>:
 8007078:	b149      	cbz	r1, 800708e <__ascii_wctomb+0x16>
 800707a:	2aff      	cmp	r2, #255	; 0xff
 800707c:	bf85      	ittet	hi
 800707e:	238a      	movhi	r3, #138	; 0x8a
 8007080:	6003      	strhi	r3, [r0, #0]
 8007082:	700a      	strbls	r2, [r1, #0]
 8007084:	f04f 30ff 	movhi.w	r0, #4294967295
 8007088:	bf98      	it	ls
 800708a:	2001      	movls	r0, #1
 800708c:	4770      	bx	lr
 800708e:	4608      	mov	r0, r1
 8007090:	4770      	bx	lr
	...

08007094 <__swsetup_r>:
 8007094:	4b32      	ldr	r3, [pc, #200]	; (8007160 <__swsetup_r+0xcc>)
 8007096:	b570      	push	{r4, r5, r6, lr}
 8007098:	681d      	ldr	r5, [r3, #0]
 800709a:	4606      	mov	r6, r0
 800709c:	460c      	mov	r4, r1
 800709e:	b125      	cbz	r5, 80070aa <__swsetup_r+0x16>
 80070a0:	69ab      	ldr	r3, [r5, #24]
 80070a2:	b913      	cbnz	r3, 80070aa <__swsetup_r+0x16>
 80070a4:	4628      	mov	r0, r5
 80070a6:	f000 f985 	bl	80073b4 <__sinit>
 80070aa:	4b2e      	ldr	r3, [pc, #184]	; (8007164 <__swsetup_r+0xd0>)
 80070ac:	429c      	cmp	r4, r3
 80070ae:	d10f      	bne.n	80070d0 <__swsetup_r+0x3c>
 80070b0:	686c      	ldr	r4, [r5, #4]
 80070b2:	89a3      	ldrh	r3, [r4, #12]
 80070b4:	f9b4 200c 	ldrsh.w	r2, [r4, #12]
 80070b8:	0719      	lsls	r1, r3, #28
 80070ba:	d42c      	bmi.n	8007116 <__swsetup_r+0x82>
 80070bc:	06dd      	lsls	r5, r3, #27
 80070be:	d411      	bmi.n	80070e4 <__swsetup_r+0x50>
 80070c0:	2309      	movs	r3, #9
 80070c2:	6033      	str	r3, [r6, #0]
 80070c4:	f042 0340 	orr.w	r3, r2, #64	; 0x40
 80070c8:	81a3      	strh	r3, [r4, #12]
 80070ca:	f04f 30ff 	mov.w	r0, #4294967295
 80070ce:	e03e      	b.n	800714e <__swsetup_r+0xba>
 80070d0:	4b25      	ldr	r3, [pc, #148]	; (8007168 <__swsetup_r+0xd4>)
 80070d2:	429c      	cmp	r4, r3
 80070d4:	d101      	bne.n	80070da <__swsetup_r+0x46>
 80070d6:	68ac      	ldr	r4, [r5, #8]
 80070d8:	e7eb      	b.n	80070b2 <__swsetup_r+0x1e>
 80070da:	4b24      	ldr	r3, [pc, #144]	; (800716c <__swsetup_r+0xd8>)
 80070dc:	429c      	cmp	r4, r3
 80070de:	bf08      	it	eq
 80070e0:	68ec      	ldreq	r4, [r5, #12]
 80070e2:	e7e6      	b.n	80070b2 <__swsetup_r+0x1e>
 80070e4:	0758      	lsls	r0, r3, #29
 80070e6:	d512      	bpl.n	800710e <__swsetup_r+0x7a>
 80070e8:	6b61      	ldr	r1, [r4, #52]	; 0x34
 80070ea:	b141      	cbz	r1, 80070fe <__swsetup_r+0x6a>
 80070ec:	f104 0344 	add.w	r3, r4, #68	; 0x44
 80070f0:	4299      	cmp	r1, r3
 80070f2:	d002      	beq.n	80070fa <__swsetup_r+0x66>
 80070f4:	4630      	mov	r0, r6
 80070f6:	f7ff fcd5 	bl	8006aa4 <_free_r>
 80070fa:	2300      	movs	r3, #0
 80070fc:	6363      	str	r3, [r4, #52]	; 0x34
 80070fe:	89a3      	ldrh	r3, [r4, #12]
 8007100:	f023 0324 	bic.w	r3, r3, #36	; 0x24
 8007104:	81a3      	strh	r3, [r4, #12]
 8007106:	2300      	movs	r3, #0
 8007108:	6063      	str	r3, [r4, #4]
 800710a:	6923      	ldr	r3, [r4, #16]
 800710c:	6023      	str	r3, [r4, #0]
 800710e:	89a3      	ldrh	r3, [r4, #12]
 8007110:	f043 0308 	orr.w	r3, r3, #8
 8007114:	81a3      	strh	r3, [r4, #12]
 8007116:	6923      	ldr	r3, [r4, #16]
 8007118:	b94b      	cbnz	r3, 800712e <__swsetup_r+0x9a>
 800711a:	89a3      	ldrh	r3, [r4, #12]
 800711c:	f403 7320 	and.w	r3, r3, #640	; 0x280
 8007120:	f5b3 7f00 	cmp.w	r3, #512	; 0x200
 8007124:	d003      	beq.n	800712e <__swsetup_r+0x9a>
 8007126:	4621      	mov	r1, r4
 8007128:	4630      	mov	r0, r6
 800712a:	f000 fa09 	bl	8007540 <__smakebuf_r>
 800712e:	89a0      	ldrh	r0, [r4, #12]
 8007130:	f9b4 200c 	ldrsh.w	r2, [r4, #12]
 8007134:	f010 0301 	ands.w	r3, r0, #1
 8007138:	d00a      	beq.n	8007150 <__swsetup_r+0xbc>
 800713a:	2300      	movs	r3, #0
 800713c:	60a3      	str	r3, [r4, #8]
 800713e:	6963      	ldr	r3, [r4, #20]
 8007140:	425b      	negs	r3, r3
 8007142:	61a3      	str	r3, [r4, #24]
 8007144:	6923      	ldr	r3, [r4, #16]
 8007146:	b943      	cbnz	r3, 800715a <__swsetup_r+0xc6>
 8007148:	f010 0080 	ands.w	r0, r0, #128	; 0x80
 800714c:	d1ba      	bne.n	80070c4 <__swsetup_r+0x30>
 800714e:	bd70      	pop	{r4, r5, r6, pc}
 8007150:	0781      	lsls	r1, r0, #30
 8007152:	bf58      	it	pl
 8007154:	6963      	ldrpl	r3, [r4, #20]
 8007156:	60a3      	str	r3, [r4, #8]
 8007158:	e7f4      	b.n	8007144 <__swsetup_r+0xb0>
 800715a:	2000      	movs	r0, #0
 800715c:	e7f7      	b.n	800714e <__swsetup_r+0xba>
 800715e:	bf00      	nop
 8007160:	2000104c 	.word	0x2000104c
 8007164:	080089cc 	.word	0x080089cc
 8007168:	080089ec 	.word	0x080089ec
 800716c:	080089ac 	.word	0x080089ac

08007170 <abort>:
 8007170:	b508      	push	{r3, lr}
 8007172:	2006      	movs	r0, #6
 8007174:	f000 fa4c 	bl	8007610 <raise>
 8007178:	2001      	movs	r0, #1
 800717a:	f7fd fcfb 	bl	8004b74 <_exit>
	...

08007180 <__sflush_r>:
 8007180:	898a      	ldrh	r2, [r1, #12]
 8007182:	e92d 41f0 	stmdb	sp!, {r4, r5, r6, r7, r8, lr}
 8007186:	4605      	mov	r5, r0
 8007188:	0710      	lsls	r0, r2, #28
 800718a:	460c      	mov	r4, r1
 800718c:	d458      	bmi.n	8007240 <__sflush_r+0xc0>
 800718e:	684b      	ldr	r3, [r1, #4]
 8007190:	2b00      	cmp	r3, #0
 8007192:	dc05      	bgt.n	80071a0 <__sflush_r+0x20>
 8007194:	6c0b      	ldr	r3, [r1, #64]	; 0x40
 8007196:	2b00      	cmp	r3, #0
 8007198:	dc02      	bgt.n	80071a0 <__sflush_r+0x20>
 800719a:	2000      	movs	r0, #0
 800719c:	e8bd 81f0 	ldmia.w	sp!, {r4, r5, r6, r7, r8, pc}
 80071a0:	6ae6      	ldr	r6, [r4, #44]	; 0x2c
 80071a2:	2e00      	cmp	r6, #0
 80071a4:	d0f9      	beq.n	800719a <__sflush_r+0x1a>
 80071a6:	2300      	movs	r3, #0
 80071a8:	f412 5280 	ands.w	r2, r2, #4096	; 0x1000
 80071ac:	682f      	ldr	r7, [r5, #0]
 80071ae:	602b      	str	r3, [r5, #0]
 80071b0:	d032      	beq.n	8007218 <__sflush_r+0x98>
 80071b2:	6d60      	ldr	r0, [r4, #84]	; 0x54
 80071b4:	89a3      	ldrh	r3, [r4, #12]
 80071b6:	075a      	lsls	r2, r3, #29
 80071b8:	d505      	bpl.n	80071c6 <__sflush_r+0x46>
 80071ba:	6863      	ldr	r3, [r4, #4]
 80071bc:	1ac0      	subs	r0, r0, r3
 80071be:	6b63      	ldr	r3, [r4, #52]	; 0x34
 80071c0:	b10b      	cbz	r3, 80071c6 <__sflush_r+0x46>
 80071c2:	6c23      	ldr	r3, [r4, #64]	; 0x40
 80071c4:	1ac0      	subs	r0, r0, r3
 80071c6:	2300      	movs	r3, #0
 80071c8:	4602      	mov	r2, r0
 80071ca:	6ae6      	ldr	r6, [r4, #44]	; 0x2c
 80071cc:	6a21      	ldr	r1, [r4, #32]
 80071ce:	4628      	mov	r0, r5
 80071d0:	47b0      	blx	r6
 80071d2:	1c43      	adds	r3, r0, #1
 80071d4:	89a3      	ldrh	r3, [r4, #12]
 80071d6:	d106      	bne.n	80071e6 <__sflush_r+0x66>
 80071d8:	6829      	ldr	r1, [r5, #0]
 80071da:	291d      	cmp	r1, #29
 80071dc:	d82c      	bhi.n	8007238 <__sflush_r+0xb8>
 80071de:	4a2a      	ldr	r2, [pc, #168]	; (8007288 <__sflush_r+0x108>)
 80071e0:	40ca      	lsrs	r2, r1
 80071e2:	07d6      	lsls	r6, r2, #31
 80071e4:	d528      	bpl.n	8007238 <__sflush_r+0xb8>
 80071e6:	2200      	movs	r2, #0
 80071e8:	6062      	str	r2, [r4, #4]
 80071ea:	04d9      	lsls	r1, r3, #19
 80071ec:	6922      	ldr	r2, [r4, #16]
 80071ee:	6022      	str	r2, [r4, #0]
 80071f0:	d504      	bpl.n	80071fc <__sflush_r+0x7c>
 80071f2:	1c42      	adds	r2, r0, #1
 80071f4:	d101      	bne.n	80071fa <__sflush_r+0x7a>
 80071f6:	682b      	ldr	r3, [r5, #0]
 80071f8:	b903      	cbnz	r3, 80071fc <__sflush_r+0x7c>
 80071fa:	6560      	str	r0, [r4, #84]	; 0x54
 80071fc:	6b61      	ldr	r1, [r4, #52]	; 0x34
 80071fe:	602f      	str	r7, [r5, #0]
 8007200:	2900      	cmp	r1, #0
 8007202:	d0ca      	beq.n	800719a <__sflush_r+0x1a>
 8007204:	f104 0344 	add.w	r3, r4, #68	; 0x44
 8007208:	4299      	cmp	r1, r3
 800720a:	d002      	beq.n	8007212 <__sflush_r+0x92>
 800720c:	4628      	mov	r0, r5
 800720e:	f7ff fc49 	bl	8006aa4 <_free_r>
 8007212:	2000      	movs	r0, #0
 8007214:	6360      	str	r0, [r4, #52]	; 0x34
 8007216:	e7c1      	b.n	800719c <__sflush_r+0x1c>
 8007218:	6a21      	ldr	r1, [r4, #32]
 800721a:	2301      	movs	r3, #1
 800721c:	4628      	mov	r0, r5
 800721e:	47b0      	blx	r6
 8007220:	1c41      	adds	r1, r0, #1
 8007222:	d1c7      	bne.n	80071b4 <__sflush_r+0x34>
 8007224:	682b      	ldr	r3, [r5, #0]
 8007226:	2b00      	cmp	r3, #0
 8007228:	d0c4      	beq.n	80071b4 <__sflush_r+0x34>
 800722a:	2b1d      	cmp	r3, #29
 800722c:	d001      	beq.n	8007232 <__sflush_r+0xb2>
 800722e:	2b16      	cmp	r3, #22
 8007230:	d101      	bne.n	8007236 <__sflush_r+0xb6>
 8007232:	602f      	str	r7, [r5, #0]
 8007234:	e7b1      	b.n	800719a <__sflush_r+0x1a>
 8007236:	89a3      	ldrh	r3, [r4, #12]
 8007238:	f043 0340 	orr.w	r3, r3, #64	; 0x40
 800723c:	81a3      	strh	r3, [r4, #12]
 800723e:	e7ad      	b.n	800719c <__sflush_r+0x1c>
 8007240:	690f      	ldr	r7, [r1, #16]
 8007242:	2f00      	cmp	r7, #0
 8007244:	d0a9      	beq.n	800719a <__sflush_r+0x1a>
 8007246:	0793      	lsls	r3, r2, #30
 8007248:	680e      	ldr	r6, [r1, #0]
 800724a:	bf08      	it	eq
 800724c:	694b      	ldreq	r3, [r1, #20]
 800724e:	600f      	str	r7, [r1, #0]
 8007250:	bf18      	it	ne
 8007252:	2300      	movne	r3, #0
 8007254:	eba6 0807 	sub.w	r8, r6, r7
 8007258:	608b      	str	r3, [r1, #8]
 800725a:	f1b8 0f00 	cmp.w	r8, #0
 800725e:	dd9c      	ble.n	800719a <__sflush_r+0x1a>
 8007260:	6a21      	ldr	r1, [r4, #32]
 8007262:	6aa6      	ldr	r6, [r4, #40]	; 0x28
 8007264:	4643      	mov	r3, r8
 8007266:	463a      	mov	r2, r7
 8007268:	4628      	mov	r0, r5
 800726a:	47b0      	blx	r6
 800726c:	2800      	cmp	r0, #0
 800726e:	dc06      	bgt.n	800727e <__sflush_r+0xfe>
 8007270:	89a3      	ldrh	r3, [r4, #12]
 8007272:	f043 0340 	orr.w	r3, r3, #64	; 0x40
 8007276:	81a3      	strh	r3, [r4, #12]
 8007278:	f04f 30ff 	mov.w	r0, #4294967295
 800727c:	e78e      	b.n	800719c <__sflush_r+0x1c>
 800727e:	4407      	add	r7, r0
 8007280:	eba8 0800 	sub.w	r8, r8, r0
 8007284:	e7e9      	b.n	800725a <__sflush_r+0xda>
 8007286:	bf00      	nop
 8007288:	20400001 	.word	0x20400001

0800728c <_fflush_r>:
 800728c:	b538      	push	{r3, r4, r5, lr}
 800728e:	690b      	ldr	r3, [r1, #16]
 8007290:	4605      	mov	r5, r0
 8007292:	460c      	mov	r4, r1
 8007294:	b913      	cbnz	r3, 800729c <_fflush_r+0x10>
 8007296:	2500      	movs	r5, #0
 8007298:	4628      	mov	r0, r5
 800729a:	bd38      	pop	{r3, r4, r5, pc}
 800729c:	b118      	cbz	r0, 80072a6 <_fflush_r+0x1a>
 800729e:	6983      	ldr	r3, [r0, #24]
 80072a0:	b90b      	cbnz	r3, 80072a6 <_fflush_r+0x1a>
 80072a2:	f000 f887 	bl	80073b4 <__sinit>
 80072a6:	4b14      	ldr	r3, [pc, #80]	; (80072f8 <_fflush_r+0x6c>)
 80072a8:	429c      	cmp	r4, r3
 80072aa:	d11b      	bne.n	80072e4 <_fflush_r+0x58>
 80072ac:	686c      	ldr	r4, [r5, #4]
 80072ae:	f9b4 300c 	ldrsh.w	r3, [r4, #12]
 80072b2:	2b00      	cmp	r3, #0
 80072b4:	d0ef      	beq.n	8007296 <_fflush_r+0xa>
 80072b6:	6e62      	ldr	r2, [r4, #100]	; 0x64
 80072b8:	07d0      	lsls	r0, r2, #31
 80072ba:	d404      	bmi.n	80072c6 <_fflush_r+0x3a>
 80072bc:	0599      	lsls	r1, r3, #22
 80072be:	d402      	bmi.n	80072c6 <_fflush_r+0x3a>
 80072c0:	6da0      	ldr	r0, [r4, #88]	; 0x58
 80072c2:	f000 f915 	bl	80074f0 <__retarget_lock_acquire_recursive>
 80072c6:	4628      	mov	r0, r5
 80072c8:	4621      	mov	r1, r4
 80072ca:	f7ff ff59 	bl	8007180 <__sflush_r>
 80072ce:	6e63      	ldr	r3, [r4, #100]	; 0x64
 80072d0:	07da      	lsls	r2, r3, #31
 80072d2:	4605      	mov	r5, r0
 80072d4:	d4e0      	bmi.n	8007298 <_fflush_r+0xc>
 80072d6:	89a3      	ldrh	r3, [r4, #12]
 80072d8:	059b      	lsls	r3, r3, #22
 80072da:	d4dd      	bmi.n	8007298 <_fflush_r+0xc>
 80072dc:	6da0      	ldr	r0, [r4, #88]	; 0x58
 80072de:	f000 f908 	bl	80074f2 <__retarget_lock_release_recursive>
 80072e2:	e7d9      	b.n	8007298 <_fflush_r+0xc>
 80072e4:	4b05      	ldr	r3, [pc, #20]	; (80072fc <_fflush_r+0x70>)
 80072e6:	429c      	cmp	r4, r3
 80072e8:	d101      	bne.n	80072ee <_fflush_r+0x62>
 80072ea:	68ac      	ldr	r4, [r5, #8]
 80072ec:	e7df      	b.n	80072ae <_fflush_r+0x22>
 80072ee:	4b04      	ldr	r3, [pc, #16]	; (8007300 <_fflush_r+0x74>)
 80072f0:	429c      	cmp	r4, r3
 80072f2:	bf08      	it	eq
 80072f4:	68ec      	ldreq	r4, [r5, #12]
 80072f6:	e7da      	b.n	80072ae <_fflush_r+0x22>
 80072f8:	080089cc 	.word	0x080089cc
 80072fc:	080089ec 	.word	0x080089ec
 8007300:	080089ac 	.word	0x080089ac

08007304 <std>:
 8007304:	2300      	movs	r3, #0
 8007306:	b510      	push	{r4, lr}
 8007308:	4604      	mov	r4, r0
 800730a:	e9c0 3300 	strd	r3, r3, [r0]
 800730e:	e9c0 3304 	strd	r3, r3, [r0, #16]
 8007312:	6083      	str	r3, [r0, #8]
 8007314:	8181      	strh	r1, [r0, #12]
 8007316:	6643      	str	r3, [r0, #100]	; 0x64
 8007318:	81c2      	strh	r2, [r0, #14]
 800731a:	6183      	str	r3, [r0, #24]
 800731c:	4619      	mov	r1, r3
 800731e:	2208      	movs	r2, #8
 8007320:	305c      	adds	r0, #92	; 0x5c
 8007322:	f7fd fd1f 	bl	8004d64 <memset>
 8007326:	4b05      	ldr	r3, [pc, #20]	; (800733c <std+0x38>)
 8007328:	6263      	str	r3, [r4, #36]	; 0x24
 800732a:	4b05      	ldr	r3, [pc, #20]	; (8007340 <std+0x3c>)
 800732c:	62a3      	str	r3, [r4, #40]	; 0x28
 800732e:	4b05      	ldr	r3, [pc, #20]	; (8007344 <std+0x40>)
 8007330:	62e3      	str	r3, [r4, #44]	; 0x2c
 8007332:	4b05      	ldr	r3, [pc, #20]	; (8007348 <std+0x44>)
 8007334:	6224      	str	r4, [r4, #32]
 8007336:	6323      	str	r3, [r4, #48]	; 0x30
 8007338:	bd10      	pop	{r4, pc}
 800733a:	bf00      	nop
 800733c:	08007649 	.word	0x08007649
 8007340:	0800766b 	.word	0x0800766b
 8007344:	080076a3 	.word	0x080076a3
 8007348:	080076c7 	.word	0x080076c7

0800734c <_cleanup_r>:
 800734c:	4901      	ldr	r1, [pc, #4]	; (8007354 <_cleanup_r+0x8>)
 800734e:	f000 b8af 	b.w	80074b0 <_fwalk_reent>
 8007352:	bf00      	nop
 8007354:	0800728d 	.word	0x0800728d

08007358 <__sfmoreglue>:
 8007358:	b570      	push	{r4, r5, r6, lr}
 800735a:	2268      	movs	r2, #104	; 0x68
 800735c:	1e4d      	subs	r5, r1, #1
 800735e:	4355      	muls	r5, r2
 8007360:	460e      	mov	r6, r1
 8007362:	f105 0174 	add.w	r1, r5, #116	; 0x74
 8007366:	f7ff fc09 	bl	8006b7c <_malloc_r>
 800736a:	4604      	mov	r4, r0
 800736c:	b140      	cbz	r0, 8007380 <__sfmoreglue+0x28>
 800736e:	2100      	movs	r1, #0
 8007370:	e9c0 1600 	strd	r1, r6, [r0]
 8007374:	300c      	adds	r0, #12
 8007376:	60a0      	str	r0, [r4, #8]
 8007378:	f105 0268 	add.w	r2, r5, #104	; 0x68
 800737c:	f7fd fcf2 	bl	8004d64 <memset>
 8007380:	4620      	mov	r0, r4
 8007382:	bd70      	pop	{r4, r5, r6, pc}

08007384 <__sfp_lock_acquire>:
 8007384:	4801      	ldr	r0, [pc, #4]	; (800738c <__sfp_lock_acquire+0x8>)
 8007386:	f000 b8b3 	b.w	80074f0 <__retarget_lock_acquire_recursive>
 800738a:	bf00      	nop
 800738c:	200012d1 	.word	0x200012d1

08007390 <__sfp_lock_release>:
 8007390:	4801      	ldr	r0, [pc, #4]	; (8007398 <__sfp_lock_release+0x8>)
 8007392:	f000 b8ae 	b.w	80074f2 <__retarget_lock_release_recursive>
 8007396:	bf00      	nop
 8007398:	200012d1 	.word	0x200012d1

0800739c <__sinit_lock_acquire>:
 800739c:	4801      	ldr	r0, [pc, #4]	; (80073a4 <__sinit_lock_acquire+0x8>)
 800739e:	f000 b8a7 	b.w	80074f0 <__retarget_lock_acquire_recursive>
 80073a2:	bf00      	nop
 80073a4:	200012d2 	.word	0x200012d2

080073a8 <__sinit_lock_release>:
 80073a8:	4801      	ldr	r0, [pc, #4]	; (80073b0 <__sinit_lock_release+0x8>)
 80073aa:	f000 b8a2 	b.w	80074f2 <__retarget_lock_release_recursive>
 80073ae:	bf00      	nop
 80073b0:	200012d2 	.word	0x200012d2

080073b4 <__sinit>:
 80073b4:	b510      	push	{r4, lr}
 80073b6:	4604      	mov	r4, r0
 80073b8:	f7ff fff0 	bl	800739c <__sinit_lock_acquire>
 80073bc:	69a3      	ldr	r3, [r4, #24]
 80073be:	b11b      	cbz	r3, 80073c8 <__sinit+0x14>
 80073c0:	e8bd 4010 	ldmia.w	sp!, {r4, lr}
 80073c4:	f7ff bff0 	b.w	80073a8 <__sinit_lock_release>
 80073c8:	e9c4 3312 	strd	r3, r3, [r4, #72]	; 0x48
 80073cc:	6523      	str	r3, [r4, #80]	; 0x50
 80073ce:	4b13      	ldr	r3, [pc, #76]	; (800741c <__sinit+0x68>)
 80073d0:	4a13      	ldr	r2, [pc, #76]	; (8007420 <__sinit+0x6c>)
 80073d2:	681b      	ldr	r3, [r3, #0]
 80073d4:	62a2      	str	r2, [r4, #40]	; 0x28
 80073d6:	42a3      	cmp	r3, r4
 80073d8:	bf04      	itt	eq
 80073da:	2301      	moveq	r3, #1
 80073dc:	61a3      	streq	r3, [r4, #24]
 80073de:	4620      	mov	r0, r4
 80073e0:	f000 f820 	bl	8007424 <__sfp>
 80073e4:	6060      	str	r0, [r4, #4]
 80073e6:	4620      	mov	r0, r4
 80073e8:	f000 f81c 	bl	8007424 <__sfp>
 80073ec:	60a0      	str	r0, [r4, #8]
 80073ee:	4620      	mov	r0, r4
 80073f0:	f000 f818 	bl	8007424 <__sfp>
 80073f4:	2200      	movs	r2, #0
 80073f6:	60e0      	str	r0, [r4, #12]
 80073f8:	2104      	movs	r1, #4
 80073fa:	6860      	ldr	r0, [r4, #4]
 80073fc:	f7ff ff82 	bl	8007304 <std>
 8007400:	68a0      	ldr	r0, [r4, #8]
 8007402:	2201      	movs	r2, #1
 8007404:	2109      	movs	r1, #9
 8007406:	f7ff ff7d 	bl	8007304 <std>
 800740a:	68e0      	ldr	r0, [r4, #12]
 800740c:	2202      	movs	r2, #2
 800740e:	2112      	movs	r1, #18
 8007410:	f7ff ff78 	bl	8007304 <std>
 8007414:	2301      	movs	r3, #1
 8007416:	61a3      	str	r3, [r4, #24]
 8007418:	e7d2      	b.n	80073c0 <__sinit+0xc>
 800741a:	bf00      	nop
 800741c:	08008630 	.word	0x08008630
 8007420:	0800734d 	.word	0x0800734d

08007424 <__sfp>:
 8007424:	b5f8      	push	{r3, r4, r5, r6, r7, lr}
 8007426:	4607      	mov	r7, r0
 8007428:	f7ff ffac 	bl	8007384 <__sfp_lock_acquire>
 800742c:	4b1e      	ldr	r3, [pc, #120]	; (80074a8 <__sfp+0x84>)
 800742e:	681e      	ldr	r6, [r3, #0]
 8007430:	69b3      	ldr	r3, [r6, #24]
 8007432:	b913      	cbnz	r3, 800743a <__sfp+0x16>
 8007434:	4630      	mov	r0, r6
 8007436:	f7ff ffbd 	bl	80073b4 <__sinit>
 800743a:	3648      	adds	r6, #72	; 0x48
 800743c:	e9d6 3401 	ldrd	r3, r4, [r6, #4]
 8007440:	3b01      	subs	r3, #1
 8007442:	d503      	bpl.n	800744c <__sfp+0x28>
 8007444:	6833      	ldr	r3, [r6, #0]
 8007446:	b30b      	cbz	r3, 800748c <__sfp+0x68>
 8007448:	6836      	ldr	r6, [r6, #0]
 800744a:	e7f7      	b.n	800743c <__sfp+0x18>
 800744c:	f9b4 500c 	ldrsh.w	r5, [r4, #12]
 8007450:	b9d5      	cbnz	r5, 8007488 <__sfp+0x64>
 8007452:	4b16      	ldr	r3, [pc, #88]	; (80074ac <__sfp+0x88>)
 8007454:	60e3      	str	r3, [r4, #12]
 8007456:	f104 0058 	add.w	r0, r4, #88	; 0x58
 800745a:	6665      	str	r5, [r4, #100]	; 0x64
 800745c:	f000 f847 	bl	80074ee <__retarget_lock_init_recursive>
 8007460:	f7ff ff96 	bl	8007390 <__sfp_lock_release>
 8007464:	e9c4 5501 	strd	r5, r5, [r4, #4]
 8007468:	e9c4 5504 	strd	r5, r5, [r4, #16]
 800746c:	6025      	str	r5, [r4, #0]
 800746e:	61a5      	str	r5, [r4, #24]
 8007470:	2208      	movs	r2, #8
 8007472:	4629      	mov	r1, r5
 8007474:	f104 005c 	add.w	r0, r4, #92	; 0x5c
 8007478:	f7fd fc74 	bl	8004d64 <memset>
 800747c:	e9c4 550d 	strd	r5, r5, [r4, #52]	; 0x34
 8007480:	e9c4 5512 	strd	r5, r5, [r4, #72]	; 0x48
 8007484:	4620      	mov	r0, r4
 8007486:	bdf8      	pop	{r3, r4, r5, r6, r7, pc}
 8007488:	3468      	adds	r4, #104	; 0x68
 800748a:	e7d9      	b.n	8007440 <__sfp+0x1c>
 800748c:	2104      	movs	r1, #4
 800748e:	4638      	mov	r0, r7
 8007490:	f7ff ff62 	bl	8007358 <__sfmoreglue>
 8007494:	4604      	mov	r4, r0
 8007496:	6030      	str	r0, [r6, #0]
 8007498:	2800      	cmp	r0, #0
 800749a:	d1d5      	bne.n	8007448 <__sfp+0x24>
 800749c:	f7ff ff78 	bl	8007390 <__sfp_lock_release>
 80074a0:	230c      	movs	r3, #12
 80074a2:	603b      	str	r3, [r7, #0]
 80074a4:	e7ee      	b.n	8007484 <__sfp+0x60>
 80074a6:	bf00      	nop
 80074a8:	08008630 	.word	0x08008630
 80074ac:	ffff0001 	.word	0xffff0001

080074b0 <_fwalk_reent>:
 80074b0:	e92d 43f8 	stmdb	sp!, {r3, r4, r5, r6, r7, r8, r9, lr}
 80074b4:	4606      	mov	r6, r0
 80074b6:	4688      	mov	r8, r1
 80074b8:	f100 0448 	add.w	r4, r0, #72	; 0x48
 80074bc:	2700      	movs	r7, #0
 80074be:	e9d4 9501 	ldrd	r9, r5, [r4, #4]
 80074c2:	f1b9 0901 	subs.w	r9, r9, #1
 80074c6:	d505      	bpl.n	80074d4 <_fwalk_reent+0x24>
 80074c8:	6824      	ldr	r4, [r4, #0]
 80074ca:	2c00      	cmp	r4, #0
 80074cc:	d1f7      	bne.n	80074be <_fwalk_reent+0xe>
 80074ce:	4638      	mov	r0, r7
 80074d0:	e8bd 83f8 	ldmia.w	sp!, {r3, r4, r5, r6, r7, r8, r9, pc}
 80074d4:	89ab      	ldrh	r3, [r5, #12]
 80074d6:	2b01      	cmp	r3, #1
 80074d8:	d907      	bls.n	80074ea <_fwalk_reent+0x3a>
 80074da:	f9b5 300e 	ldrsh.w	r3, [r5, #14]
 80074de:	3301      	adds	r3, #1
 80074e0:	d003      	beq.n	80074ea <_fwalk_reent+0x3a>
 80074e2:	4629      	mov	r1, r5
 80074e4:	4630      	mov	r0, r6
 80074e6:	47c0      	blx	r8
 80074e8:	4307      	orrs	r7, r0
 80074ea:	3568      	adds	r5, #104	; 0x68
 80074ec:	e7e9      	b.n	80074c2 <_fwalk_reent+0x12>

080074ee <__retarget_lock_init_recursive>:
 80074ee:	4770      	bx	lr

080074f0 <__retarget_lock_acquire_recursive>:
 80074f0:	4770      	bx	lr

080074f2 <__retarget_lock_release_recursive>:
 80074f2:	4770      	bx	lr

080074f4 <__swhatbuf_r>:
 80074f4:	b570      	push	{r4, r5, r6, lr}
 80074f6:	460e      	mov	r6, r1
 80074f8:	f9b1 100e 	ldrsh.w	r1, [r1, #14]
 80074fc:	2900      	cmp	r1, #0
 80074fe:	b096      	sub	sp, #88	; 0x58
 8007500:	4614      	mov	r4, r2
 8007502:	461d      	mov	r5, r3
 8007504:	da08      	bge.n	8007518 <__swhatbuf_r+0x24>
 8007506:	f9b6 300c 	ldrsh.w	r3, [r6, #12]
 800750a:	2200      	movs	r2, #0
 800750c:	602a      	str	r2, [r5, #0]
 800750e:	061a      	lsls	r2, r3, #24
 8007510:	d410      	bmi.n	8007534 <__swhatbuf_r+0x40>
 8007512:	f44f 6380 	mov.w	r3, #1024	; 0x400
 8007516:	e00e      	b.n	8007536 <__swhatbuf_r+0x42>
 8007518:	466a      	mov	r2, sp
 800751a:	f000 f8fb 	bl	8007714 <_fstat_r>
 800751e:	2800      	cmp	r0, #0
 8007520:	dbf1      	blt.n	8007506 <__swhatbuf_r+0x12>
 8007522:	9a01      	ldr	r2, [sp, #4]
 8007524:	f402 4270 	and.w	r2, r2, #61440	; 0xf000
 8007528:	f5a2 5300 	sub.w	r3, r2, #8192	; 0x2000
 800752c:	425a      	negs	r2, r3
 800752e:	415a      	adcs	r2, r3
 8007530:	602a      	str	r2, [r5, #0]
 8007532:	e7ee      	b.n	8007512 <__swhatbuf_r+0x1e>
 8007534:	2340      	movs	r3, #64	; 0x40
 8007536:	2000      	movs	r0, #0
 8007538:	6023      	str	r3, [r4, #0]
 800753a:	b016      	add	sp, #88	; 0x58
 800753c:	bd70      	pop	{r4, r5, r6, pc}
	...

08007540 <__smakebuf_r>:
 8007540:	898b      	ldrh	r3, [r1, #12]
 8007542:	b573      	push	{r0, r1, r4, r5, r6, lr}
 8007544:	079d      	lsls	r5, r3, #30
 8007546:	4606      	mov	r6, r0
 8007548:	460c      	mov	r4, r1
 800754a:	d507      	bpl.n	800755c <__smakebuf_r+0x1c>
 800754c:	f104 0347 	add.w	r3, r4, #71	; 0x47
 8007550:	6023      	str	r3, [r4, #0]
 8007552:	6123      	str	r3, [r4, #16]
 8007554:	2301      	movs	r3, #1
 8007556:	6163      	str	r3, [r4, #20]
 8007558:	b002      	add	sp, #8
 800755a:	bd70      	pop	{r4, r5, r6, pc}
 800755c:	ab01      	add	r3, sp, #4
 800755e:	466a      	mov	r2, sp
 8007560:	f7ff ffc8 	bl	80074f4 <__swhatbuf_r>
 8007564:	9900      	ldr	r1, [sp, #0]
 8007566:	4605      	mov	r5, r0
 8007568:	4630      	mov	r0, r6
 800756a:	f7ff fb07 	bl	8006b7c <_malloc_r>
 800756e:	b948      	cbnz	r0, 8007584 <__smakebuf_r+0x44>
 8007570:	f9b4 300c 	ldrsh.w	r3, [r4, #12]
 8007574:	059a      	lsls	r2, r3, #22
 8007576:	d4ef      	bmi.n	8007558 <__smakebuf_r+0x18>
 8007578:	f023 0303 	bic.w	r3, r3, #3
 800757c:	f043 0302 	orr.w	r3, r3, #2
 8007580:	81a3      	strh	r3, [r4, #12]
 8007582:	e7e3      	b.n	800754c <__smakebuf_r+0xc>
 8007584:	4b0d      	ldr	r3, [pc, #52]	; (80075bc <__smakebuf_r+0x7c>)
 8007586:	62b3      	str	r3, [r6, #40]	; 0x28
 8007588:	89a3      	ldrh	r3, [r4, #12]
 800758a:	6020      	str	r0, [r4, #0]
 800758c:	f043 0380 	orr.w	r3, r3, #128	; 0x80
 8007590:	81a3      	strh	r3, [r4, #12]
 8007592:	9b00      	ldr	r3, [sp, #0]
 8007594:	6163      	str	r3, [r4, #20]
 8007596:	9b01      	ldr	r3, [sp, #4]
 8007598:	6120      	str	r0, [r4, #16]
 800759a:	b15b      	cbz	r3, 80075b4 <__smakebuf_r+0x74>
 800759c:	f9b4 100e 	ldrsh.w	r1, [r4, #14]
 80075a0:	4630      	mov	r0, r6
 80075a2:	f000 f8c9 	bl	8007738 <_isatty_r>
 80075a6:	b128      	cbz	r0, 80075b4 <__smakebuf_r+0x74>
 80075a8:	89a3      	ldrh	r3, [r4, #12]
 80075aa:	f023 0303 	bic.w	r3, r3, #3
 80075ae:	f043 0301 	orr.w	r3, r3, #1
 80075b2:	81a3      	strh	r3, [r4, #12]
 80075b4:	89a0      	ldrh	r0, [r4, #12]
 80075b6:	4305      	orrs	r5, r0
 80075b8:	81a5      	strh	r5, [r4, #12]
 80075ba:	e7cd      	b.n	8007558 <__smakebuf_r+0x18>
 80075bc:	0800734d 	.word	0x0800734d

080075c0 <_raise_r>:
 80075c0:	291f      	cmp	r1, #31
 80075c2:	b538      	push	{r3, r4, r5, lr}
 80075c4:	4604      	mov	r4, r0
 80075c6:	460d      	mov	r5, r1
 80075c8:	d904      	bls.n	80075d4 <_raise_r+0x14>
 80075ca:	2316      	movs	r3, #22
 80075cc:	6003      	str	r3, [r0, #0]
 80075ce:	f04f 30ff 	mov.w	r0, #4294967295
 80075d2:	bd38      	pop	{r3, r4, r5, pc}
 80075d4:	6c42      	ldr	r2, [r0, #68]	; 0x44
 80075d6:	b112      	cbz	r2, 80075de <_raise_r+0x1e>
 80075d8:	f852 3021 	ldr.w	r3, [r2, r1, lsl #2]
 80075dc:	b94b      	cbnz	r3, 80075f2 <_raise_r+0x32>
 80075de:	4620      	mov	r0, r4
 80075e0:	f000 f830 	bl	8007644 <_getpid_r>
 80075e4:	462a      	mov	r2, r5
 80075e6:	4601      	mov	r1, r0
 80075e8:	4620      	mov	r0, r4
 80075ea:	e8bd 4038 	ldmia.w	sp!, {r3, r4, r5, lr}
 80075ee:	f000 b817 	b.w	8007620 <_kill_r>
 80075f2:	2b01      	cmp	r3, #1
 80075f4:	d00a      	beq.n	800760c <_raise_r+0x4c>
 80075f6:	1c59      	adds	r1, r3, #1
 80075f8:	d103      	bne.n	8007602 <_raise_r+0x42>
 80075fa:	2316      	movs	r3, #22
 80075fc:	6003      	str	r3, [r0, #0]
 80075fe:	2001      	movs	r0, #1
 8007600:	e7e7      	b.n	80075d2 <_raise_r+0x12>
 8007602:	2400      	movs	r4, #0
 8007604:	f842 4025 	str.w	r4, [r2, r5, lsl #2]
 8007608:	4628      	mov	r0, r5
 800760a:	4798      	blx	r3
 800760c:	2000      	movs	r0, #0
 800760e:	e7e0      	b.n	80075d2 <_raise_r+0x12>

08007610 <raise>:
 8007610:	4b02      	ldr	r3, [pc, #8]	; (800761c <raise+0xc>)
 8007612:	4601      	mov	r1, r0
 8007614:	6818      	ldr	r0, [r3, #0]
 8007616:	f7ff bfd3 	b.w	80075c0 <_raise_r>
 800761a:	bf00      	nop
 800761c:	2000104c 	.word	0x2000104c

08007620 <_kill_r>:
 8007620:	b538      	push	{r3, r4, r5, lr}
 8007622:	4d07      	ldr	r5, [pc, #28]	; (8007640 <_kill_r+0x20>)
 8007624:	2300      	movs	r3, #0
 8007626:	4604      	mov	r4, r0
 8007628:	4608      	mov	r0, r1
 800762a:	4611      	mov	r1, r2
 800762c:	602b      	str	r3, [r5, #0]
 800762e:	f7fd fa91 	bl	8004b54 <_kill>
 8007632:	1c43      	adds	r3, r0, #1
 8007634:	d102      	bne.n	800763c <_kill_r+0x1c>
 8007636:	682b      	ldr	r3, [r5, #0]
 8007638:	b103      	cbz	r3, 800763c <_kill_r+0x1c>
 800763a:	6023      	str	r3, [r4, #0]
 800763c:	bd38      	pop	{r3, r4, r5, pc}
 800763e:	bf00      	nop
 8007640:	200012cc 	.word	0x200012cc

08007644 <_getpid_r>:
 8007644:	f7fd ba7e 	b.w	8004b44 <_getpid>

08007648 <__sread>:
 8007648:	b510      	push	{r4, lr}
 800764a:	460c      	mov	r4, r1
 800764c:	f9b1 100e 	ldrsh.w	r1, [r1, #14]
 8007650:	f000 f894 	bl	800777c <_read_r>
 8007654:	2800      	cmp	r0, #0
 8007656:	bfab      	itete	ge
 8007658:	6d63      	ldrge	r3, [r4, #84]	; 0x54
 800765a:	89a3      	ldrhlt	r3, [r4, #12]
 800765c:	181b      	addge	r3, r3, r0
 800765e:	f423 5380 	biclt.w	r3, r3, #4096	; 0x1000
 8007662:	bfac      	ite	ge
 8007664:	6563      	strge	r3, [r4, #84]	; 0x54
 8007666:	81a3      	strhlt	r3, [r4, #12]
 8007668:	bd10      	pop	{r4, pc}

0800766a <__swrite>:
 800766a:	e92d 41f0 	stmdb	sp!, {r4, r5, r6, r7, r8, lr}
 800766e:	461f      	mov	r7, r3
 8007670:	898b      	ldrh	r3, [r1, #12]
 8007672:	05db      	lsls	r3, r3, #23
 8007674:	4605      	mov	r5, r0
 8007676:	460c      	mov	r4, r1
 8007678:	4616      	mov	r6, r2
 800767a:	d505      	bpl.n	8007688 <__swrite+0x1e>
 800767c:	f9b1 100e 	ldrsh.w	r1, [r1, #14]
 8007680:	2302      	movs	r3, #2
 8007682:	2200      	movs	r2, #0
 8007684:	f000 f868 	bl	8007758 <_lseek_r>
 8007688:	89a3      	ldrh	r3, [r4, #12]
 800768a:	f9b4 100e 	ldrsh.w	r1, [r4, #14]
 800768e:	f423 5380 	bic.w	r3, r3, #4096	; 0x1000
 8007692:	81a3      	strh	r3, [r4, #12]
 8007694:	4632      	mov	r2, r6
 8007696:	463b      	mov	r3, r7
 8007698:	4628      	mov	r0, r5
 800769a:	e8bd 41f0 	ldmia.w	sp!, {r4, r5, r6, r7, r8, lr}
 800769e:	f000 b817 	b.w	80076d0 <_write_r>

080076a2 <__sseek>:
 80076a2:	b510      	push	{r4, lr}
 80076a4:	460c      	mov	r4, r1
 80076a6:	f9b1 100e 	ldrsh.w	r1, [r1, #14]
 80076aa:	f000 f855 	bl	8007758 <_lseek_r>
 80076ae:	1c43      	adds	r3, r0, #1
 80076b0:	89a3      	ldrh	r3, [r4, #12]
 80076b2:	bf15      	itete	ne
 80076b4:	6560      	strne	r0, [r4, #84]	; 0x54
 80076b6:	f423 5380 	biceq.w	r3, r3, #4096	; 0x1000
 80076ba:	f443 5380 	orrne.w	r3, r3, #4096	; 0x1000
 80076be:	81a3      	strheq	r3, [r4, #12]
 80076c0:	bf18      	it	ne
 80076c2:	81a3      	strhne	r3, [r4, #12]
 80076c4:	bd10      	pop	{r4, pc}

080076c6 <__sclose>:
 80076c6:	f9b1 100e 	ldrsh.w	r1, [r1, #14]
 80076ca:	f000 b813 	b.w	80076f4 <_close_r>
	...

080076d0 <_write_r>:
 80076d0:	b538      	push	{r3, r4, r5, lr}
 80076d2:	4d07      	ldr	r5, [pc, #28]	; (80076f0 <_write_r+0x20>)
 80076d4:	4604      	mov	r4, r0
 80076d6:	4608      	mov	r0, r1
 80076d8:	4611      	mov	r1, r2
 80076da:	2200      	movs	r2, #0
 80076dc:	602a      	str	r2, [r5, #0]
 80076de:	461a      	mov	r2, r3
 80076e0:	f7fd f93e 	bl	8004960 <_write>
 80076e4:	1c43      	adds	r3, r0, #1
 80076e6:	d102      	bne.n	80076ee <_write_r+0x1e>
 80076e8:	682b      	ldr	r3, [r5, #0]
 80076ea:	b103      	cbz	r3, 80076ee <_write_r+0x1e>
 80076ec:	6023      	str	r3, [r4, #0]
 80076ee:	bd38      	pop	{r3, r4, r5, pc}
 80076f0:	200012cc 	.word	0x200012cc

080076f4 <_close_r>:
 80076f4:	b538      	push	{r3, r4, r5, lr}
 80076f6:	4d06      	ldr	r5, [pc, #24]	; (8007710 <_close_r+0x1c>)
 80076f8:	2300      	movs	r3, #0
 80076fa:	4604      	mov	r4, r0
 80076fc:	4608      	mov	r0, r1
 80076fe:	602b      	str	r3, [r5, #0]
 8007700:	f7fd fa5f 	bl	8004bc2 <_close>
 8007704:	1c43      	adds	r3, r0, #1
 8007706:	d102      	bne.n	800770e <_close_r+0x1a>
 8007708:	682b      	ldr	r3, [r5, #0]
 800770a:	b103      	cbz	r3, 800770e <_close_r+0x1a>
 800770c:	6023      	str	r3, [r4, #0]
 800770e:	bd38      	pop	{r3, r4, r5, pc}
 8007710:	200012cc 	.word	0x200012cc

08007714 <_fstat_r>:
 8007714:	b538      	push	{r3, r4, r5, lr}
 8007716:	4d07      	ldr	r5, [pc, #28]	; (8007734 <_fstat_r+0x20>)
 8007718:	2300      	movs	r3, #0
 800771a:	4604      	mov	r4, r0
 800771c:	4608      	mov	r0, r1
 800771e:	4611      	mov	r1, r2
 8007720:	602b      	str	r3, [r5, #0]
 8007722:	f7fd fa5a 	bl	8004bda <_fstat>
 8007726:	1c43      	adds	r3, r0, #1
 8007728:	d102      	bne.n	8007730 <_fstat_r+0x1c>
 800772a:	682b      	ldr	r3, [r5, #0]
 800772c:	b103      	cbz	r3, 8007730 <_fstat_r+0x1c>
 800772e:	6023      	str	r3, [r4, #0]
 8007730:	bd38      	pop	{r3, r4, r5, pc}
 8007732:	bf00      	nop
 8007734:	200012cc 	.word	0x200012cc

08007738 <_isatty_r>:
 8007738:	b538      	push	{r3, r4, r5, lr}
 800773a:	4d06      	ldr	r5, [pc, #24]	; (8007754 <_isatty_r+0x1c>)
 800773c:	2300      	movs	r3, #0
 800773e:	4604      	mov	r4, r0
 8007740:	4608      	mov	r0, r1
 8007742:	602b      	str	r3, [r5, #0]
 8007744:	f7fd fa59 	bl	8004bfa <_isatty>
 8007748:	1c43      	adds	r3, r0, #1
 800774a:	d102      	bne.n	8007752 <_isatty_r+0x1a>
 800774c:	682b      	ldr	r3, [r5, #0]
 800774e:	b103      	cbz	r3, 8007752 <_isatty_r+0x1a>
 8007750:	6023      	str	r3, [r4, #0]
 8007752:	bd38      	pop	{r3, r4, r5, pc}
 8007754:	200012cc 	.word	0x200012cc

08007758 <_lseek_r>:
 8007758:	b538      	push	{r3, r4, r5, lr}
 800775a:	4d07      	ldr	r5, [pc, #28]	; (8007778 <_lseek_r+0x20>)
 800775c:	4604      	mov	r4, r0
 800775e:	4608      	mov	r0, r1
 8007760:	4611      	mov	r1, r2
 8007762:	2200      	movs	r2, #0
 8007764:	602a      	str	r2, [r5, #0]
 8007766:	461a      	mov	r2, r3
 8007768:	f7fd fa52 	bl	8004c10 <_lseek>
 800776c:	1c43      	adds	r3, r0, #1
 800776e:	d102      	bne.n	8007776 <_lseek_r+0x1e>
 8007770:	682b      	ldr	r3, [r5, #0]
 8007772:	b103      	cbz	r3, 8007776 <_lseek_r+0x1e>
 8007774:	6023      	str	r3, [r4, #0]
 8007776:	bd38      	pop	{r3, r4, r5, pc}
 8007778:	200012cc 	.word	0x200012cc

0800777c <_read_r>:
 800777c:	b538      	push	{r3, r4, r5, lr}
 800777e:	4d07      	ldr	r5, [pc, #28]	; (800779c <_read_r+0x20>)
 8007780:	4604      	mov	r4, r0
 8007782:	4608      	mov	r0, r1
 8007784:	4611      	mov	r1, r2
 8007786:	2200      	movs	r2, #0
 8007788:	602a      	str	r2, [r5, #0]
 800778a:	461a      	mov	r2, r3
 800778c:	f7fd f9fc 	bl	8004b88 <_read>
 8007790:	1c43      	adds	r3, r0, #1
 8007792:	d102      	bne.n	800779a <_read_r+0x1e>
 8007794:	682b      	ldr	r3, [r5, #0]
 8007796:	b103      	cbz	r3, 800779a <_read_r+0x1e>
 8007798:	6023      	str	r3, [r4, #0]
 800779a:	bd38      	pop	{r3, r4, r5, pc}
 800779c:	200012cc 	.word	0x200012cc

080077a0 <pow>:
 80077a0:	b5f8      	push	{r3, r4, r5, r6, r7, lr}
 80077a2:	ed2d 8b02 	vpush	{d8}
 80077a6:	eeb0 8a40 	vmov.f32	s16, s0
 80077aa:	eef0 8a60 	vmov.f32	s17, s1
 80077ae:	ec55 4b11 	vmov	r4, r5, d1
 80077b2:	f000 f865 	bl	8007880 <__ieee754_pow>
 80077b6:	4622      	mov	r2, r4
 80077b8:	462b      	mov	r3, r5
 80077ba:	4620      	mov	r0, r4
 80077bc:	4629      	mov	r1, r5
 80077be:	ec57 6b10 	vmov	r6, r7, d0
 80077c2:	f7f9 f9cb 	bl	8000b5c <__aeabi_dcmpun>
 80077c6:	2800      	cmp	r0, #0
 80077c8:	d13b      	bne.n	8007842 <pow+0xa2>
 80077ca:	ec51 0b18 	vmov	r0, r1, d8
 80077ce:	2200      	movs	r2, #0
 80077d0:	2300      	movs	r3, #0
 80077d2:	f7f9 f991 	bl	8000af8 <__aeabi_dcmpeq>
 80077d6:	b1b8      	cbz	r0, 8007808 <pow+0x68>
 80077d8:	2200      	movs	r2, #0
 80077da:	2300      	movs	r3, #0
 80077dc:	4620      	mov	r0, r4
 80077de:	4629      	mov	r1, r5
 80077e0:	f7f9 f98a 	bl	8000af8 <__aeabi_dcmpeq>
 80077e4:	2800      	cmp	r0, #0
 80077e6:	d146      	bne.n	8007876 <pow+0xd6>
 80077e8:	ec45 4b10 	vmov	d0, r4, r5
 80077ec:	f000 fe61 	bl	80084b2 <finite>
 80077f0:	b338      	cbz	r0, 8007842 <pow+0xa2>
 80077f2:	2200      	movs	r2, #0
 80077f4:	2300      	movs	r3, #0
 80077f6:	4620      	mov	r0, r4
 80077f8:	4629      	mov	r1, r5
 80077fa:	f7f9 f987 	bl	8000b0c <__aeabi_dcmplt>
 80077fe:	b300      	cbz	r0, 8007842 <pow+0xa2>
 8007800:	f7fd fa86 	bl	8004d10 <__errno>
 8007804:	2322      	movs	r3, #34	; 0x22
 8007806:	e01b      	b.n	8007840 <pow+0xa0>
 8007808:	ec47 6b10 	vmov	d0, r6, r7
 800780c:	f000 fe51 	bl	80084b2 <finite>
 8007810:	b9e0      	cbnz	r0, 800784c <pow+0xac>
 8007812:	eeb0 0a48 	vmov.f32	s0, s16
 8007816:	eef0 0a68 	vmov.f32	s1, s17
 800781a:	f000 fe4a 	bl	80084b2 <finite>
 800781e:	b1a8      	cbz	r0, 800784c <pow+0xac>
 8007820:	ec45 4b10 	vmov	d0, r4, r5
 8007824:	f000 fe45 	bl	80084b2 <finite>
 8007828:	b180      	cbz	r0, 800784c <pow+0xac>
 800782a:	4632      	mov	r2, r6
 800782c:	463b      	mov	r3, r7
 800782e:	4630      	mov	r0, r6
 8007830:	4639      	mov	r1, r7
 8007832:	f7f9 f993 	bl	8000b5c <__aeabi_dcmpun>
 8007836:	2800      	cmp	r0, #0
 8007838:	d0e2      	beq.n	8007800 <pow+0x60>
 800783a:	f7fd fa69 	bl	8004d10 <__errno>
 800783e:	2321      	movs	r3, #33	; 0x21
 8007840:	6003      	str	r3, [r0, #0]
 8007842:	ecbd 8b02 	vpop	{d8}
 8007846:	ec47 6b10 	vmov	d0, r6, r7
 800784a:	bdf8      	pop	{r3, r4, r5, r6, r7, pc}
 800784c:	2200      	movs	r2, #0
 800784e:	2300      	movs	r3, #0
 8007850:	4630      	mov	r0, r6
 8007852:	4639      	mov	r1, r7
 8007854:	f7f9 f950 	bl	8000af8 <__aeabi_dcmpeq>
 8007858:	2800      	cmp	r0, #0
 800785a:	d0f2      	beq.n	8007842 <pow+0xa2>
 800785c:	eeb0 0a48 	vmov.f32	s0, s16
 8007860:	eef0 0a68 	vmov.f32	s1, s17
 8007864:	f000 fe25 	bl	80084b2 <finite>
 8007868:	2800      	cmp	r0, #0
 800786a:	d0ea      	beq.n	8007842 <pow+0xa2>
 800786c:	ec45 4b10 	vmov	d0, r4, r5
 8007870:	f000 fe1f 	bl	80084b2 <finite>
 8007874:	e7c3      	b.n	80077fe <pow+0x5e>
 8007876:	4f01      	ldr	r7, [pc, #4]	; (800787c <pow+0xdc>)
 8007878:	2600      	movs	r6, #0
 800787a:	e7e2      	b.n	8007842 <pow+0xa2>
 800787c:	3ff00000 	.word	0x3ff00000

08007880 <__ieee754_pow>:
 8007880:	e92d 4ff0 	stmdb	sp!, {r4, r5, r6, r7, r8, r9, sl, fp, lr}
 8007884:	ed2d 8b06 	vpush	{d8-d10}
 8007888:	b089      	sub	sp, #36	; 0x24
 800788a:	ed8d 1b00 	vstr	d1, [sp]
 800788e:	e9dd 2900 	ldrd	r2, r9, [sp]
 8007892:	f029 4800 	bic.w	r8, r9, #2147483648	; 0x80000000
 8007896:	ea58 0102 	orrs.w	r1, r8, r2
 800789a:	ec57 6b10 	vmov	r6, r7, d0
 800789e:	d115      	bne.n	80078cc <__ieee754_pow+0x4c>
 80078a0:	19b3      	adds	r3, r6, r6
 80078a2:	f487 2200 	eor.w	r2, r7, #524288	; 0x80000
 80078a6:	4152      	adcs	r2, r2
 80078a8:	4299      	cmp	r1, r3
 80078aa:	4b89      	ldr	r3, [pc, #548]	; (8007ad0 <__ieee754_pow+0x250>)
 80078ac:	4193      	sbcs	r3, r2
 80078ae:	f080 84d2 	bcs.w	8008256 <__ieee754_pow+0x9d6>
 80078b2:	e9dd 2300 	ldrd	r2, r3, [sp]
 80078b6:	4630      	mov	r0, r6
 80078b8:	4639      	mov	r1, r7
 80078ba:	f7f8 fcff 	bl	80002bc <__adddf3>
 80078be:	ec41 0b10 	vmov	d0, r0, r1
 80078c2:	b009      	add	sp, #36	; 0x24
 80078c4:	ecbd 8b06 	vpop	{d8-d10}
 80078c8:	e8bd 8ff0 	ldmia.w	sp!, {r4, r5, r6, r7, r8, r9, sl, fp, pc}
 80078cc:	4b81      	ldr	r3, [pc, #516]	; (8007ad4 <__ieee754_pow+0x254>)
 80078ce:	f027 4400 	bic.w	r4, r7, #2147483648	; 0x80000000
 80078d2:	429c      	cmp	r4, r3
 80078d4:	ee10 aa10 	vmov	sl, s0
 80078d8:	463d      	mov	r5, r7
 80078da:	dc06      	bgt.n	80078ea <__ieee754_pow+0x6a>
 80078dc:	d101      	bne.n	80078e2 <__ieee754_pow+0x62>
 80078de:	2e00      	cmp	r6, #0
 80078e0:	d1e7      	bne.n	80078b2 <__ieee754_pow+0x32>
 80078e2:	4598      	cmp	r8, r3
 80078e4:	dc01      	bgt.n	80078ea <__ieee754_pow+0x6a>
 80078e6:	d10f      	bne.n	8007908 <__ieee754_pow+0x88>
 80078e8:	b172      	cbz	r2, 8007908 <__ieee754_pow+0x88>
 80078ea:	f105 4540 	add.w	r5, r5, #3221225472	; 0xc0000000
 80078ee:	f505 1580 	add.w	r5, r5, #1048576	; 0x100000
 80078f2:	ea55 050a 	orrs.w	r5, r5, sl
 80078f6:	d1dc      	bne.n	80078b2 <__ieee754_pow+0x32>
 80078f8:	e9dd 3200 	ldrd	r3, r2, [sp]
 80078fc:	18db      	adds	r3, r3, r3
 80078fe:	f482 2200 	eor.w	r2, r2, #524288	; 0x80000
 8007902:	4152      	adcs	r2, r2
 8007904:	429d      	cmp	r5, r3
 8007906:	e7d0      	b.n	80078aa <__ieee754_pow+0x2a>
 8007908:	2d00      	cmp	r5, #0
 800790a:	da3b      	bge.n	8007984 <__ieee754_pow+0x104>
 800790c:	4b72      	ldr	r3, [pc, #456]	; (8007ad8 <__ieee754_pow+0x258>)
 800790e:	4598      	cmp	r8, r3
 8007910:	dc51      	bgt.n	80079b6 <__ieee754_pow+0x136>
 8007912:	f1a3 7354 	sub.w	r3, r3, #55574528	; 0x3500000
 8007916:	4598      	cmp	r8, r3
 8007918:	f340 84ac 	ble.w	8008274 <__ieee754_pow+0x9f4>
 800791c:	ea4f 5328 	mov.w	r3, r8, asr #20
 8007920:	f2a3 33ff 	subw	r3, r3, #1023	; 0x3ff
 8007924:	2b14      	cmp	r3, #20
 8007926:	dd0f      	ble.n	8007948 <__ieee754_pow+0xc8>
 8007928:	f1c3 0334 	rsb	r3, r3, #52	; 0x34
 800792c:	fa22 f103 	lsr.w	r1, r2, r3
 8007930:	fa01 f303 	lsl.w	r3, r1, r3
 8007934:	4293      	cmp	r3, r2
 8007936:	f040 849d 	bne.w	8008274 <__ieee754_pow+0x9f4>
 800793a:	f001 0101 	and.w	r1, r1, #1
 800793e:	f1c1 0302 	rsb	r3, r1, #2
 8007942:	9304      	str	r3, [sp, #16]
 8007944:	b182      	cbz	r2, 8007968 <__ieee754_pow+0xe8>
 8007946:	e05f      	b.n	8007a08 <__ieee754_pow+0x188>
 8007948:	2a00      	cmp	r2, #0
 800794a:	d15b      	bne.n	8007a04 <__ieee754_pow+0x184>
 800794c:	f1c3 0314 	rsb	r3, r3, #20
 8007950:	fa48 f103 	asr.w	r1, r8, r3
 8007954:	fa01 f303 	lsl.w	r3, r1, r3
 8007958:	4543      	cmp	r3, r8
 800795a:	f040 8488 	bne.w	800826e <__ieee754_pow+0x9ee>
 800795e:	f001 0101 	and.w	r1, r1, #1
 8007962:	f1c1 0302 	rsb	r3, r1, #2
 8007966:	9304      	str	r3, [sp, #16]
 8007968:	4b5c      	ldr	r3, [pc, #368]	; (8007adc <__ieee754_pow+0x25c>)
 800796a:	4598      	cmp	r8, r3
 800796c:	d132      	bne.n	80079d4 <__ieee754_pow+0x154>
 800796e:	f1b9 0f00 	cmp.w	r9, #0
 8007972:	f280 8478 	bge.w	8008266 <__ieee754_pow+0x9e6>
 8007976:	4959      	ldr	r1, [pc, #356]	; (8007adc <__ieee754_pow+0x25c>)
 8007978:	4632      	mov	r2, r6
 800797a:	463b      	mov	r3, r7
 800797c:	2000      	movs	r0, #0
 800797e:	f7f8 ff7d 	bl	800087c <__aeabi_ddiv>
 8007982:	e79c      	b.n	80078be <__ieee754_pow+0x3e>
 8007984:	2300      	movs	r3, #0
 8007986:	9304      	str	r3, [sp, #16]
 8007988:	2a00      	cmp	r2, #0
 800798a:	d13d      	bne.n	8007a08 <__ieee754_pow+0x188>
 800798c:	4b51      	ldr	r3, [pc, #324]	; (8007ad4 <__ieee754_pow+0x254>)
 800798e:	4598      	cmp	r8, r3
 8007990:	d1ea      	bne.n	8007968 <__ieee754_pow+0xe8>
 8007992:	f104 4340 	add.w	r3, r4, #3221225472	; 0xc0000000
 8007996:	f503 1380 	add.w	r3, r3, #1048576	; 0x100000
 800799a:	ea53 030a 	orrs.w	r3, r3, sl
 800799e:	f000 845a 	beq.w	8008256 <__ieee754_pow+0x9d6>
 80079a2:	4b4f      	ldr	r3, [pc, #316]	; (8007ae0 <__ieee754_pow+0x260>)
 80079a4:	429c      	cmp	r4, r3
 80079a6:	dd08      	ble.n	80079ba <__ieee754_pow+0x13a>
 80079a8:	f1b9 0f00 	cmp.w	r9, #0
 80079ac:	f2c0 8457 	blt.w	800825e <__ieee754_pow+0x9de>
 80079b0:	e9dd 0100 	ldrd	r0, r1, [sp]
 80079b4:	e783      	b.n	80078be <__ieee754_pow+0x3e>
 80079b6:	2302      	movs	r3, #2
 80079b8:	e7e5      	b.n	8007986 <__ieee754_pow+0x106>
 80079ba:	f1b9 0f00 	cmp.w	r9, #0
 80079be:	f04f 0000 	mov.w	r0, #0
 80079c2:	f04f 0100 	mov.w	r1, #0
 80079c6:	f6bf af7a 	bge.w	80078be <__ieee754_pow+0x3e>
 80079ca:	e9dd 0300 	ldrd	r0, r3, [sp]
 80079ce:	f103 4100 	add.w	r1, r3, #2147483648	; 0x80000000
 80079d2:	e774      	b.n	80078be <__ieee754_pow+0x3e>
 80079d4:	f1b9 4f80 	cmp.w	r9, #1073741824	; 0x40000000
 80079d8:	d106      	bne.n	80079e8 <__ieee754_pow+0x168>
 80079da:	4632      	mov	r2, r6
 80079dc:	463b      	mov	r3, r7
 80079de:	4630      	mov	r0, r6
 80079e0:	4639      	mov	r1, r7
 80079e2:	f7f8 fe21 	bl	8000628 <__aeabi_dmul>
 80079e6:	e76a      	b.n	80078be <__ieee754_pow+0x3e>
 80079e8:	4b3e      	ldr	r3, [pc, #248]	; (8007ae4 <__ieee754_pow+0x264>)
 80079ea:	4599      	cmp	r9, r3
 80079ec:	d10c      	bne.n	8007a08 <__ieee754_pow+0x188>
 80079ee:	2d00      	cmp	r5, #0
 80079f0:	db0a      	blt.n	8007a08 <__ieee754_pow+0x188>
 80079f2:	ec47 6b10 	vmov	d0, r6, r7
 80079f6:	b009      	add	sp, #36	; 0x24
 80079f8:	ecbd 8b06 	vpop	{d8-d10}
 80079fc:	e8bd 4ff0 	ldmia.w	sp!, {r4, r5, r6, r7, r8, r9, sl, fp, lr}
 8007a00:	f000 bc6c 	b.w	80082dc <__ieee754_sqrt>
 8007a04:	2300      	movs	r3, #0
 8007a06:	9304      	str	r3, [sp, #16]
 8007a08:	ec47 6b10 	vmov	d0, r6, r7
 8007a0c:	f000 fd48 	bl	80084a0 <fabs>
 8007a10:	ec51 0b10 	vmov	r0, r1, d0
 8007a14:	f1ba 0f00 	cmp.w	sl, #0
 8007a18:	d129      	bne.n	8007a6e <__ieee754_pow+0x1ee>
 8007a1a:	b124      	cbz	r4, 8007a26 <__ieee754_pow+0x1a6>
 8007a1c:	4b2f      	ldr	r3, [pc, #188]	; (8007adc <__ieee754_pow+0x25c>)
 8007a1e:	f025 4240 	bic.w	r2, r5, #3221225472	; 0xc0000000
 8007a22:	429a      	cmp	r2, r3
 8007a24:	d123      	bne.n	8007a6e <__ieee754_pow+0x1ee>
 8007a26:	f1b9 0f00 	cmp.w	r9, #0
 8007a2a:	da05      	bge.n	8007a38 <__ieee754_pow+0x1b8>
 8007a2c:	4602      	mov	r2, r0
 8007a2e:	460b      	mov	r3, r1
 8007a30:	2000      	movs	r0, #0
 8007a32:	492a      	ldr	r1, [pc, #168]	; (8007adc <__ieee754_pow+0x25c>)
 8007a34:	f7f8 ff22 	bl	800087c <__aeabi_ddiv>
 8007a38:	2d00      	cmp	r5, #0
 8007a3a:	f6bf af40 	bge.w	80078be <__ieee754_pow+0x3e>
 8007a3e:	9b04      	ldr	r3, [sp, #16]
 8007a40:	f104 4440 	add.w	r4, r4, #3221225472	; 0xc0000000
 8007a44:	f504 1480 	add.w	r4, r4, #1048576	; 0x100000
 8007a48:	4323      	orrs	r3, r4
 8007a4a:	d108      	bne.n	8007a5e <__ieee754_pow+0x1de>
 8007a4c:	4602      	mov	r2, r0
 8007a4e:	460b      	mov	r3, r1
 8007a50:	4610      	mov	r0, r2
 8007a52:	4619      	mov	r1, r3
 8007a54:	f7f8 fc30 	bl	80002b8 <__aeabi_dsub>
 8007a58:	4602      	mov	r2, r0
 8007a5a:	460b      	mov	r3, r1
 8007a5c:	e78f      	b.n	800797e <__ieee754_pow+0xfe>
 8007a5e:	9b04      	ldr	r3, [sp, #16]
 8007a60:	2b01      	cmp	r3, #1
 8007a62:	f47f af2c 	bne.w	80078be <__ieee754_pow+0x3e>
 8007a66:	f101 4300 	add.w	r3, r1, #2147483648	; 0x80000000
 8007a6a:	4619      	mov	r1, r3
 8007a6c:	e727      	b.n	80078be <__ieee754_pow+0x3e>
 8007a6e:	0feb      	lsrs	r3, r5, #31
 8007a70:	3b01      	subs	r3, #1
 8007a72:	9306      	str	r3, [sp, #24]
 8007a74:	9a06      	ldr	r2, [sp, #24]
 8007a76:	9b04      	ldr	r3, [sp, #16]
 8007a78:	4313      	orrs	r3, r2
 8007a7a:	d102      	bne.n	8007a82 <__ieee754_pow+0x202>
 8007a7c:	4632      	mov	r2, r6
 8007a7e:	463b      	mov	r3, r7
 8007a80:	e7e6      	b.n	8007a50 <__ieee754_pow+0x1d0>
 8007a82:	4b19      	ldr	r3, [pc, #100]	; (8007ae8 <__ieee754_pow+0x268>)
 8007a84:	4598      	cmp	r8, r3
 8007a86:	f340 80fb 	ble.w	8007c80 <__ieee754_pow+0x400>
 8007a8a:	f103 7304 	add.w	r3, r3, #34603008	; 0x2100000
 8007a8e:	4598      	cmp	r8, r3
 8007a90:	4b13      	ldr	r3, [pc, #76]	; (8007ae0 <__ieee754_pow+0x260>)
 8007a92:	dd0c      	ble.n	8007aae <__ieee754_pow+0x22e>
 8007a94:	429c      	cmp	r4, r3
 8007a96:	dc0f      	bgt.n	8007ab8 <__ieee754_pow+0x238>
 8007a98:	f1b9 0f00 	cmp.w	r9, #0
 8007a9c:	da0f      	bge.n	8007abe <__ieee754_pow+0x23e>
 8007a9e:	2000      	movs	r0, #0
 8007aa0:	b009      	add	sp, #36	; 0x24
 8007aa2:	ecbd 8b06 	vpop	{d8-d10}
 8007aa6:	e8bd 4ff0 	ldmia.w	sp!, {r4, r5, r6, r7, r8, r9, sl, fp, lr}
 8007aaa:	f000 bcf0 	b.w	800848e <__math_oflow>
 8007aae:	429c      	cmp	r4, r3
 8007ab0:	dbf2      	blt.n	8007a98 <__ieee754_pow+0x218>
 8007ab2:	4b0a      	ldr	r3, [pc, #40]	; (8007adc <__ieee754_pow+0x25c>)
 8007ab4:	429c      	cmp	r4, r3
 8007ab6:	dd19      	ble.n	8007aec <__ieee754_pow+0x26c>
 8007ab8:	f1b9 0f00 	cmp.w	r9, #0
 8007abc:	dcef      	bgt.n	8007a9e <__ieee754_pow+0x21e>
 8007abe:	2000      	movs	r0, #0
 8007ac0:	b009      	add	sp, #36	; 0x24
 8007ac2:	ecbd 8b06 	vpop	{d8-d10}
 8007ac6:	e8bd 4ff0 	ldmia.w	sp!, {r4, r5, r6, r7, r8, r9, sl, fp, lr}
 8007aca:	f000 bcd7 	b.w	800847c <__math_uflow>
 8007ace:	bf00      	nop
 8007ad0:	fff00000 	.word	0xfff00000
 8007ad4:	7ff00000 	.word	0x7ff00000
 8007ad8:	433fffff 	.word	0x433fffff
 8007adc:	3ff00000 	.word	0x3ff00000
 8007ae0:	3fefffff 	.word	0x3fefffff
 8007ae4:	3fe00000 	.word	0x3fe00000
 8007ae8:	41e00000 	.word	0x41e00000
 8007aec:	4b60      	ldr	r3, [pc, #384]	; (8007c70 <__ieee754_pow+0x3f0>)
 8007aee:	2200      	movs	r2, #0
 8007af0:	f7f8 fbe2 	bl	80002b8 <__aeabi_dsub>
 8007af4:	a354      	add	r3, pc, #336	; (adr r3, 8007c48 <__ieee754_pow+0x3c8>)
 8007af6:	e9d3 2300 	ldrd	r2, r3, [r3]
 8007afa:	4604      	mov	r4, r0
 8007afc:	460d      	mov	r5, r1
 8007afe:	f7f8 fd93 	bl	8000628 <__aeabi_dmul>
 8007b02:	a353      	add	r3, pc, #332	; (adr r3, 8007c50 <__ieee754_pow+0x3d0>)
 8007b04:	e9d3 2300 	ldrd	r2, r3, [r3]
 8007b08:	4606      	mov	r6, r0
 8007b0a:	460f      	mov	r7, r1
 8007b0c:	4620      	mov	r0, r4
 8007b0e:	4629      	mov	r1, r5
 8007b10:	f7f8 fd8a 	bl	8000628 <__aeabi_dmul>
 8007b14:	4b57      	ldr	r3, [pc, #348]	; (8007c74 <__ieee754_pow+0x3f4>)
 8007b16:	4682      	mov	sl, r0
 8007b18:	468b      	mov	fp, r1
 8007b1a:	2200      	movs	r2, #0
 8007b1c:	4620      	mov	r0, r4
 8007b1e:	4629      	mov	r1, r5
 8007b20:	f7f8 fd82 	bl	8000628 <__aeabi_dmul>
 8007b24:	4602      	mov	r2, r0
 8007b26:	460b      	mov	r3, r1
 8007b28:	a14b      	add	r1, pc, #300	; (adr r1, 8007c58 <__ieee754_pow+0x3d8>)
 8007b2a:	e9d1 0100 	ldrd	r0, r1, [r1]
 8007b2e:	f7f8 fbc3 	bl	80002b8 <__aeabi_dsub>
 8007b32:	4622      	mov	r2, r4
 8007b34:	462b      	mov	r3, r5
 8007b36:	f7f8 fd77 	bl	8000628 <__aeabi_dmul>
 8007b3a:	4602      	mov	r2, r0
 8007b3c:	460b      	mov	r3, r1
 8007b3e:	2000      	movs	r0, #0
 8007b40:	494d      	ldr	r1, [pc, #308]	; (8007c78 <__ieee754_pow+0x3f8>)
 8007b42:	f7f8 fbb9 	bl	80002b8 <__aeabi_dsub>
 8007b46:	4622      	mov	r2, r4
 8007b48:	4680      	mov	r8, r0
 8007b4a:	4689      	mov	r9, r1
 8007b4c:	462b      	mov	r3, r5
 8007b4e:	4620      	mov	r0, r4
 8007b50:	4629      	mov	r1, r5
 8007b52:	f7f8 fd69 	bl	8000628 <__aeabi_dmul>
 8007b56:	4602      	mov	r2, r0
 8007b58:	460b      	mov	r3, r1
 8007b5a:	4640      	mov	r0, r8
 8007b5c:	4649      	mov	r1, r9
 8007b5e:	f7f8 fd63 	bl	8000628 <__aeabi_dmul>
 8007b62:	a33f      	add	r3, pc, #252	; (adr r3, 8007c60 <__ieee754_pow+0x3e0>)
 8007b64:	e9d3 2300 	ldrd	r2, r3, [r3]
 8007b68:	f7f8 fd5e 	bl	8000628 <__aeabi_dmul>
 8007b6c:	4602      	mov	r2, r0
 8007b6e:	460b      	mov	r3, r1
 8007b70:	4650      	mov	r0, sl
 8007b72:	4659      	mov	r1, fp
 8007b74:	f7f8 fba0 	bl	80002b8 <__aeabi_dsub>
 8007b78:	4602      	mov	r2, r0
 8007b7a:	460b      	mov	r3, r1
 8007b7c:	4680      	mov	r8, r0
 8007b7e:	4689      	mov	r9, r1
 8007b80:	4630      	mov	r0, r6
 8007b82:	4639      	mov	r1, r7
 8007b84:	f7f8 fb9a 	bl	80002bc <__adddf3>
 8007b88:	2000      	movs	r0, #0
 8007b8a:	4632      	mov	r2, r6
 8007b8c:	463b      	mov	r3, r7
 8007b8e:	4604      	mov	r4, r0
 8007b90:	460d      	mov	r5, r1
 8007b92:	f7f8 fb91 	bl	80002b8 <__aeabi_dsub>
 8007b96:	4602      	mov	r2, r0
 8007b98:	460b      	mov	r3, r1
 8007b9a:	4640      	mov	r0, r8
 8007b9c:	4649      	mov	r1, r9
 8007b9e:	f7f8 fb8b 	bl	80002b8 <__aeabi_dsub>
 8007ba2:	9b04      	ldr	r3, [sp, #16]
 8007ba4:	9a06      	ldr	r2, [sp, #24]
 8007ba6:	3b01      	subs	r3, #1
 8007ba8:	4313      	orrs	r3, r2
 8007baa:	4682      	mov	sl, r0
 8007bac:	468b      	mov	fp, r1
 8007bae:	f040 81e7 	bne.w	8007f80 <__ieee754_pow+0x700>
 8007bb2:	ed9f 7b2d 	vldr	d7, [pc, #180]	; 8007c68 <__ieee754_pow+0x3e8>
 8007bb6:	eeb0 8a47 	vmov.f32	s16, s14
 8007bba:	eef0 8a67 	vmov.f32	s17, s15
 8007bbe:	e9dd 6700 	ldrd	r6, r7, [sp]
 8007bc2:	2600      	movs	r6, #0
 8007bc4:	4632      	mov	r2, r6
 8007bc6:	463b      	mov	r3, r7
 8007bc8:	e9dd 0100 	ldrd	r0, r1, [sp]
 8007bcc:	f7f8 fb74 	bl	80002b8 <__aeabi_dsub>
 8007bd0:	4622      	mov	r2, r4
 8007bd2:	462b      	mov	r3, r5
 8007bd4:	f7f8 fd28 	bl	8000628 <__aeabi_dmul>
 8007bd8:	e9dd 2300 	ldrd	r2, r3, [sp]
 8007bdc:	4680      	mov	r8, r0
 8007bde:	4689      	mov	r9, r1
 8007be0:	4650      	mov	r0, sl
 8007be2:	4659      	mov	r1, fp
 8007be4:	f7f8 fd20 	bl	8000628 <__aeabi_dmul>
 8007be8:	4602      	mov	r2, r0
 8007bea:	460b      	mov	r3, r1
 8007bec:	4640      	mov	r0, r8
 8007bee:	4649      	mov	r1, r9
 8007bf0:	f7f8 fb64 	bl	80002bc <__adddf3>
 8007bf4:	4632      	mov	r2, r6
 8007bf6:	463b      	mov	r3, r7
 8007bf8:	4680      	mov	r8, r0
 8007bfa:	4689      	mov	r9, r1
 8007bfc:	4620      	mov	r0, r4
 8007bfe:	4629      	mov	r1, r5
 8007c00:	f7f8 fd12 	bl	8000628 <__aeabi_dmul>
 8007c04:	460b      	mov	r3, r1
 8007c06:	4604      	mov	r4, r0
 8007c08:	460d      	mov	r5, r1
 8007c0a:	4602      	mov	r2, r0
 8007c0c:	4649      	mov	r1, r9
 8007c0e:	4640      	mov	r0, r8
 8007c10:	f7f8 fb54 	bl	80002bc <__adddf3>
 8007c14:	4b19      	ldr	r3, [pc, #100]	; (8007c7c <__ieee754_pow+0x3fc>)
 8007c16:	4299      	cmp	r1, r3
 8007c18:	ec45 4b19 	vmov	d9, r4, r5
 8007c1c:	4606      	mov	r6, r0
 8007c1e:	460f      	mov	r7, r1
 8007c20:	468b      	mov	fp, r1
 8007c22:	f340 82f1 	ble.w	8008208 <__ieee754_pow+0x988>
 8007c26:	f101 433f 	add.w	r3, r1, #3204448256	; 0xbf000000
 8007c2a:	f503 03e0 	add.w	r3, r3, #7340032	; 0x700000
 8007c2e:	4303      	orrs	r3, r0
 8007c30:	f000 81e4 	beq.w	8007ffc <__ieee754_pow+0x77c>
 8007c34:	ec51 0b18 	vmov	r0, r1, d8
 8007c38:	2200      	movs	r2, #0
 8007c3a:	2300      	movs	r3, #0
 8007c3c:	f7f8 ff66 	bl	8000b0c <__aeabi_dcmplt>
 8007c40:	3800      	subs	r0, #0
 8007c42:	bf18      	it	ne
 8007c44:	2001      	movne	r0, #1
 8007c46:	e72b      	b.n	8007aa0 <__ieee754_pow+0x220>
 8007c48:	60000000 	.word	0x60000000
 8007c4c:	3ff71547 	.word	0x3ff71547
 8007c50:	f85ddf44 	.word	0xf85ddf44
 8007c54:	3e54ae0b 	.word	0x3e54ae0b
 8007c58:	55555555 	.word	0x55555555
 8007c5c:	3fd55555 	.word	0x3fd55555
 8007c60:	652b82fe 	.word	0x652b82fe
 8007c64:	3ff71547 	.word	0x3ff71547
 8007c68:	00000000 	.word	0x00000000
 8007c6c:	bff00000 	.word	0xbff00000
 8007c70:	3ff00000 	.word	0x3ff00000
 8007c74:	3fd00000 	.word	0x3fd00000
 8007c78:	3fe00000 	.word	0x3fe00000
 8007c7c:	408fffff 	.word	0x408fffff
 8007c80:	4bd5      	ldr	r3, [pc, #852]	; (8007fd8 <__ieee754_pow+0x758>)
 8007c82:	402b      	ands	r3, r5
 8007c84:	2200      	movs	r2, #0
 8007c86:	b92b      	cbnz	r3, 8007c94 <__ieee754_pow+0x414>
 8007c88:	4bd4      	ldr	r3, [pc, #848]	; (8007fdc <__ieee754_pow+0x75c>)
 8007c8a:	f7f8 fccd 	bl	8000628 <__aeabi_dmul>
 8007c8e:	f06f 0234 	mvn.w	r2, #52	; 0x34
 8007c92:	460c      	mov	r4, r1
 8007c94:	1523      	asrs	r3, r4, #20
 8007c96:	f2a3 33ff 	subw	r3, r3, #1023	; 0x3ff
 8007c9a:	4413      	add	r3, r2
 8007c9c:	9305      	str	r3, [sp, #20]
 8007c9e:	4bd0      	ldr	r3, [pc, #832]	; (8007fe0 <__ieee754_pow+0x760>)
 8007ca0:	f3c4 0413 	ubfx	r4, r4, #0, #20
 8007ca4:	f044 557f 	orr.w	r5, r4, #1069547520	; 0x3fc00000
 8007ca8:	429c      	cmp	r4, r3
 8007caa:	f445 1540 	orr.w	r5, r5, #3145728	; 0x300000
 8007cae:	dd08      	ble.n	8007cc2 <__ieee754_pow+0x442>
 8007cb0:	4bcc      	ldr	r3, [pc, #816]	; (8007fe4 <__ieee754_pow+0x764>)
 8007cb2:	429c      	cmp	r4, r3
 8007cb4:	f340 8162 	ble.w	8007f7c <__ieee754_pow+0x6fc>
 8007cb8:	9b05      	ldr	r3, [sp, #20]
 8007cba:	3301      	adds	r3, #1
 8007cbc:	9305      	str	r3, [sp, #20]
 8007cbe:	f5a5 1580 	sub.w	r5, r5, #1048576	; 0x100000
 8007cc2:	2400      	movs	r4, #0
 8007cc4:	00e3      	lsls	r3, r4, #3
 8007cc6:	9307      	str	r3, [sp, #28]
 8007cc8:	4bc7      	ldr	r3, [pc, #796]	; (8007fe8 <__ieee754_pow+0x768>)
 8007cca:	eb03 03c4 	add.w	r3, r3, r4, lsl #3
 8007cce:	ed93 7b00 	vldr	d7, [r3]
 8007cd2:	4629      	mov	r1, r5
 8007cd4:	ec53 2b17 	vmov	r2, r3, d7
 8007cd8:	eeb0 9a47 	vmov.f32	s18, s14
 8007cdc:	eef0 9a67 	vmov.f32	s19, s15
 8007ce0:	4682      	mov	sl, r0
 8007ce2:	f7f8 fae9 	bl	80002b8 <__aeabi_dsub>
 8007ce6:	4652      	mov	r2, sl
 8007ce8:	4606      	mov	r6, r0
 8007cea:	460f      	mov	r7, r1
 8007cec:	462b      	mov	r3, r5
 8007cee:	ec51 0b19 	vmov	r0, r1, d9
 8007cf2:	f7f8 fae3 	bl	80002bc <__adddf3>
 8007cf6:	4602      	mov	r2, r0
 8007cf8:	460b      	mov	r3, r1
 8007cfa:	2000      	movs	r0, #0
 8007cfc:	49bb      	ldr	r1, [pc, #748]	; (8007fec <__ieee754_pow+0x76c>)
 8007cfe:	f7f8 fdbd 	bl	800087c <__aeabi_ddiv>
 8007d02:	ec41 0b1a 	vmov	d10, r0, r1
 8007d06:	4602      	mov	r2, r0
 8007d08:	460b      	mov	r3, r1
 8007d0a:	4630      	mov	r0, r6
 8007d0c:	4639      	mov	r1, r7
 8007d0e:	f7f8 fc8b 	bl	8000628 <__aeabi_dmul>
 8007d12:	2300      	movs	r3, #0
 8007d14:	e9cd 0102 	strd	r0, r1, [sp, #8]
 8007d18:	9302      	str	r3, [sp, #8]
 8007d1a:	e9dd 8902 	ldrd	r8, r9, [sp, #8]
 8007d1e:	46ab      	mov	fp, r5
 8007d20:	106d      	asrs	r5, r5, #1
 8007d22:	f045 5500 	orr.w	r5, r5, #536870912	; 0x20000000
 8007d26:	f505 2500 	add.w	r5, r5, #524288	; 0x80000
 8007d2a:	ec41 0b18 	vmov	d8, r0, r1
 8007d2e:	eb05 4384 	add.w	r3, r5, r4, lsl #18
 8007d32:	2200      	movs	r2, #0
 8007d34:	4640      	mov	r0, r8
 8007d36:	4649      	mov	r1, r9
 8007d38:	4614      	mov	r4, r2
 8007d3a:	461d      	mov	r5, r3
 8007d3c:	f7f8 fc74 	bl	8000628 <__aeabi_dmul>
 8007d40:	4602      	mov	r2, r0
 8007d42:	460b      	mov	r3, r1
 8007d44:	4630      	mov	r0, r6
 8007d46:	4639      	mov	r1, r7
 8007d48:	f7f8 fab6 	bl	80002b8 <__aeabi_dsub>
 8007d4c:	ec53 2b19 	vmov	r2, r3, d9
 8007d50:	4606      	mov	r6, r0
 8007d52:	460f      	mov	r7, r1
 8007d54:	4620      	mov	r0, r4
 8007d56:	4629      	mov	r1, r5
 8007d58:	f7f8 faae 	bl	80002b8 <__aeabi_dsub>
 8007d5c:	4602      	mov	r2, r0
 8007d5e:	460b      	mov	r3, r1
 8007d60:	4650      	mov	r0, sl
 8007d62:	4659      	mov	r1, fp
 8007d64:	f7f8 faa8 	bl	80002b8 <__aeabi_dsub>
 8007d68:	4642      	mov	r2, r8
 8007d6a:	464b      	mov	r3, r9
 8007d6c:	f7f8 fc5c 	bl	8000628 <__aeabi_dmul>
 8007d70:	4602      	mov	r2, r0
 8007d72:	460b      	mov	r3, r1
 8007d74:	4630      	mov	r0, r6
 8007d76:	4639      	mov	r1, r7
 8007d78:	f7f8 fa9e 	bl	80002b8 <__aeabi_dsub>
 8007d7c:	ec53 2b1a 	vmov	r2, r3, d10
 8007d80:	f7f8 fc52 	bl	8000628 <__aeabi_dmul>
 8007d84:	ec53 2b18 	vmov	r2, r3, d8
 8007d88:	ec41 0b19 	vmov	d9, r0, r1
 8007d8c:	ec51 0b18 	vmov	r0, r1, d8
 8007d90:	f7f8 fc4a 	bl	8000628 <__aeabi_dmul>
 8007d94:	a37c      	add	r3, pc, #496	; (adr r3, 8007f88 <__ieee754_pow+0x708>)
 8007d96:	e9d3 2300 	ldrd	r2, r3, [r3]
 8007d9a:	4604      	mov	r4, r0
 8007d9c:	460d      	mov	r5, r1
 8007d9e:	f7f8 fc43 	bl	8000628 <__aeabi_dmul>
 8007da2:	a37b      	add	r3, pc, #492	; (adr r3, 8007f90 <__ieee754_pow+0x710>)
 8007da4:	e9d3 2300 	ldrd	r2, r3, [r3]
 8007da8:	f7f8 fa88 	bl	80002bc <__adddf3>
 8007dac:	4622      	mov	r2, r4
 8007dae:	462b      	mov	r3, r5
 8007db0:	f7f8 fc3a 	bl	8000628 <__aeabi_dmul>
 8007db4:	a378      	add	r3, pc, #480	; (adr r3, 8007f98 <__ieee754_pow+0x718>)
 8007db6:	e9d3 2300 	ldrd	r2, r3, [r3]
 8007dba:	f7f8 fa7f 	bl	80002bc <__adddf3>
 8007dbe:	4622      	mov	r2, r4
 8007dc0:	462b      	mov	r3, r5
 8007dc2:	f7f8 fc31 	bl	8000628 <__aeabi_dmul>
 8007dc6:	a376      	add	r3, pc, #472	; (adr r3, 8007fa0 <__ieee754_pow+0x720>)
 8007dc8:	e9d3 2300 	ldrd	r2, r3, [r3]
 8007dcc:	f7f8 fa76 	bl	80002bc <__adddf3>
 8007dd0:	4622      	mov	r2, r4
 8007dd2:	462b      	mov	r3, r5
 8007dd4:	f7f8 fc28 	bl	8000628 <__aeabi_dmul>
 8007dd8:	a373      	add	r3, pc, #460	; (adr r3, 8007fa8 <__ieee754_pow+0x728>)
 8007dda:	e9d3 2300 	ldrd	r2, r3, [r3]
 8007dde:	f7f8 fa6d 	bl	80002bc <__adddf3>
 8007de2:	4622      	mov	r2, r4
 8007de4:	462b      	mov	r3, r5
 8007de6:	f7f8 fc1f 	bl	8000628 <__aeabi_dmul>
 8007dea:	a371      	add	r3, pc, #452	; (adr r3, 8007fb0 <__ieee754_pow+0x730>)
 8007dec:	e9d3 2300 	ldrd	r2, r3, [r3]
 8007df0:	f7f8 fa64 	bl	80002bc <__adddf3>
 8007df4:	4622      	mov	r2, r4
 8007df6:	4606      	mov	r6, r0
 8007df8:	460f      	mov	r7, r1
 8007dfa:	462b      	mov	r3, r5
 8007dfc:	4620      	mov	r0, r4
 8007dfe:	4629      	mov	r1, r5
 8007e00:	f7f8 fc12 	bl	8000628 <__aeabi_dmul>
 8007e04:	4602      	mov	r2, r0
 8007e06:	460b      	mov	r3, r1
 8007e08:	4630      	mov	r0, r6
 8007e0a:	4639      	mov	r1, r7
 8007e0c:	f7f8 fc0c 	bl	8000628 <__aeabi_dmul>
 8007e10:	4642      	mov	r2, r8
 8007e12:	4604      	mov	r4, r0
 8007e14:	460d      	mov	r5, r1
 8007e16:	464b      	mov	r3, r9
 8007e18:	ec51 0b18 	vmov	r0, r1, d8
 8007e1c:	f7f8 fa4e 	bl	80002bc <__adddf3>
 8007e20:	ec53 2b19 	vmov	r2, r3, d9
 8007e24:	f7f8 fc00 	bl	8000628 <__aeabi_dmul>
 8007e28:	4622      	mov	r2, r4
 8007e2a:	462b      	mov	r3, r5
 8007e2c:	f7f8 fa46 	bl	80002bc <__adddf3>
 8007e30:	4642      	mov	r2, r8
 8007e32:	4682      	mov	sl, r0
 8007e34:	468b      	mov	fp, r1
 8007e36:	464b      	mov	r3, r9
 8007e38:	4640      	mov	r0, r8
 8007e3a:	4649      	mov	r1, r9
 8007e3c:	f7f8 fbf4 	bl	8000628 <__aeabi_dmul>
 8007e40:	4b6b      	ldr	r3, [pc, #428]	; (8007ff0 <__ieee754_pow+0x770>)
 8007e42:	2200      	movs	r2, #0
 8007e44:	4606      	mov	r6, r0
 8007e46:	460f      	mov	r7, r1
 8007e48:	f7f8 fa38 	bl	80002bc <__adddf3>
 8007e4c:	4652      	mov	r2, sl
 8007e4e:	465b      	mov	r3, fp
 8007e50:	f7f8 fa34 	bl	80002bc <__adddf3>
 8007e54:	2000      	movs	r0, #0
 8007e56:	4604      	mov	r4, r0
 8007e58:	460d      	mov	r5, r1
 8007e5a:	4602      	mov	r2, r0
 8007e5c:	460b      	mov	r3, r1
 8007e5e:	4640      	mov	r0, r8
 8007e60:	4649      	mov	r1, r9
 8007e62:	f7f8 fbe1 	bl	8000628 <__aeabi_dmul>
 8007e66:	4b62      	ldr	r3, [pc, #392]	; (8007ff0 <__ieee754_pow+0x770>)
 8007e68:	4680      	mov	r8, r0
 8007e6a:	4689      	mov	r9, r1
 8007e6c:	2200      	movs	r2, #0
 8007e6e:	4620      	mov	r0, r4
 8007e70:	4629      	mov	r1, r5
 8007e72:	f7f8 fa21 	bl	80002b8 <__aeabi_dsub>
 8007e76:	4632      	mov	r2, r6
 8007e78:	463b      	mov	r3, r7
 8007e7a:	f7f8 fa1d 	bl	80002b8 <__aeabi_dsub>
 8007e7e:	4602      	mov	r2, r0
 8007e80:	460b      	mov	r3, r1
 8007e82:	4650      	mov	r0, sl
 8007e84:	4659      	mov	r1, fp
 8007e86:	f7f8 fa17 	bl	80002b8 <__aeabi_dsub>
 8007e8a:	ec53 2b18 	vmov	r2, r3, d8
 8007e8e:	f7f8 fbcb 	bl	8000628 <__aeabi_dmul>
 8007e92:	4622      	mov	r2, r4
 8007e94:	4606      	mov	r6, r0
 8007e96:	460f      	mov	r7, r1
 8007e98:	462b      	mov	r3, r5
 8007e9a:	ec51 0b19 	vmov	r0, r1, d9
 8007e9e:	f7f8 fbc3 	bl	8000628 <__aeabi_dmul>
 8007ea2:	4602      	mov	r2, r0
 8007ea4:	460b      	mov	r3, r1
 8007ea6:	4630      	mov	r0, r6
 8007ea8:	4639      	mov	r1, r7
 8007eaa:	f7f8 fa07 	bl	80002bc <__adddf3>
 8007eae:	4606      	mov	r6, r0
 8007eb0:	460f      	mov	r7, r1
 8007eb2:	4602      	mov	r2, r0
 8007eb4:	460b      	mov	r3, r1
 8007eb6:	4640      	mov	r0, r8
 8007eb8:	4649      	mov	r1, r9
 8007eba:	f7f8 f9ff 	bl	80002bc <__adddf3>
 8007ebe:	a33e      	add	r3, pc, #248	; (adr r3, 8007fb8 <__ieee754_pow+0x738>)
 8007ec0:	e9d3 2300 	ldrd	r2, r3, [r3]
 8007ec4:	2000      	movs	r0, #0
 8007ec6:	4604      	mov	r4, r0
 8007ec8:	460d      	mov	r5, r1
 8007eca:	f7f8 fbad 	bl	8000628 <__aeabi_dmul>
 8007ece:	4642      	mov	r2, r8
 8007ed0:	ec41 0b18 	vmov	d8, r0, r1
 8007ed4:	464b      	mov	r3, r9
 8007ed6:	4620      	mov	r0, r4
 8007ed8:	4629      	mov	r1, r5
 8007eda:	f7f8 f9ed 	bl	80002b8 <__aeabi_dsub>
 8007ede:	4602      	mov	r2, r0
 8007ee0:	460b      	mov	r3, r1
 8007ee2:	4630      	mov	r0, r6
 8007ee4:	4639      	mov	r1, r7
 8007ee6:	f7f8 f9e7 	bl	80002b8 <__aeabi_dsub>
 8007eea:	a335      	add	r3, pc, #212	; (adr r3, 8007fc0 <__ieee754_pow+0x740>)
 8007eec:	e9d3 2300 	ldrd	r2, r3, [r3]
 8007ef0:	f7f8 fb9a 	bl	8000628 <__aeabi_dmul>
 8007ef4:	a334      	add	r3, pc, #208	; (adr r3, 8007fc8 <__ieee754_pow+0x748>)
 8007ef6:	e9d3 2300 	ldrd	r2, r3, [r3]
 8007efa:	4606      	mov	r6, r0
 8007efc:	460f      	mov	r7, r1
 8007efe:	4620      	mov	r0, r4
 8007f00:	4629      	mov	r1, r5
 8007f02:	f7f8 fb91 	bl	8000628 <__aeabi_dmul>
 8007f06:	4602      	mov	r2, r0
 8007f08:	460b      	mov	r3, r1
 8007f0a:	4630      	mov	r0, r6
 8007f0c:	4639      	mov	r1, r7
 8007f0e:	f7f8 f9d5 	bl	80002bc <__adddf3>
 8007f12:	9a07      	ldr	r2, [sp, #28]
 8007f14:	4b37      	ldr	r3, [pc, #220]	; (8007ff4 <__ieee754_pow+0x774>)
 8007f16:	4413      	add	r3, r2
 8007f18:	e9d3 2300 	ldrd	r2, r3, [r3]
 8007f1c:	f7f8 f9ce 	bl	80002bc <__adddf3>
 8007f20:	4682      	mov	sl, r0
 8007f22:	9805      	ldr	r0, [sp, #20]
 8007f24:	468b      	mov	fp, r1
 8007f26:	f7f8 fb15 	bl	8000554 <__aeabi_i2d>
 8007f2a:	9a07      	ldr	r2, [sp, #28]
 8007f2c:	4b32      	ldr	r3, [pc, #200]	; (8007ff8 <__ieee754_pow+0x778>)
 8007f2e:	4413      	add	r3, r2
 8007f30:	e9d3 8900 	ldrd	r8, r9, [r3]
 8007f34:	4606      	mov	r6, r0
 8007f36:	460f      	mov	r7, r1
 8007f38:	4652      	mov	r2, sl
 8007f3a:	465b      	mov	r3, fp
 8007f3c:	ec51 0b18 	vmov	r0, r1, d8
 8007f40:	f7f8 f9bc 	bl	80002bc <__adddf3>
 8007f44:	4642      	mov	r2, r8
 8007f46:	464b      	mov	r3, r9
 8007f48:	f7f8 f9b8 	bl	80002bc <__adddf3>
 8007f4c:	4632      	mov	r2, r6
 8007f4e:	463b      	mov	r3, r7
 8007f50:	f7f8 f9b4 	bl	80002bc <__adddf3>
 8007f54:	2000      	movs	r0, #0
 8007f56:	4632      	mov	r2, r6
 8007f58:	463b      	mov	r3, r7
 8007f5a:	4604      	mov	r4, r0
 8007f5c:	460d      	mov	r5, r1
 8007f5e:	f7f8 f9ab 	bl	80002b8 <__aeabi_dsub>
 8007f62:	4642      	mov	r2, r8
 8007f64:	464b      	mov	r3, r9
 8007f66:	f7f8 f9a7 	bl	80002b8 <__aeabi_dsub>
 8007f6a:	ec53 2b18 	vmov	r2, r3, d8
 8007f6e:	f7f8 f9a3 	bl	80002b8 <__aeabi_dsub>
 8007f72:	4602      	mov	r2, r0
 8007f74:	460b      	mov	r3, r1
 8007f76:	4650      	mov	r0, sl
 8007f78:	4659      	mov	r1, fp
 8007f7a:	e610      	b.n	8007b9e <__ieee754_pow+0x31e>
 8007f7c:	2401      	movs	r4, #1
 8007f7e:	e6a1      	b.n	8007cc4 <__ieee754_pow+0x444>
 8007f80:	ed9f 7b13 	vldr	d7, [pc, #76]	; 8007fd0 <__ieee754_pow+0x750>
 8007f84:	e617      	b.n	8007bb6 <__ieee754_pow+0x336>
 8007f86:	bf00      	nop
 8007f88:	4a454eef 	.word	0x4a454eef
 8007f8c:	3fca7e28 	.word	0x3fca7e28
 8007f90:	93c9db65 	.word	0x93c9db65
 8007f94:	3fcd864a 	.word	0x3fcd864a
 8007f98:	a91d4101 	.word	0xa91d4101
 8007f9c:	3fd17460 	.word	0x3fd17460
 8007fa0:	518f264d 	.word	0x518f264d
 8007fa4:	3fd55555 	.word	0x3fd55555
 8007fa8:	db6fabff 	.word	0xdb6fabff
 8007fac:	3fdb6db6 	.word	0x3fdb6db6
 8007fb0:	33333303 	.word	0x33333303
 8007fb4:	3fe33333 	.word	0x3fe33333
 8007fb8:	e0000000 	.word	0xe0000000
 8007fbc:	3feec709 	.word	0x3feec709
 8007fc0:	dc3a03fd 	.word	0xdc3a03fd
 8007fc4:	3feec709 	.word	0x3feec709
 8007fc8:	145b01f5 	.word	0x145b01f5
 8007fcc:	be3e2fe0 	.word	0xbe3e2fe0
 8007fd0:	00000000 	.word	0x00000000
 8007fd4:	3ff00000 	.word	0x3ff00000
 8007fd8:	7ff00000 	.word	0x7ff00000
 8007fdc:	43400000 	.word	0x43400000
 8007fe0:	0003988e 	.word	0x0003988e
 8007fe4:	000bb679 	.word	0x000bb679
 8007fe8:	08008a10 	.word	0x08008a10
 8007fec:	3ff00000 	.word	0x3ff00000
 8007ff0:	40080000 	.word	0x40080000
 8007ff4:	08008a30 	.word	0x08008a30
 8007ff8:	08008a20 	.word	0x08008a20
 8007ffc:	a3b5      	add	r3, pc, #724	; (adr r3, 80082d4 <__ieee754_pow+0xa54>)
 8007ffe:	e9d3 2300 	ldrd	r2, r3, [r3]
 8008002:	4640      	mov	r0, r8
 8008004:	4649      	mov	r1, r9
 8008006:	f7f8 f959 	bl	80002bc <__adddf3>
 800800a:	4622      	mov	r2, r4
 800800c:	ec41 0b1a 	vmov	d10, r0, r1
 8008010:	462b      	mov	r3, r5
 8008012:	4630      	mov	r0, r6
 8008014:	4639      	mov	r1, r7
 8008016:	f7f8 f94f 	bl	80002b8 <__aeabi_dsub>
 800801a:	4602      	mov	r2, r0
 800801c:	460b      	mov	r3, r1
 800801e:	ec51 0b1a 	vmov	r0, r1, d10
 8008022:	f7f8 fd91 	bl	8000b48 <__aeabi_dcmpgt>
 8008026:	2800      	cmp	r0, #0
 8008028:	f47f ae04 	bne.w	8007c34 <__ieee754_pow+0x3b4>
 800802c:	4aa4      	ldr	r2, [pc, #656]	; (80082c0 <__ieee754_pow+0xa40>)
 800802e:	f02b 4300 	bic.w	r3, fp, #2147483648	; 0x80000000
 8008032:	4293      	cmp	r3, r2
 8008034:	f340 8108 	ble.w	8008248 <__ieee754_pow+0x9c8>
 8008038:	151b      	asrs	r3, r3, #20
 800803a:	f44f 1a80 	mov.w	sl, #1048576	; 0x100000
 800803e:	f2a3 33fe 	subw	r3, r3, #1022	; 0x3fe
 8008042:	fa4a f303 	asr.w	r3, sl, r3
 8008046:	445b      	add	r3, fp
 8008048:	f3c3 520a 	ubfx	r2, r3, #20, #11
 800804c:	4e9d      	ldr	r6, [pc, #628]	; (80082c4 <__ieee754_pow+0xa44>)
 800804e:	f2a2 32ff 	subw	r2, r2, #1023	; 0x3ff
 8008052:	4116      	asrs	r6, r2
 8008054:	f3c3 0a13 	ubfx	sl, r3, #0, #20
 8008058:	2000      	movs	r0, #0
 800805a:	ea23 0106 	bic.w	r1, r3, r6
 800805e:	f1c2 0214 	rsb	r2, r2, #20
 8008062:	f44a 1a80 	orr.w	sl, sl, #1048576	; 0x100000
 8008066:	fa4a fa02 	asr.w	sl, sl, r2
 800806a:	f1bb 0f00 	cmp.w	fp, #0
 800806e:	4602      	mov	r2, r0
 8008070:	460b      	mov	r3, r1
 8008072:	4620      	mov	r0, r4
 8008074:	4629      	mov	r1, r5
 8008076:	bfb8      	it	lt
 8008078:	f1ca 0a00 	rsblt	sl, sl, #0
 800807c:	f7f8 f91c 	bl	80002b8 <__aeabi_dsub>
 8008080:	ec41 0b19 	vmov	d9, r0, r1
 8008084:	4642      	mov	r2, r8
 8008086:	464b      	mov	r3, r9
 8008088:	ec51 0b19 	vmov	r0, r1, d9
 800808c:	f7f8 f916 	bl	80002bc <__adddf3>
 8008090:	a37b      	add	r3, pc, #492	; (adr r3, 8008280 <__ieee754_pow+0xa00>)
 8008092:	e9d3 2300 	ldrd	r2, r3, [r3]
 8008096:	2000      	movs	r0, #0
 8008098:	4604      	mov	r4, r0
 800809a:	460d      	mov	r5, r1
 800809c:	f7f8 fac4 	bl	8000628 <__aeabi_dmul>
 80080a0:	ec53 2b19 	vmov	r2, r3, d9
 80080a4:	4606      	mov	r6, r0
 80080a6:	460f      	mov	r7, r1
 80080a8:	4620      	mov	r0, r4
 80080aa:	4629      	mov	r1, r5
 80080ac:	f7f8 f904 	bl	80002b8 <__aeabi_dsub>
 80080b0:	4602      	mov	r2, r0
 80080b2:	460b      	mov	r3, r1
 80080b4:	4640      	mov	r0, r8
 80080b6:	4649      	mov	r1, r9
 80080b8:	f7f8 f8fe 	bl	80002b8 <__aeabi_dsub>
 80080bc:	a372      	add	r3, pc, #456	; (adr r3, 8008288 <__ieee754_pow+0xa08>)
 80080be:	e9d3 2300 	ldrd	r2, r3, [r3]
 80080c2:	f7f8 fab1 	bl	8000628 <__aeabi_dmul>
 80080c6:	a372      	add	r3, pc, #456	; (adr r3, 8008290 <__ieee754_pow+0xa10>)
 80080c8:	e9d3 2300 	ldrd	r2, r3, [r3]
 80080cc:	4680      	mov	r8, r0
 80080ce:	4689      	mov	r9, r1
 80080d0:	4620      	mov	r0, r4
 80080d2:	4629      	mov	r1, r5
 80080d4:	f7f8 faa8 	bl	8000628 <__aeabi_dmul>
 80080d8:	4602      	mov	r2, r0
 80080da:	460b      	mov	r3, r1
 80080dc:	4640      	mov	r0, r8
 80080de:	4649      	mov	r1, r9
 80080e0:	f7f8 f8ec 	bl	80002bc <__adddf3>
 80080e4:	4604      	mov	r4, r0
 80080e6:	460d      	mov	r5, r1
 80080e8:	4602      	mov	r2, r0
 80080ea:	460b      	mov	r3, r1
 80080ec:	4630      	mov	r0, r6
 80080ee:	4639      	mov	r1, r7
 80080f0:	f7f8 f8e4 	bl	80002bc <__adddf3>
 80080f4:	4632      	mov	r2, r6
 80080f6:	463b      	mov	r3, r7
 80080f8:	4680      	mov	r8, r0
 80080fa:	4689      	mov	r9, r1
 80080fc:	f7f8 f8dc 	bl	80002b8 <__aeabi_dsub>
 8008100:	4602      	mov	r2, r0
 8008102:	460b      	mov	r3, r1
 8008104:	4620      	mov	r0, r4
 8008106:	4629      	mov	r1, r5
 8008108:	f7f8 f8d6 	bl	80002b8 <__aeabi_dsub>
 800810c:	4642      	mov	r2, r8
 800810e:	4606      	mov	r6, r0
 8008110:	460f      	mov	r7, r1
 8008112:	464b      	mov	r3, r9
 8008114:	4640      	mov	r0, r8
 8008116:	4649      	mov	r1, r9
 8008118:	f7f8 fa86 	bl	8000628 <__aeabi_dmul>
 800811c:	a35e      	add	r3, pc, #376	; (adr r3, 8008298 <__ieee754_pow+0xa18>)
 800811e:	e9d3 2300 	ldrd	r2, r3, [r3]
 8008122:	4604      	mov	r4, r0
 8008124:	460d      	mov	r5, r1
 8008126:	f7f8 fa7f 	bl	8000628 <__aeabi_dmul>
 800812a:	a35d      	add	r3, pc, #372	; (adr r3, 80082a0 <__ieee754_pow+0xa20>)
 800812c:	e9d3 2300 	ldrd	r2, r3, [r3]
 8008130:	f7f8 f8c2 	bl	80002b8 <__aeabi_dsub>
 8008134:	4622      	mov	r2, r4
 8008136:	462b      	mov	r3, r5
 8008138:	f7f8 fa76 	bl	8000628 <__aeabi_dmul>
 800813c:	a35a      	add	r3, pc, #360	; (adr r3, 80082a8 <__ieee754_pow+0xa28>)
 800813e:	e9d3 2300 	ldrd	r2, r3, [r3]
 8008142:	f7f8 f8bb 	bl	80002bc <__adddf3>
 8008146:	4622      	mov	r2, r4
 8008148:	462b      	mov	r3, r5
 800814a:	f7f8 fa6d 	bl	8000628 <__aeabi_dmul>
 800814e:	a358      	add	r3, pc, #352	; (adr r3, 80082b0 <__ieee754_pow+0xa30>)
 8008150:	e9d3 2300 	ldrd	r2, r3, [r3]
 8008154:	f7f8 f8b0 	bl	80002b8 <__aeabi_dsub>
 8008158:	4622      	mov	r2, r4
 800815a:	462b      	mov	r3, r5
 800815c:	f7f8 fa64 	bl	8000628 <__aeabi_dmul>
 8008160:	a355      	add	r3, pc, #340	; (adr r3, 80082b8 <__ieee754_pow+0xa38>)
 8008162:	e9d3 2300 	ldrd	r2, r3, [r3]
 8008166:	f7f8 f8a9 	bl	80002bc <__adddf3>
 800816a:	4622      	mov	r2, r4
 800816c:	462b      	mov	r3, r5
 800816e:	f7f8 fa5b 	bl	8000628 <__aeabi_dmul>
 8008172:	4602      	mov	r2, r0
 8008174:	460b      	mov	r3, r1
 8008176:	4640      	mov	r0, r8
 8008178:	4649      	mov	r1, r9
 800817a:	f7f8 f89d 	bl	80002b8 <__aeabi_dsub>
 800817e:	4604      	mov	r4, r0
 8008180:	460d      	mov	r5, r1
 8008182:	4602      	mov	r2, r0
 8008184:	460b      	mov	r3, r1
 8008186:	4640      	mov	r0, r8
 8008188:	4649      	mov	r1, r9
 800818a:	f7f8 fa4d 	bl	8000628 <__aeabi_dmul>
 800818e:	2200      	movs	r2, #0
 8008190:	ec41 0b19 	vmov	d9, r0, r1
 8008194:	f04f 4380 	mov.w	r3, #1073741824	; 0x40000000
 8008198:	4620      	mov	r0, r4
 800819a:	4629      	mov	r1, r5
 800819c:	f7f8 f88c 	bl	80002b8 <__aeabi_dsub>
 80081a0:	4602      	mov	r2, r0
 80081a2:	460b      	mov	r3, r1
 80081a4:	ec51 0b19 	vmov	r0, r1, d9
 80081a8:	f7f8 fb68 	bl	800087c <__aeabi_ddiv>
 80081ac:	4632      	mov	r2, r6
 80081ae:	4604      	mov	r4, r0
 80081b0:	460d      	mov	r5, r1
 80081b2:	463b      	mov	r3, r7
 80081b4:	4640      	mov	r0, r8
 80081b6:	4649      	mov	r1, r9
 80081b8:	f7f8 fa36 	bl	8000628 <__aeabi_dmul>
 80081bc:	4632      	mov	r2, r6
 80081be:	463b      	mov	r3, r7
 80081c0:	f7f8 f87c 	bl	80002bc <__adddf3>
 80081c4:	4602      	mov	r2, r0
 80081c6:	460b      	mov	r3, r1
 80081c8:	4620      	mov	r0, r4
 80081ca:	4629      	mov	r1, r5
 80081cc:	f7f8 f874 	bl	80002b8 <__aeabi_dsub>
 80081d0:	4642      	mov	r2, r8
 80081d2:	464b      	mov	r3, r9
 80081d4:	f7f8 f870 	bl	80002b8 <__aeabi_dsub>
 80081d8:	460b      	mov	r3, r1
 80081da:	4602      	mov	r2, r0
 80081dc:	493a      	ldr	r1, [pc, #232]	; (80082c8 <__ieee754_pow+0xa48>)
 80081de:	2000      	movs	r0, #0
 80081e0:	f7f8 f86a 	bl	80002b8 <__aeabi_dsub>
 80081e4:	ec41 0b10 	vmov	d0, r0, r1
 80081e8:	ee10 3a90 	vmov	r3, s1
 80081ec:	eb03 530a 	add.w	r3, r3, sl, lsl #20
 80081f0:	f5b3 1f80 	cmp.w	r3, #1048576	; 0x100000
 80081f4:	da2b      	bge.n	800824e <__ieee754_pow+0x9ce>
 80081f6:	4650      	mov	r0, sl
 80081f8:	f000 f966 	bl	80084c8 <scalbn>
 80081fc:	ec51 0b10 	vmov	r0, r1, d0
 8008200:	ec53 2b18 	vmov	r2, r3, d8
 8008204:	f7ff bbed 	b.w	80079e2 <__ieee754_pow+0x162>
 8008208:	4b30      	ldr	r3, [pc, #192]	; (80082cc <__ieee754_pow+0xa4c>)
 800820a:	f021 4600 	bic.w	r6, r1, #2147483648	; 0x80000000
 800820e:	429e      	cmp	r6, r3
 8008210:	f77f af0c 	ble.w	800802c <__ieee754_pow+0x7ac>
 8008214:	4b2e      	ldr	r3, [pc, #184]	; (80082d0 <__ieee754_pow+0xa50>)
 8008216:	440b      	add	r3, r1
 8008218:	4303      	orrs	r3, r0
 800821a:	d009      	beq.n	8008230 <__ieee754_pow+0x9b0>
 800821c:	ec51 0b18 	vmov	r0, r1, d8
 8008220:	2200      	movs	r2, #0
 8008222:	2300      	movs	r3, #0
 8008224:	f7f8 fc72 	bl	8000b0c <__aeabi_dcmplt>
 8008228:	3800      	subs	r0, #0
 800822a:	bf18      	it	ne
 800822c:	2001      	movne	r0, #1
 800822e:	e447      	b.n	8007ac0 <__ieee754_pow+0x240>
 8008230:	4622      	mov	r2, r4
 8008232:	462b      	mov	r3, r5
 8008234:	f7f8 f840 	bl	80002b8 <__aeabi_dsub>
 8008238:	4642      	mov	r2, r8
 800823a:	464b      	mov	r3, r9
 800823c:	f7f8 fc7a 	bl	8000b34 <__aeabi_dcmpge>
 8008240:	2800      	cmp	r0, #0
 8008242:	f43f aef3 	beq.w	800802c <__ieee754_pow+0x7ac>
 8008246:	e7e9      	b.n	800821c <__ieee754_pow+0x99c>
 8008248:	f04f 0a00 	mov.w	sl, #0
 800824c:	e71a      	b.n	8008084 <__ieee754_pow+0x804>
 800824e:	ec51 0b10 	vmov	r0, r1, d0
 8008252:	4619      	mov	r1, r3
 8008254:	e7d4      	b.n	8008200 <__ieee754_pow+0x980>
 8008256:	491c      	ldr	r1, [pc, #112]	; (80082c8 <__ieee754_pow+0xa48>)
 8008258:	2000      	movs	r0, #0
 800825a:	f7ff bb30 	b.w	80078be <__ieee754_pow+0x3e>
 800825e:	2000      	movs	r0, #0
 8008260:	2100      	movs	r1, #0
 8008262:	f7ff bb2c 	b.w	80078be <__ieee754_pow+0x3e>
 8008266:	4630      	mov	r0, r6
 8008268:	4639      	mov	r1, r7
 800826a:	f7ff bb28 	b.w	80078be <__ieee754_pow+0x3e>
 800826e:	9204      	str	r2, [sp, #16]
 8008270:	f7ff bb7a 	b.w	8007968 <__ieee754_pow+0xe8>
 8008274:	2300      	movs	r3, #0
 8008276:	f7ff bb64 	b.w	8007942 <__ieee754_pow+0xc2>
 800827a:	bf00      	nop
 800827c:	f3af 8000 	nop.w
 8008280:	00000000 	.word	0x00000000
 8008284:	3fe62e43 	.word	0x3fe62e43
 8008288:	fefa39ef 	.word	0xfefa39ef
 800828c:	3fe62e42 	.word	0x3fe62e42
 8008290:	0ca86c39 	.word	0x0ca86c39
 8008294:	be205c61 	.word	0xbe205c61
 8008298:	72bea4d0 	.word	0x72bea4d0
 800829c:	3e663769 	.word	0x3e663769
 80082a0:	c5d26bf1 	.word	0xc5d26bf1
 80082a4:	3ebbbd41 	.word	0x3ebbbd41
 80082a8:	af25de2c 	.word	0xaf25de2c
 80082ac:	3f11566a 	.word	0x3f11566a
 80082b0:	16bebd93 	.word	0x16bebd93
 80082b4:	3f66c16c 	.word	0x3f66c16c
 80082b8:	5555553e 	.word	0x5555553e
 80082bc:	3fc55555 	.word	0x3fc55555
 80082c0:	3fe00000 	.word	0x3fe00000
 80082c4:	000fffff 	.word	0x000fffff
 80082c8:	3ff00000 	.word	0x3ff00000
 80082cc:	4090cbff 	.word	0x4090cbff
 80082d0:	3f6f3400 	.word	0x3f6f3400
 80082d4:	652b82fe 	.word	0x652b82fe
 80082d8:	3c971547 	.word	0x3c971547

080082dc <__ieee754_sqrt>:
 80082dc:	e92d 41f0 	stmdb	sp!, {r4, r5, r6, r7, r8, lr}
 80082e0:	ec55 4b10 	vmov	r4, r5, d0
 80082e4:	4e55      	ldr	r6, [pc, #340]	; (800843c <__ieee754_sqrt+0x160>)
 80082e6:	43ae      	bics	r6, r5
 80082e8:	ee10 0a10 	vmov	r0, s0
 80082ec:	ee10 3a10 	vmov	r3, s0
 80082f0:	462a      	mov	r2, r5
 80082f2:	4629      	mov	r1, r5
 80082f4:	d110      	bne.n	8008318 <__ieee754_sqrt+0x3c>
 80082f6:	ee10 2a10 	vmov	r2, s0
 80082fa:	462b      	mov	r3, r5
 80082fc:	f7f8 f994 	bl	8000628 <__aeabi_dmul>
 8008300:	4602      	mov	r2, r0
 8008302:	460b      	mov	r3, r1
 8008304:	4620      	mov	r0, r4
 8008306:	4629      	mov	r1, r5
 8008308:	f7f7 ffd8 	bl	80002bc <__adddf3>
 800830c:	4604      	mov	r4, r0
 800830e:	460d      	mov	r5, r1
 8008310:	ec45 4b10 	vmov	d0, r4, r5
 8008314:	e8bd 81f0 	ldmia.w	sp!, {r4, r5, r6, r7, r8, pc}
 8008318:	2d00      	cmp	r5, #0
 800831a:	dc10      	bgt.n	800833e <__ieee754_sqrt+0x62>
 800831c:	f025 4600 	bic.w	r6, r5, #2147483648	; 0x80000000
 8008320:	4330      	orrs	r0, r6
 8008322:	d0f5      	beq.n	8008310 <__ieee754_sqrt+0x34>
 8008324:	b15d      	cbz	r5, 800833e <__ieee754_sqrt+0x62>
 8008326:	ee10 2a10 	vmov	r2, s0
 800832a:	462b      	mov	r3, r5
 800832c:	ee10 0a10 	vmov	r0, s0
 8008330:	f7f7 ffc2 	bl	80002b8 <__aeabi_dsub>
 8008334:	4602      	mov	r2, r0
 8008336:	460b      	mov	r3, r1
 8008338:	f7f8 faa0 	bl	800087c <__aeabi_ddiv>
 800833c:	e7e6      	b.n	800830c <__ieee754_sqrt+0x30>
 800833e:	1512      	asrs	r2, r2, #20
 8008340:	d074      	beq.n	800842c <__ieee754_sqrt+0x150>
 8008342:	07d4      	lsls	r4, r2, #31
 8008344:	f3c1 0113 	ubfx	r1, r1, #0, #20
 8008348:	f2a2 37ff 	subw	r7, r2, #1023	; 0x3ff
 800834c:	f441 1180 	orr.w	r1, r1, #1048576	; 0x100000
 8008350:	bf5e      	ittt	pl
 8008352:	0fda      	lsrpl	r2, r3, #31
 8008354:	005b      	lslpl	r3, r3, #1
 8008356:	eb02 0141 	addpl.w	r1, r2, r1, lsl #1
 800835a:	2400      	movs	r4, #0
 800835c:	0fda      	lsrs	r2, r3, #31
 800835e:	eb02 0141 	add.w	r1, r2, r1, lsl #1
 8008362:	107f      	asrs	r7, r7, #1
 8008364:	005b      	lsls	r3, r3, #1
 8008366:	2516      	movs	r5, #22
 8008368:	4620      	mov	r0, r4
 800836a:	f44f 1200 	mov.w	r2, #2097152	; 0x200000
 800836e:	1886      	adds	r6, r0, r2
 8008370:	428e      	cmp	r6, r1
 8008372:	bfde      	ittt	le
 8008374:	1b89      	suble	r1, r1, r6
 8008376:	18b0      	addle	r0, r6, r2
 8008378:	18a4      	addle	r4, r4, r2
 800837a:	0049      	lsls	r1, r1, #1
 800837c:	3d01      	subs	r5, #1
 800837e:	eb01 71d3 	add.w	r1, r1, r3, lsr #31
 8008382:	ea4f 0252 	mov.w	r2, r2, lsr #1
 8008386:	ea4f 0343 	mov.w	r3, r3, lsl #1
 800838a:	d1f0      	bne.n	800836e <__ieee754_sqrt+0x92>
 800838c:	462a      	mov	r2, r5
 800838e:	f04f 0e20 	mov.w	lr, #32
 8008392:	f04f 4600 	mov.w	r6, #2147483648	; 0x80000000
 8008396:	4281      	cmp	r1, r0
 8008398:	eb06 0c05 	add.w	ip, r6, r5
 800839c:	dc02      	bgt.n	80083a4 <__ieee754_sqrt+0xc8>
 800839e:	d113      	bne.n	80083c8 <__ieee754_sqrt+0xec>
 80083a0:	459c      	cmp	ip, r3
 80083a2:	d811      	bhi.n	80083c8 <__ieee754_sqrt+0xec>
 80083a4:	f1bc 0f00 	cmp.w	ip, #0
 80083a8:	eb0c 0506 	add.w	r5, ip, r6
 80083ac:	da43      	bge.n	8008436 <__ieee754_sqrt+0x15a>
 80083ae:	2d00      	cmp	r5, #0
 80083b0:	db41      	blt.n	8008436 <__ieee754_sqrt+0x15a>
 80083b2:	f100 0801 	add.w	r8, r0, #1
 80083b6:	1a09      	subs	r1, r1, r0
 80083b8:	459c      	cmp	ip, r3
 80083ba:	bf88      	it	hi
 80083bc:	f101 31ff 	addhi.w	r1, r1, #4294967295
 80083c0:	eba3 030c 	sub.w	r3, r3, ip
 80083c4:	4432      	add	r2, r6
 80083c6:	4640      	mov	r0, r8
 80083c8:	ea4f 7cd3 	mov.w	ip, r3, lsr #31
 80083cc:	f1be 0e01 	subs.w	lr, lr, #1
 80083d0:	eb0c 0141 	add.w	r1, ip, r1, lsl #1
 80083d4:	ea4f 0343 	mov.w	r3, r3, lsl #1
 80083d8:	ea4f 0656 	mov.w	r6, r6, lsr #1
 80083dc:	d1db      	bne.n	8008396 <__ieee754_sqrt+0xba>
 80083de:	430b      	orrs	r3, r1
 80083e0:	d006      	beq.n	80083f0 <__ieee754_sqrt+0x114>
 80083e2:	1c50      	adds	r0, r2, #1
 80083e4:	bf13      	iteet	ne
 80083e6:	3201      	addne	r2, #1
 80083e8:	3401      	addeq	r4, #1
 80083ea:	4672      	moveq	r2, lr
 80083ec:	f022 0201 	bicne.w	r2, r2, #1
 80083f0:	1063      	asrs	r3, r4, #1
 80083f2:	0852      	lsrs	r2, r2, #1
 80083f4:	07e1      	lsls	r1, r4, #31
 80083f6:	f103 537f 	add.w	r3, r3, #1069547520	; 0x3fc00000
 80083fa:	f503 1300 	add.w	r3, r3, #2097152	; 0x200000
 80083fe:	bf48      	it	mi
 8008400:	f042 4200 	orrmi.w	r2, r2, #2147483648	; 0x80000000
 8008404:	eb03 5507 	add.w	r5, r3, r7, lsl #20
 8008408:	4614      	mov	r4, r2
 800840a:	e781      	b.n	8008310 <__ieee754_sqrt+0x34>
 800840c:	0ad9      	lsrs	r1, r3, #11
 800840e:	3815      	subs	r0, #21
 8008410:	055b      	lsls	r3, r3, #21
 8008412:	2900      	cmp	r1, #0
 8008414:	d0fa      	beq.n	800840c <__ieee754_sqrt+0x130>
 8008416:	02cd      	lsls	r5, r1, #11
 8008418:	d50a      	bpl.n	8008430 <__ieee754_sqrt+0x154>
 800841a:	f1c2 0420 	rsb	r4, r2, #32
 800841e:	fa23 f404 	lsr.w	r4, r3, r4
 8008422:	1e55      	subs	r5, r2, #1
 8008424:	4093      	lsls	r3, r2
 8008426:	4321      	orrs	r1, r4
 8008428:	1b42      	subs	r2, r0, r5
 800842a:	e78a      	b.n	8008342 <__ieee754_sqrt+0x66>
 800842c:	4610      	mov	r0, r2
 800842e:	e7f0      	b.n	8008412 <__ieee754_sqrt+0x136>
 8008430:	0049      	lsls	r1, r1, #1
 8008432:	3201      	adds	r2, #1
 8008434:	e7ef      	b.n	8008416 <__ieee754_sqrt+0x13a>
 8008436:	4680      	mov	r8, r0
 8008438:	e7bd      	b.n	80083b6 <__ieee754_sqrt+0xda>
 800843a:	bf00      	nop
 800843c:	7ff00000 	.word	0x7ff00000

08008440 <with_errno>:
 8008440:	b570      	push	{r4, r5, r6, lr}
 8008442:	4604      	mov	r4, r0
 8008444:	460d      	mov	r5, r1
 8008446:	4616      	mov	r6, r2
 8008448:	f7fc fc62 	bl	8004d10 <__errno>
 800844c:	4629      	mov	r1, r5
 800844e:	6006      	str	r6, [r0, #0]
 8008450:	4620      	mov	r0, r4
 8008452:	bd70      	pop	{r4, r5, r6, pc}

08008454 <xflow>:
 8008454:	b537      	push	{r0, r1, r2, r4, r5, lr}
 8008456:	4614      	mov	r4, r2
 8008458:	461d      	mov	r5, r3
 800845a:	b108      	cbz	r0, 8008460 <xflow+0xc>
 800845c:	f103 4300 	add.w	r3, r3, #2147483648	; 0x80000000
 8008460:	e9cd 2300 	strd	r2, r3, [sp]
 8008464:	e9dd 2300 	ldrd	r2, r3, [sp]
 8008468:	4620      	mov	r0, r4
 800846a:	4629      	mov	r1, r5
 800846c:	f7f8 f8dc 	bl	8000628 <__aeabi_dmul>
 8008470:	2222      	movs	r2, #34	; 0x22
 8008472:	b003      	add	sp, #12
 8008474:	e8bd 4030 	ldmia.w	sp!, {r4, r5, lr}
 8008478:	f7ff bfe2 	b.w	8008440 <with_errno>

0800847c <__math_uflow>:
 800847c:	b508      	push	{r3, lr}
 800847e:	2200      	movs	r2, #0
 8008480:	f04f 5380 	mov.w	r3, #268435456	; 0x10000000
 8008484:	f7ff ffe6 	bl	8008454 <xflow>
 8008488:	ec41 0b10 	vmov	d0, r0, r1
 800848c:	bd08      	pop	{r3, pc}

0800848e <__math_oflow>:
 800848e:	b508      	push	{r3, lr}
 8008490:	2200      	movs	r2, #0
 8008492:	f04f 43e0 	mov.w	r3, #1879048192	; 0x70000000
 8008496:	f7ff ffdd 	bl	8008454 <xflow>
 800849a:	ec41 0b10 	vmov	d0, r0, r1
 800849e:	bd08      	pop	{r3, pc}

080084a0 <fabs>:
 80084a0:	ec51 0b10 	vmov	r0, r1, d0
 80084a4:	ee10 2a10 	vmov	r2, s0
 80084a8:	f021 4300 	bic.w	r3, r1, #2147483648	; 0x80000000
 80084ac:	ec43 2b10 	vmov	d0, r2, r3
 80084b0:	4770      	bx	lr

080084b2 <finite>:
 80084b2:	b082      	sub	sp, #8
 80084b4:	ed8d 0b00 	vstr	d0, [sp]
 80084b8:	9801      	ldr	r0, [sp, #4]
 80084ba:	f040 4000 	orr.w	r0, r0, #2147483648	; 0x80000000
 80084be:	f500 1080 	add.w	r0, r0, #1048576	; 0x100000
 80084c2:	0fc0      	lsrs	r0, r0, #31
 80084c4:	b002      	add	sp, #8
 80084c6:	4770      	bx	lr

080084c8 <scalbn>:
 80084c8:	b570      	push	{r4, r5, r6, lr}
 80084ca:	ec55 4b10 	vmov	r4, r5, d0
 80084ce:	f3c5 520a 	ubfx	r2, r5, #20, #11
 80084d2:	4606      	mov	r6, r0
 80084d4:	462b      	mov	r3, r5
 80084d6:	b99a      	cbnz	r2, 8008500 <scalbn+0x38>
 80084d8:	f025 4300 	bic.w	r3, r5, #2147483648	; 0x80000000
 80084dc:	4323      	orrs	r3, r4
 80084de:	d036      	beq.n	800854e <scalbn+0x86>
 80084e0:	4b39      	ldr	r3, [pc, #228]	; (80085c8 <scalbn+0x100>)
 80084e2:	4629      	mov	r1, r5
 80084e4:	ee10 0a10 	vmov	r0, s0
 80084e8:	2200      	movs	r2, #0
 80084ea:	f7f8 f89d 	bl	8000628 <__aeabi_dmul>
 80084ee:	4b37      	ldr	r3, [pc, #220]	; (80085cc <scalbn+0x104>)
 80084f0:	429e      	cmp	r6, r3
 80084f2:	4604      	mov	r4, r0
 80084f4:	460d      	mov	r5, r1
 80084f6:	da10      	bge.n	800851a <scalbn+0x52>
 80084f8:	a32b      	add	r3, pc, #172	; (adr r3, 80085a8 <scalbn+0xe0>)
 80084fa:	e9d3 2300 	ldrd	r2, r3, [r3]
 80084fe:	e03a      	b.n	8008576 <scalbn+0xae>
 8008500:	f240 71ff 	movw	r1, #2047	; 0x7ff
 8008504:	428a      	cmp	r2, r1
 8008506:	d10c      	bne.n	8008522 <scalbn+0x5a>
 8008508:	ee10 2a10 	vmov	r2, s0
 800850c:	4620      	mov	r0, r4
 800850e:	4629      	mov	r1, r5
 8008510:	f7f7 fed4 	bl	80002bc <__adddf3>
 8008514:	4604      	mov	r4, r0
 8008516:	460d      	mov	r5, r1
 8008518:	e019      	b.n	800854e <scalbn+0x86>
 800851a:	f3c1 520a 	ubfx	r2, r1, #20, #11
 800851e:	460b      	mov	r3, r1
 8008520:	3a36      	subs	r2, #54	; 0x36
 8008522:	4432      	add	r2, r6
 8008524:	f240 71fe 	movw	r1, #2046	; 0x7fe
 8008528:	428a      	cmp	r2, r1
 800852a:	dd08      	ble.n	800853e <scalbn+0x76>
 800852c:	2d00      	cmp	r5, #0
 800852e:	a120      	add	r1, pc, #128	; (adr r1, 80085b0 <scalbn+0xe8>)
 8008530:	e9d1 0100 	ldrd	r0, r1, [r1]
 8008534:	da1c      	bge.n	8008570 <scalbn+0xa8>
 8008536:	a120      	add	r1, pc, #128	; (adr r1, 80085b8 <scalbn+0xf0>)
 8008538:	e9d1 0100 	ldrd	r0, r1, [r1]
 800853c:	e018      	b.n	8008570 <scalbn+0xa8>
 800853e:	2a00      	cmp	r2, #0
 8008540:	dd08      	ble.n	8008554 <scalbn+0x8c>
 8008542:	f023 43ff 	bic.w	r3, r3, #2139095040	; 0x7f800000
 8008546:	f423 03e0 	bic.w	r3, r3, #7340032	; 0x700000
 800854a:	ea43 5502 	orr.w	r5, r3, r2, lsl #20
 800854e:	ec45 4b10 	vmov	d0, r4, r5
 8008552:	bd70      	pop	{r4, r5, r6, pc}
 8008554:	f112 0f35 	cmn.w	r2, #53	; 0x35
 8008558:	da19      	bge.n	800858e <scalbn+0xc6>
 800855a:	f24c 3350 	movw	r3, #50000	; 0xc350
 800855e:	429e      	cmp	r6, r3
 8008560:	f005 4300 	and.w	r3, r5, #2147483648	; 0x80000000
 8008564:	dd0a      	ble.n	800857c <scalbn+0xb4>
 8008566:	a112      	add	r1, pc, #72	; (adr r1, 80085b0 <scalbn+0xe8>)
 8008568:	e9d1 0100 	ldrd	r0, r1, [r1]
 800856c:	2b00      	cmp	r3, #0
 800856e:	d1e2      	bne.n	8008536 <scalbn+0x6e>
 8008570:	a30f      	add	r3, pc, #60	; (adr r3, 80085b0 <scalbn+0xe8>)
 8008572:	e9d3 2300 	ldrd	r2, r3, [r3]
 8008576:	f7f8 f857 	bl	8000628 <__aeabi_dmul>
 800857a:	e7cb      	b.n	8008514 <scalbn+0x4c>
 800857c:	a10a      	add	r1, pc, #40	; (adr r1, 80085a8 <scalbn+0xe0>)
 800857e:	e9d1 0100 	ldrd	r0, r1, [r1]
 8008582:	2b00      	cmp	r3, #0
 8008584:	d0b8      	beq.n	80084f8 <scalbn+0x30>
 8008586:	a10e      	add	r1, pc, #56	; (adr r1, 80085c0 <scalbn+0xf8>)
 8008588:	e9d1 0100 	ldrd	r0, r1, [r1]
 800858c:	e7b4      	b.n	80084f8 <scalbn+0x30>
 800858e:	f023 43ff 	bic.w	r3, r3, #2139095040	; 0x7f800000
 8008592:	3236      	adds	r2, #54	; 0x36
 8008594:	f423 03e0 	bic.w	r3, r3, #7340032	; 0x700000
 8008598:	ea43 5102 	orr.w	r1, r3, r2, lsl #20
 800859c:	4620      	mov	r0, r4
 800859e:	4b0c      	ldr	r3, [pc, #48]	; (80085d0 <scalbn+0x108>)
 80085a0:	2200      	movs	r2, #0
 80085a2:	e7e8      	b.n	8008576 <scalbn+0xae>
 80085a4:	f3af 8000 	nop.w
 80085a8:	c2f8f359 	.word	0xc2f8f359
 80085ac:	01a56e1f 	.word	0x01a56e1f
 80085b0:	8800759c 	.word	0x8800759c
 80085b4:	7e37e43c 	.word	0x7e37e43c
 80085b8:	8800759c 	.word	0x8800759c
 80085bc:	fe37e43c 	.word	0xfe37e43c
 80085c0:	c2f8f359 	.word	0xc2f8f359
 80085c4:	81a56e1f 	.word	0x81a56e1f
 80085c8:	43500000 	.word	0x43500000
 80085cc:	ffff3cb0 	.word	0xffff3cb0
 80085d0:	3c900000 	.word	0x3c900000

080085d4 <_init>:
 80085d4:	b5f8      	push	{r3, r4, r5, r6, r7, lr}
 80085d6:	bf00      	nop
 80085d8:	bcf8      	pop	{r3, r4, r5, r6, r7}
 80085da:	bc08      	pop	{r3}
 80085dc:	469e      	mov	lr, r3
 80085de:	4770      	bx	lr

080085e0 <_fini>:
 80085e0:	b5f8      	push	{r3, r4, r5, r6, r7, lr}
 80085e2:	bf00      	nop
 80085e4:	bcf8      	pop	{r3, r4, r5, r6, r7}
 80085e6:	bc08      	pop	{r3}
 80085e8:	469e      	mov	lr, r3
 80085ea:	4770      	bx	lr
